TRY Data Explorer Output	2020-5-28
Measurements in Region
Longitude between 140.96 and 149.5, Latitude between -44 and -42
ObservationID	ObsdataID	AccSpeciesID	AccSpeciesName	Lon	Lat	AltitudeM	SamplingDate	Trait	Dataset	FirstName	LastName	Institution	
1221538	4584204	200148	Acacia	145.3	-42.183333	2	1991-11-12	Leaf angle (inclination, orientation)	VegClass CBM Global Database	Andy	Gillison	Center for Biodiversity Management	
799215	4584178	200148	Acacia	145.3	-42.183333	2	1991-11-12	Plant functional type (PFT)	VegClass CBM Global Database	Andy	Gillison	Center for Biodiversity Management	
1254732	4584209	200148	Acacia	145.3	-42.183333	2	1991-11-12	Plant life form (Raunkiaer life form)	VegClass CBM Global Database	Andy	Gillison	Center for Biodiversity Management	
799215	4584205	200148	Acacia	145.3	-42.183333	2	1991-11-12	Leaf type	VegClass CBM Global Database	Andy	Gillison	Center for Biodiversity Management	
799215	4584208	200148	Acacia	145.3	-42.183333	2	1991-11-12	Plant woodiness	VegClass CBM Global Database	Andy	Gillison	Center for Biodiversity Management	
799215	4584203	200148	Acacia	145.3	-42.183333	2	1991-11-12	Leaf angle (inclination, orientation)	VegClass CBM Global Database	Andy	Gillison	Center for Biodiversity Management	
799215	4584207	200148	Acacia	145.3	-42.183333	2	1991-11-12	Plant life form (Raunkiaer life form)	VegClass CBM Global Database	Andy	Gillison	Center for Biodiversity Management	
799215	4584200	200148	Acacia	145.3	-42.183333	2	1991-11-12	Leaf area (in case of compound leaves: leaflet, undefined if petiole is in- or excluded)	VegClass CBM Global Database	Andy	Gillison	Center for Biodiversity Management	
1254733	4584210	200148	Acacia	145.3	-42.183333	2	1991-11-12	Plant life form (Raunkiaer life form)	VegClass CBM Global Database	Andy	Gillison	Center for Biodiversity Management	
799215	4584206	200148	Acacia	145.3	-42.183333	2	1991-11-12	Leaf phenology type	VegClass CBM Global Database	Andy	Gillison	Center for Biodiversity Management	
2668290	23680159	279	Acacia dealbata	147	-42.4			Bark thickness (outer bark)	Dataset for Rosell et al. 2017 New Phytologist	Julieta	Rosell	Universidad Nacional Autonoma de México	
2460947	20011291	279	Acacia dealbata	146.6512	-43.0888	217		Leaf respiration rate in the dark per leaf area	Global Respiration Database	Owen	Atkin	Australian National University	
2667646	23674469	279	Acacia dealbata	147	-42.4			Stem diameter	Dataset for Rosell 2016 New Phytologist	Julieta	Rosell	Universidad Nacional Autonoma de México	
2460947	20011301	279	Acacia dealbata	146.6512	-43.0888	217		Leaf area per leaf dry mass (specific leaf area, SLA or 1/LMA): petiole included	Global Respiration Database	Owen	Atkin	Australian National University	
2460947	20011280	279	Acacia dealbata	146.6512	-43.0888	217		Leaf photosynthesis: intercellular CO2 concentration	Global Respiration Database	Owen	Atkin	Australian National University	
2460947	20011294	279	Acacia dealbata	146.6512	-43.0888	217		Leaf respiration rate in the dark per leaf dry mass	Global Respiration Database	Owen	Atkin	Australian National University	
2667646	23674472	279	Acacia dealbata	147	-42.4			Bark thickness (outer bark)	Dataset for Rosell 2016 New Phytologist	Julieta	Rosell	Universidad Nacional Autonoma de México	
2460947	20011304	279	Acacia dealbata	146.6512	-43.0888	217		Leaf photosynthesis carboxylation capacity (Vcmax) per leaf dry mass (Farquhar model)	Global Respiration Database	Owen	Atkin	Australian National University	
2460947	20011271	279	Acacia dealbata	146.6512	-43.0888	217		Plant functional type (PFT)	Global Respiration Database	Owen	Atkin	Australian National University	
2668290	23680155	279	Acacia dealbata	147	-42.4			Plant growth form	Dataset for Rosell et al. 2017 New Phytologist	Julieta	Rosell	Universidad Nacional Autonoma de México	
2460947	20011285	279	Acacia dealbata	146.6512	-43.0888	217		Leaf respiration rate in the dark per leaf dry mass	Global Respiration Database	Owen	Atkin	Australian National University	
2667646	23673109	279	Acacia dealbata	147	-42.4			Stem diameter	Dataset for Rosell 2016 New Phytologist	Julieta	Rosell	Universidad Nacional Autonoma de México	
2460947	20011297	279	Acacia dealbata	146.6512	-43.0888	217		Leaf nitrogen (N) content per leaf dry mass	Global Respiration Database	Owen	Atkin	Australian National University	
2460947	50885661	279	Acacia dealbata	146.6512	-43.0888	217		Leaf photosynthesis carboxylation capacity (Vcmax) per leaf dry mass (Farquhar model)	Global Respiration Database	Owen	Atkin	Australian National University	
4523766	50625361	279	Acacia dealbata	147	-42.4			Plant woodiness	Plant Hydraulic Traits	Stefano	Manzoni	Stockholm University	
2460947	20011274	279	Acacia dealbata	146.6512	-43.0888	217		Plant functional type (PFT)	Global Respiration Database	Owen	Atkin	Australian National University	
2668290	23680158	279	Acacia dealbata	147	-42.4			Bark thickness (inner bark)	Dataset for Rosell et al. 2017 New Phytologist	Julieta	Rosell	Universidad Nacional Autonoma de México	
2460947	20011290	279	Acacia dealbata	146.6512	-43.0888	217		Leaf respiration rate in the dark per leaf area	Global Respiration Database	Owen	Atkin	Australian National University	
2667646	23673112	279	Acacia dealbata	147	-42.4			Bark thickness (outer bark)	Dataset for Rosell 2016 New Phytologist	Julieta	Rosell	Universidad Nacional Autonoma de México	
2460947	20011300	279	Acacia dealbata	146.6512	-43.0888	217		Leaf phosphorus (P) content per leaf area	Global Respiration Database	Owen	Atkin	Australian National University	
2460947	20011279	279	Acacia dealbata	146.6512	-43.0888	217		Stomata conductance per leaf area	Global Respiration Database	Owen	Atkin	Australian National University	
2460947	20011293	279	Acacia dealbata	146.6512	-43.0888	217		Leaf respiration rate in the dark per leaf area	Global Respiration Database	Owen	Atkin	Australian National University	
2667646	23674471	279	Acacia dealbata	147	-42.4			Bark thickness (inner bark)	Dataset for Rosell 2016 New Phytologist	Julieta	Rosell	Universidad Nacional Autonoma de México	
2460947	20011303	279	Acacia dealbata	146.6512	-43.0888	217		Leaf photosynthesis carboxylation capacity (Vcmax) per leaf area (Farquhar model)	Global Respiration Database	Owen	Atkin	Australian National University	
2460947	20011270	279	Acacia dealbata	146.6512	-43.0888	217		Plant functional type (PFT)	Global Respiration Database	Owen	Atkin	Australian National University	
2668290	23680154	279	Acacia dealbata	147	-42.4			Stem construction type	Dataset for Rosell et al. 2017 New Phytologist	Julieta	Rosell	Universidad Nacional Autonoma de México	
2460947	20011284	279	Acacia dealbata	146.6512	-43.0888	217		Leaf photosynthesis rate per leaf dry mass	Global Respiration Database	Owen	Atkin	Australian National University	
2460947	20011296	279	Acacia dealbata	146.6512	-43.0888	217		Leaf respiration rate in the dark per leaf dry mass	Global Respiration Database	Owen	Atkin	Australian National University	
2460947	20011306	279	Acacia dealbata	146.6512	-43.0888	217		Leaf respiration rate in the dark as fraction of photosynthetic carboxylation capacity (Vcmax)	Global Respiration Database	Owen	Atkin	Australian National University	
4523766	50625355	279	Acacia dealbata	147	-42.4			Wood (sapwood) specific conductivity (stem specific conductivity)	Plant Hydraulic Traits	Stefano	Manzoni	Stockholm University	
2460947	20011273	279	Acacia dealbata	146.6512	-43.0888	217		Plant functional type (PFT)	Global Respiration Database	Owen	Atkin	Australian National University	
2668290	23680157	279	Acacia dealbata	147	-42.4			Bark thickness	Dataset for Rosell et al. 2017 New Phytologist	Julieta	Rosell	Universidad Nacional Autonoma de México	
2460947	20011289	279	Acacia dealbata	146.6512	-43.0888	217		Leaf respiration rate in the dark per leaf dry mass	Global Respiration Database	Owen	Atkin	Australian National University	
2667646	23673111	279	Acacia dealbata	147	-42.4			Bark thickness (inner bark)	Dataset for Rosell 2016 New Phytologist	Julieta	Rosell	Universidad Nacional Autonoma de México	
2460947	20011299	279	Acacia dealbata	146.6512	-43.0888	217		Leaf nitrogen (N) content per leaf area	Global Respiration Database	Owen	Atkin	Australian National University	
2460947	20011278	279	Acacia dealbata	146.6512	-43.0888	217		Leaf photosynthesis rate per leaf area	Global Respiration Database	Owen	Atkin	Australian National University	
2460947	20011292	279	Acacia dealbata	146.6512	-43.0888	217		Leaf respiration rate in the dark per leaf dry mass	Global Respiration Database	Owen	Atkin	Australian National University	
2667646	23674470	279	Acacia dealbata	147	-42.4			Bark thickness	Dataset for Rosell 2016 New Phytologist	Julieta	Rosell	Universidad Nacional Autonoma de México	
2460947	20011302	279	Acacia dealbata	146.6512	-43.0888	217		Leaf photosynthesis carboxylation capacity (Vcmax) per leaf area (Farquhar model)	Global Respiration Database	Owen	Atkin	Australian National University	
2460947	20011282	279	Acacia dealbata	146.6512	-43.0888	217		Leaf respiration rate in the dark per leaf area	Global Respiration Database	Owen	Atkin	Australian National University	
2460947	20011295	279	Acacia dealbata	146.6512	-43.0888	217		Leaf respiration rate in the dark per leaf area	Global Respiration Database	Owen	Atkin	Australian National University	
2460947	20011305	279	Acacia dealbata	146.6512	-43.0888	217		Leaf respiration rate in the dark as fraction of photosynthetic carboxylation capacity (Vcmax)	Global Respiration Database	Owen	Atkin	Australian National University	
4523766	50625354	279	Acacia dealbata	147	-42.4			Leaf area-specific conductivity (leaf specific conductivity)	Plant Hydraulic Traits	Stefano	Manzoni	Stockholm University	
2460947	20011272	279	Acacia dealbata	146.6512	-43.0888	217		Plant functional type (PFT)	Global Respiration Database	Owen	Atkin	Australian National University	
2668290	23680156	279	Acacia dealbata	147	-42.4			Stem diameter	Dataset for Rosell et al. 2017 New Phytologist	Julieta	Rosell	Universidad Nacional Autonoma de México	
2460947	20011288	279	Acacia dealbata	146.6512	-43.0888	217		Leaf respiration rate in the dark per leaf area	Global Respiration Database	Owen	Atkin	Australian National University	
2667646	23673110	279	Acacia dealbata	147	-42.4			Bark thickness	Dataset for Rosell 2016 New Phytologist	Julieta	Rosell	Universidad Nacional Autonoma de México	
2460947	20011298	279	Acacia dealbata	146.6512	-43.0888	217		Leaf phosphorus (P) content per leaf dry mass	Global Respiration Database	Owen	Atkin	Australian National University	
2460947	50949708	279	Acacia dealbata	146.6512	-43.0888	217		Stomata conductance per leaf dry mass	Global Respiration Database	Owen	Atkin	Australian National University	
4523766	50625362	279	Acacia dealbata	147	-42.4			Leaf phenology type	Plant Hydraulic Traits	Stefano	Manzoni	Stockholm University	
2460947	20011275	279	Acacia dealbata	146.6512	-43.0888	217		Plant functional type (PFT)	Global Respiration Database	Owen	Atkin	Australian National University	
799228	4584672	462	Acacia melanoxylon	145.6	-42.45	0	1991-11-12	Plant life form (Raunkiaer life form)	VegClass CBM Global Database	Andy	Gillison	Center for Biodiversity Management	
2460948	20011335	462	Acacia melanoxylon	146.6512	-43.0888	217		Leaf respiration rate in the dark per leaf area	Global Respiration Database	Owen	Atkin	Australian National University	
2460948	20011348	462	Acacia melanoxylon	146.6512	-43.0888	217		Leaf respiration rate in the dark per leaf area	Global Respiration Database	Owen	Atkin	Australian National University	
2460948	20011358	462	Acacia melanoxylon	146.6512	-43.0888	217		Leaf respiration rate in the dark as fraction of photosynthetic carboxylation capacity (Vcmax)	Global Respiration Database	Owen	Atkin	Australian National University	
2460948	20011325	462	Acacia melanoxylon	146.6512	-43.0888	217		Plant functional type (PFT)	Global Respiration Database	Owen	Atkin	Australian National University	
2460948	20011341	462	Acacia melanoxylon	146.6512	-43.0888	217		Leaf respiration rate in the dark per leaf area	Global Respiration Database	Owen	Atkin	Australian National University	
2460948	20011351	462	Acacia melanoxylon	146.6512	-43.0888	217		Leaf phosphorus (P) content per leaf dry mass	Global Respiration Database	Owen	Atkin	Australian National University	
2460948	50949709	462	Acacia melanoxylon	146.6512	-43.0888	217		Stomata conductance per leaf dry mass	Global Respiration Database	Owen	Atkin	Australian National University	
799228	4584666	462	Acacia melanoxylon	145.6	-42.45	0	1991-11-12	Leaf angle (inclination, orientation)	VegClass CBM Global Database	Andy	Gillison	Center for Biodiversity Management	
2460948	20011328	462	Acacia melanoxylon	146.6512	-43.0888	217		Plant functional type (PFT)	Global Respiration Database	Owen	Atkin	Australian National University	
1221551	4584667	462	Acacia melanoxylon	145.6	-42.45	0	1991-11-12	Leaf angle (inclination, orientation)	VegClass CBM Global Database	Andy	Gillison	Center for Biodiversity Management	
2460948	20011344	462	Acacia melanoxylon	146.6512	-43.0888	217		Leaf respiration rate in the dark per leaf area	Global Respiration Database	Owen	Atkin	Australian National University	
2460948	20011354	462	Acacia melanoxylon	146.6512	-43.0888	217		Leaf area per leaf dry mass (specific leaf area, SLA or 1/LMA): petiole included	Global Respiration Database	Owen	Atkin	Australian National University	
799228	4584671	462	Acacia melanoxylon	145.6	-42.45	0	1991-11-12	Plant woodiness	VegClass CBM Global Database	Andy	Gillison	Center for Biodiversity Management	
1254755	4584670	462	Acacia melanoxylon	145.6	-42.45	0	1991-11-12	Plant life form (Raunkiaer life form)	VegClass CBM Global Database	Andy	Gillison	Center for Biodiversity Management	
2460948	20011333	462	Acacia melanoxylon	146.6512	-43.0888	217		Leaf photosynthesis: intercellular CO2 concentration	Global Respiration Database	Owen	Atkin	Australian National University	
2460948	20011347	462	Acacia melanoxylon	146.6512	-43.0888	217		Leaf respiration rate in the dark per leaf dry mass	Global Respiration Database	Owen	Atkin	Australian National University	
2460948	20011357	462	Acacia melanoxylon	146.6512	-43.0888	217		Leaf photosynthesis carboxylation capacity (Vcmax) per leaf dry mass (Farquhar model)	Global Respiration Database	Owen	Atkin	Australian National University	
2460948	20011324	462	Acacia melanoxylon	146.6512	-43.0888	217		Plant functional type (PFT)	Global Respiration Database	Owen	Atkin	Australian National University	
2460948	20011338	462	Acacia melanoxylon	146.6512	-43.0888	217		Leaf respiration rate in the dark per leaf dry mass	Global Respiration Database	Owen	Atkin	Australian National University	
2460948	20011350	462	Acacia melanoxylon	146.6512	-43.0888	217		Leaf nitrogen (N) content per leaf dry mass	Global Respiration Database	Owen	Atkin	Australian National University	
2460948	50885662	462	Acacia melanoxylon	146.6512	-43.0888	217		Leaf photosynthesis carboxylation capacity (Vcmax) per leaf dry mass (Farquhar model)	Global Respiration Database	Owen	Atkin	Australian National University	
799228	4584663	462	Acacia melanoxylon	145.6	-42.45	0	1991-11-12	Leaf area (in case of compound leaves: leaflet, undefined if petiole is in- or excluded)	VegClass CBM Global Database	Andy	Gillison	Center for Biodiversity Management	
2460948	20011327	462	Acacia melanoxylon	146.6512	-43.0888	217		Plant functional type (PFT)	Global Respiration Database	Owen	Atkin	Australian National University	
2460948	20011343	462	Acacia melanoxylon	146.6512	-43.0888	217		Leaf respiration rate in the dark per leaf area	Global Respiration Database	Owen	Atkin	Australian National University	
2460948	20011353	462	Acacia melanoxylon	146.6512	-43.0888	217		Leaf phosphorus (P) content per leaf area	Global Respiration Database	Owen	Atkin	Australian National University	
799228	4584669	462	Acacia melanoxylon	145.6	-42.45	0	1991-11-12	Leaf phenology type	VegClass CBM Global Database	Andy	Gillison	Center for Biodiversity Management	
2460948	20011332	462	Acacia melanoxylon	146.6512	-43.0888	217		Stomata conductance per leaf area	Global Respiration Database	Owen	Atkin	Australian National University	
2460948	20011346	462	Acacia melanoxylon	146.6512	-43.0888	217		Leaf respiration rate in the dark per leaf area	Global Respiration Database	Owen	Atkin	Australian National University	
2460948	20011356	462	Acacia melanoxylon	146.6512	-43.0888	217		Leaf photosynthesis carboxylation capacity (Vcmax) per leaf area (Farquhar model)	Global Respiration Database	Owen	Atkin	Australian National University	
2460948	20011323	462	Acacia melanoxylon	146.6512	-43.0888	217		Plant functional type (PFT)	Global Respiration Database	Owen	Atkin	Australian National University	
2460948	20011337	462	Acacia melanoxylon	146.6512	-43.0888	217		Leaf photosynthesis rate per leaf dry mass	Global Respiration Database	Owen	Atkin	Australian National University	
2460948	20011349	462	Acacia melanoxylon	146.6512	-43.0888	217		Leaf respiration rate in the dark per leaf dry mass	Global Respiration Database	Owen	Atkin	Australian National University	
2460948	20011359	462	Acacia melanoxylon	146.6512	-43.0888	217		Leaf respiration rate in the dark as fraction of photosynthetic carboxylation capacity (Vcmax)	Global Respiration Database	Owen	Atkin	Australian National University	
799228	4584645	462	Acacia melanoxylon	145.6	-42.45	0	1991-11-12	Plant functional type (PFT)	VegClass CBM Global Database	Andy	Gillison	Center for Biodiversity Management	
2460948	20011326	462	Acacia melanoxylon	146.6512	-43.0888	217		Plant functional type (PFT)	Global Respiration Database	Owen	Atkin	Australian National University	
2460948	20011342	462	Acacia melanoxylon	146.6512	-43.0888	217		Leaf respiration rate in the dark per leaf dry mass	Global Respiration Database	Owen	Atkin	Australian National University	
2460948	20011352	462	Acacia melanoxylon	146.6512	-43.0888	217		Leaf nitrogen (N) content per leaf area	Global Respiration Database	Owen	Atkin	Australian National University	
799228	4584668	462	Acacia melanoxylon	145.6	-42.45	0	1991-11-12	Leaf type	VegClass CBM Global Database	Andy	Gillison	Center for Biodiversity Management	
2460948	20011331	462	Acacia melanoxylon	146.6512	-43.0888	217		Leaf photosynthesis rate per leaf area	Global Respiration Database	Owen	Atkin	Australian National University	
2460948	20011345	462	Acacia melanoxylon	146.6512	-43.0888	217		Leaf respiration rate in the dark per leaf dry mass	Global Respiration Database	Owen	Atkin	Australian National University	
2460948	20011355	462	Acacia melanoxylon	146.6512	-43.0888	217		Leaf photosynthesis carboxylation capacity (Vcmax) per leaf area (Farquhar model)	Global Respiration Database	Owen	Atkin	Australian National University	
4523751	50625196	631	Acacia terminalis	147.2	-43			Plant woodiness	Plant Hydraulic Traits	Stefano	Manzoni	Stockholm University	
4523751	50625190	631	Acacia terminalis	147.2	-43			Wood (sapwood) specific conductivity (stem specific conductivity)	Plant Hydraulic Traits	Stefano	Manzoni	Stockholm University	
4523751	50625189	631	Acacia terminalis	147.2	-43			Leaf area-specific conductivity (leaf specific conductivity)	Plant Hydraulic Traits	Stefano	Manzoni	Stockholm University	
4523751	50625197	631	Acacia terminalis	147.2	-43			Leaf phenology type	Plant Hydraulic Traits	Stefano	Manzoni	Stockholm University	
1728115	12616019	73520	Acmopyle pancheri	147.324722222222	-42.905	60		Plant height vegetative	Xylem Functional Traits (XFT) Database	Steven	Jansen	Ulm University	
1728115	12616032	73520	Acmopyle pancheri	147.324722222222	-42.905	60		Wood vessel grouping	Xylem Functional Traits (XFT) Database	Steven	Jansen	Ulm University	
1728116	12616123	73520	Acmopyle pancheri	147.324722222222	-42.905	60		Wood vessel perforation plates	Xylem Functional Traits (XFT) Database	Steven	Jansen	Ulm University	
1728114	12615931	73520	Acmopyle pancheri	147.324722222222	-42.905	60		Wood fibre types	Xylem Functional Traits (XFT) Database	Steven	Jansen	Ulm University	
1728115	12616022	73520	Acmopyle pancheri	147.324722222222	-42.905	60		Xylem hydraulic vulnerability, xylem cavitation vulnerability, embolism vulnerability, (P20, P50, P8	Xylem Functional Traits (XFT) Database	Steven	Jansen	Ulm University	
1728116	12616115	73520	Acmopyle pancheri	147.324722222222	-42.905	60		Plant growth form	Xylem Functional Traits (XFT) Database	Steven	Jansen	Ulm University	
1728114	12615921	73520	Acmopyle pancheri	147.324722222222	-42.905	60		Xylem hydraulic vulnerability, xylem cavitation vulnerability, embolism vulnerability, (P20, P50, P8	Xylem Functional Traits (XFT) Database	Steven	Jansen	Ulm University	
1728116	12616126	73520	Acmopyle pancheri	147.324722222222	-42.905	60		Wood vessel grouping	Xylem Functional Traits (XFT) Database	Steven	Jansen	Ulm University	
1728114	12615934	73520	Acmopyle pancheri	147.324722222222	-42.905	60		Leaf phenology type	Xylem Functional Traits (XFT) Database	Steven	Jansen	Ulm University	
1728115	12616028	73520	Acmopyle pancheri	147.324722222222	-42.905	60		Wood growth ring distinction	Xylem Functional Traits (XFT) Database	Steven	Jansen	Ulm University	
1728116	12616119	73520	Acmopyle pancheri	147.324722222222	-42.905	60		Leaf area-specific conductivity (leaf specific conductivity)	Xylem Functional Traits (XFT) Database	Steven	Jansen	Ulm University	
1728114	12615924	73520	Acmopyle pancheri	147.324722222222	-42.905	60		Xylem hydraulic vulnerability, xylem cavitation vulnerability, embolism vulnerability, (P20, P50, P8	Xylem Functional Traits (XFT) Database	Steven	Jansen	Ulm University	
1728115	12616018	73520	Acmopyle pancheri	147.324722222222	-42.905	60		Plant height vegetative	Xylem Functional Traits (XFT) Database	Steven	Jansen	Ulm University	
1728115	12616031	73520	Acmopyle pancheri	147.324722222222	-42.905	60		Wood vessels surrounded by tracheids (vasicentric tracheids)	Xylem Functional Traits (XFT) Database	Steven	Jansen	Ulm University	
1728116	12616122	73520	Acmopyle pancheri	147.324722222222	-42.905	60		Wood growth ring distinction	Xylem Functional Traits (XFT) Database	Steven	Jansen	Ulm University	
1728114	12615930	73520	Acmopyle pancheri	147.324722222222	-42.905	60		Wood vessel perforation plates	Xylem Functional Traits (XFT) Database	Steven	Jansen	Ulm University	
1728115	12616021	73520	Acmopyle pancheri	147.324722222222	-42.905	60		Xylem hydraulic vulnerability, xylem cavitation vulnerability, embolism vulnerability, (P20, P50, P8	Xylem Functional Traits (XFT) Database	Steven	Jansen	Ulm University	
1728115	12616034	73520	Acmopyle pancheri	147.324722222222	-42.905	60		Leaf phenology type	Xylem Functional Traits (XFT) Database	Steven	Jansen	Ulm University	
1728114	12615920	73520	Acmopyle pancheri	147.324722222222	-42.905	60		Plant life form (Raunkiaer life form)	Xylem Functional Traits (XFT) Database	Steven	Jansen	Ulm University	
1728116	12616125	73520	Acmopyle pancheri	147.324722222222	-42.905	60		Wood vessels surrounded by tracheids (vasicentric tracheids)	Xylem Functional Traits (XFT) Database	Steven	Jansen	Ulm University	
1728114	12615933	73520	Acmopyle pancheri	147.324722222222	-42.905	60		Wood vessel grouping	Xylem Functional Traits (XFT) Database	Steven	Jansen	Ulm University	
1728115	12616027	73520	Acmopyle pancheri	147.324722222222	-42.905	60		Xylem hydraulic vulnerability, xylem cavitation vulnerability, embolism vulnerability, (P20, P50, P8	Xylem Functional Traits (XFT) Database	Steven	Jansen	Ulm University	
1728116	12616118	73520	Acmopyle pancheri	147.324722222222	-42.905	60		Wood (sapwood) specific conductivity (stem specific conductivity)	Xylem Functional Traits (XFT) Database	Steven	Jansen	Ulm University	
1728114	12615923	73520	Acmopyle pancheri	147.324722222222	-42.905	60		Xylem hydraulic vulnerability, xylem cavitation vulnerability, embolism vulnerability, (P20, P50, P8	Xylem Functional Traits (XFT) Database	Steven	Jansen	Ulm University	
1728115	12616017	73520	Acmopyle pancheri	147.324722222222	-42.905	60		Plant life form (Raunkiaer life form)	Xylem Functional Traits (XFT) Database	Steven	Jansen	Ulm University	
1728115	12616030	73520	Acmopyle pancheri	147.324722222222	-42.905	60		Wood fibre types	Xylem Functional Traits (XFT) Database	Steven	Jansen	Ulm University	
1728116	12616121	73520	Acmopyle pancheri	147.324722222222	-42.905	60		Stem sapwood cross-sectional area per supported leaf surface area (Huber value)	Xylem Functional Traits (XFT) Database	Steven	Jansen	Ulm University	
1728114	12615929	73520	Acmopyle pancheri	147.324722222222	-42.905	60		Wood growth ring distinction	Xylem Functional Traits (XFT) Database	Steven	Jansen	Ulm University	
1728115	12616020	73520	Acmopyle pancheri	147.324722222222	-42.905	60		Xylem hydraulic vulnerability, xylem cavitation vulnerability, embolism vulnerability, (P20, P50, P8	Xylem Functional Traits (XFT) Database	Steven	Jansen	Ulm University	
1728115	12616033	73520	Acmopyle pancheri	147.324722222222	-42.905	60		Stem specific density (SSD) or wood density (stem dry mass per stem fresh volume)	Xylem Functional Traits (XFT) Database	Steven	Jansen	Ulm University	
1728114	12615918	73520	Acmopyle pancheri	147.324722222222	-42.905	60		Plant growth form	Xylem Functional Traits (XFT) Database	Steven	Jansen	Ulm University	
1728116	12616124	73520	Acmopyle pancheri	147.324722222222	-42.905	60		Wood fibre types	Xylem Functional Traits (XFT) Database	Steven	Jansen	Ulm University	
1728114	12615932	73520	Acmopyle pancheri	147.324722222222	-42.905	60		Wood vessels surrounded by tracheids (vasicentric tracheids)	Xylem Functional Traits (XFT) Database	Steven	Jansen	Ulm University	
1728115	12616023	73520	Acmopyle pancheri	147.324722222222	-42.905	60		Xylem hydraulic vulnerability, xylem cavitation vulnerability, embolism vulnerability, (P20, P50, P8	Xylem Functional Traits (XFT) Database	Steven	Jansen	Ulm University	
1728116	12616117	73520	Acmopyle pancheri	147.324722222222	-42.905	60		Plant life form (Raunkiaer life form)	Xylem Functional Traits (XFT) Database	Steven	Jansen	Ulm University	
1728114	12615922	73520	Acmopyle pancheri	147.324722222222	-42.905	60		Xylem hydraulic vulnerability, xylem cavitation vulnerability, embolism vulnerability, (P20, P50, P8	Xylem Functional Traits (XFT) Database	Steven	Jansen	Ulm University	
1728116	12616127	73520	Acmopyle pancheri	147.324722222222	-42.905	60		Leaf phenology type	Xylem Functional Traits (XFT) Database	Steven	Jansen	Ulm University	
1728115	12616015	73520	Acmopyle pancheri	147.324722222222	-42.905	60		Plant growth form	Xylem Functional Traits (XFT) Database	Steven	Jansen	Ulm University	
1728115	12616029	73520	Acmopyle pancheri	147.324722222222	-42.905	60		Wood vessel perforation plates	Xylem Functional Traits (XFT) Database	Steven	Jansen	Ulm University	
1728116	12616120	73520	Acmopyle pancheri	147.324722222222	-42.905	60		Xylem hydraulic vulnerability, xylem cavitation vulnerability, embolism vulnerability, (P20, P50, P8	Xylem Functional Traits (XFT) Database	Steven	Jansen	Ulm University	
1728114	12615928	73520	Acmopyle pancheri	147.324722222222	-42.905	60		Xylem hydraulic vulnerability, xylem cavitation vulnerability, embolism vulnerability, (P20, P50, P8	Xylem Functional Traits (XFT) Database	Steven	Jansen	Ulm University	
1728117	12616217	1178	Actinostrobus acuminatus	147.324722222222	-42.905	60		Wood growth ring distinction	Xylem Functional Traits (XFT) Database	Steven	Jansen	Ulm University	
1728117	12616220	1178	Actinostrobus acuminatus	147.324722222222	-42.905	60		Wood vessels surrounded by tracheids (vasicentric tracheids)	Xylem Functional Traits (XFT) Database	Steven	Jansen	Ulm University	
1728117	12616210	1178	Actinostrobus acuminatus	147.324722222222	-42.905	60		Plant life form (Raunkiaer life form)	Xylem Functional Traits (XFT) Database	Steven	Jansen	Ulm University	
1728117	12616216	1178	Actinostrobus acuminatus	147.324722222222	-42.905	60		Xylem hydraulic vulnerability, xylem cavitation vulnerability, embolism vulnerability, (P20, P50, P8	Xylem Functional Traits (XFT) Database	Steven	Jansen	Ulm University	
1728117	12616219	1178	Actinostrobus acuminatus	147.324722222222	-42.905	60		Wood fibre types	Xylem Functional Traits (XFT) Database	Steven	Jansen	Ulm University	
1728117	12616208	1178	Actinostrobus acuminatus	147.324722222222	-42.905	60		Plant growth form	Xylem Functional Traits (XFT) Database	Steven	Jansen	Ulm University	
1728117	12616222	1178	Actinostrobus acuminatus	147.324722222222	-42.905	60		Leaf phenology type	Xylem Functional Traits (XFT) Database	Steven	Jansen	Ulm University	
1728117	12616212	1178	Actinostrobus acuminatus	147.324722222222	-42.905	60		Xylem hydraulic vulnerability, xylem cavitation vulnerability, embolism vulnerability, (P20, P50, P8	Xylem Functional Traits (XFT) Database	Steven	Jansen	Ulm University	
1728117	12616218	1178	Actinostrobus acuminatus	147.324722222222	-42.905	60		Wood vessel perforation plates	Xylem Functional Traits (XFT) Database	Steven	Jansen	Ulm University	
1728117	12616221	1178	Actinostrobus acuminatus	147.324722222222	-42.905	60		Wood vessel grouping	Xylem Functional Traits (XFT) Database	Steven	Jansen	Ulm University	
1728117	12616211	1178	Actinostrobus acuminatus	147.324722222222	-42.905	60		Xylem hydraulic vulnerability, xylem cavitation vulnerability, embolism vulnerability, (P20, P50, P8	Xylem Functional Traits (XFT) Database	Steven	Jansen	Ulm University	
1728119	12616408	1179	Actinostrobus arenarius	147.324722222222	-42.905	60		Xylem hydraulic vulnerability, xylem cavitation vulnerability, embolism vulnerability, (P20, P50, P8	Xylem Functional Traits (XFT) Database	Steven	Jansen	Ulm University	
1728119	12616414	1179	Actinostrobus arenarius	147.324722222222	-42.905	60		Wood growth ring distinction	Xylem Functional Traits (XFT) Database	Steven	Jansen	Ulm University	
1728119	12616404	1179	Actinostrobus arenarius	147.324722222222	-42.905	60		Plant life form (Raunkiaer life form)	Xylem Functional Traits (XFT) Database	Steven	Jansen	Ulm University	
1728119	12616417	1179	Actinostrobus arenarius	147.324722222222	-42.905	60		Wood vessels surrounded by tracheids (vasicentric tracheids)	Xylem Functional Traits (XFT) Database	Steven	Jansen	Ulm University	
1728119	12616407	1179	Actinostrobus arenarius	147.324722222222	-42.905	60		Xylem hydraulic vulnerability, xylem cavitation vulnerability, embolism vulnerability, (P20, P50, P8	Xylem Functional Traits (XFT) Database	Steven	Jansen	Ulm University	
1728119	12616402	1179	Actinostrobus arenarius	147.324722222222	-42.905	60		Plant growth form	Xylem Functional Traits (XFT) Database	Steven	Jansen	Ulm University	
1728119	12616420	1179	Actinostrobus arenarius	147.324722222222	-42.905	60		Leaf phenology type	Xylem Functional Traits (XFT) Database	Steven	Jansen	Ulm University	
1728119	12616410	1179	Actinostrobus arenarius	147.324722222222	-42.905	60		Xylem hydraulic vulnerability, xylem cavitation vulnerability, embolism vulnerability, (P20, P50, P8	Xylem Functional Traits (XFT) Database	Steven	Jansen	Ulm University	
1728119	12616416	1179	Actinostrobus arenarius	147.324722222222	-42.905	60		Wood fibre types	Xylem Functional Traits (XFT) Database	Steven	Jansen	Ulm University	
1728119	12616406	1179	Actinostrobus arenarius	147.324722222222	-42.905	60		Plant height vegetative	Xylem Functional Traits (XFT) Database	Steven	Jansen	Ulm University	
1728119	12616419	1179	Actinostrobus arenarius	147.324722222222	-42.905	60		Stem specific density (SSD) or wood density (stem dry mass per stem fresh volume)	Xylem Functional Traits (XFT) Database	Steven	Jansen	Ulm University	
1728119	12616409	1179	Actinostrobus arenarius	147.324722222222	-42.905	60		Xylem hydraulic vulnerability, xylem cavitation vulnerability, embolism vulnerability, (P20, P50, P8	Xylem Functional Traits (XFT) Database	Steven	Jansen	Ulm University	
1728119	12616415	1179	Actinostrobus arenarius	147.324722222222	-42.905	60		Wood vessel perforation plates	Xylem Functional Traits (XFT) Database	Steven	Jansen	Ulm University	
1728119	12616405	1179	Actinostrobus arenarius	147.324722222222	-42.905	60		Plant height vegetative	Xylem Functional Traits (XFT) Database	Steven	Jansen	Ulm University	
1728119	12616418	1179	Actinostrobus arenarius	147.324722222222	-42.905	60		Wood vessel grouping	Xylem Functional Traits (XFT) Database	Steven	Jansen	Ulm University	
1728120	12616502	1180	Actinostrobus pyramidalis	147.324722222222	-42.905	60		Plant growth form	Xylem Functional Traits (XFT) Database	Steven	Jansen	Ulm University	
1728120	12616516	1180	Actinostrobus pyramidalis	147.324722222222	-42.905	60		Wood growth ring distinction	Xylem Functional Traits (XFT) Database	Steven	Jansen	Ulm University	
1728120	12616506	1180	Actinostrobus pyramidalis	147.324722222222	-42.905	60		Xylem hydraulic vulnerability, xylem cavitation vulnerability, embolism vulnerability, (P20, P50, P8	Xylem Functional Traits (XFT) Database	Steven	Jansen	Ulm University	
1728120	12616519	1180	Actinostrobus pyramidalis	147.324722222222	-42.905	60		Wood vessels surrounded by tracheids (vasicentric tracheids)	Xylem Functional Traits (XFT) Database	Steven	Jansen	Ulm University	
1728120	12616512	1180	Actinostrobus pyramidalis	147.324722222222	-42.905	60		Wood vessel pits characteristics (vestured pits)	Xylem Functional Traits (XFT) Database	Steven	Jansen	Ulm University	
1728120	12616515	1180	Actinostrobus pyramidalis	147.324722222222	-42.905	60		Wood xylem torus diameter	Xylem Functional Traits (XFT) Database	Steven	Jansen	Ulm University	
1728120	12616505	1180	Actinostrobus pyramidalis	147.324722222222	-42.905	60		Xylem hydraulic vulnerability, xylem cavitation vulnerability, embolism vulnerability, (P20, P50, P8	Xylem Functional Traits (XFT) Database	Steven	Jansen	Ulm University	
1728120	12616518	1180	Actinostrobus pyramidalis	147.324722222222	-42.905	60		Wood fibre types	Xylem Functional Traits (XFT) Database	Steven	Jansen	Ulm University	
1728120	12616508	1180	Actinostrobus pyramidalis	147.324722222222	-42.905	60		Xylem hydraulic vulnerability, xylem cavitation vulnerability, embolism vulnerability, (P20, P50, P8	Xylem Functional Traits (XFT) Database	Steven	Jansen	Ulm University	
1728120	12616521	1180	Actinostrobus pyramidalis	147.324722222222	-42.905	60		Leaf phenology type	Xylem Functional Traits (XFT) Database	Steven	Jansen	Ulm University	
1728120	12616514	1180	Actinostrobus pyramidalis	147.324722222222	-42.905	60		Wood outer pit aperture diameter / interconduit pit size	Xylem Functional Traits (XFT) Database	Steven	Jansen	Ulm University	
1728120	12616504	1180	Actinostrobus pyramidalis	147.324722222222	-42.905	60		Plant life form (Raunkiaer life form)	Xylem Functional Traits (XFT) Database	Steven	Jansen	Ulm University	
1728120	12616517	1180	Actinostrobus pyramidalis	147.324722222222	-42.905	60		Wood vessel perforation plates	Xylem Functional Traits (XFT) Database	Steven	Jansen	Ulm University	
1728120	12616507	1180	Actinostrobus pyramidalis	147.324722222222	-42.905	60		Xylem hydraulic vulnerability, xylem cavitation vulnerability, embolism vulnerability, (P20, P50, P8	Xylem Functional Traits (XFT) Database	Steven	Jansen	Ulm University	
1728120	12616520	1180	Actinostrobus pyramidalis	147.324722222222	-42.905	60		Wood vessel grouping	Xylem Functional Traits (XFT) Database	Steven	Jansen	Ulm University	
1728120	12616513	1180	Actinostrobus pyramidalis	147.324722222222	-42.905	60		Wood outer pit aperture diameter	Xylem Functional Traits (XFT) Database	Steven	Jansen	Ulm University	
1728124	12616915	73871	Agathis lanceolata	147.324722222222	-42.905	60		Leaf phenology type	Xylem Functional Traits (XFT) Database	Steven	Jansen	Ulm University	
1728124	12616908	73871	Agathis lanceolata	147.324722222222	-42.905	60		Xylem hydraulic vulnerability, xylem cavitation vulnerability, embolism vulnerability, (P20, P50, P8	Xylem Functional Traits (XFT) Database	Steven	Jansen	Ulm University	
1728124	12616911	73871	Agathis lanceolata	147.324722222222	-42.905	60		Wood vessel perforation plates	Xylem Functional Traits (XFT) Database	Steven	Jansen	Ulm University	
1728124	12616903	73871	Agathis lanceolata	147.324722222222	-42.905	60		Plant growth form	Xylem Functional Traits (XFT) Database	Steven	Jansen	Ulm University	
1728124	12616914	73871	Agathis lanceolata	147.324722222222	-42.905	60		Wood vessel grouping	Xylem Functional Traits (XFT) Database	Steven	Jansen	Ulm University	
1728124	12616907	73871	Agathis lanceolata	147.324722222222	-42.905	60		Leaf area-specific conductivity (leaf specific conductivity)	Xylem Functional Traits (XFT) Database	Steven	Jansen	Ulm University	
1728124	12616910	73871	Agathis lanceolata	147.324722222222	-42.905	60		Wood growth ring distinction	Xylem Functional Traits (XFT) Database	Steven	Jansen	Ulm University	
1728124	12616913	73871	Agathis lanceolata	147.324722222222	-42.905	60		Wood vessels surrounded by tracheids (vasicentric tracheids)	Xylem Functional Traits (XFT) Database	Steven	Jansen	Ulm University	
1728124	12616906	73871	Agathis lanceolata	147.324722222222	-42.905	60		Wood (sapwood) specific conductivity (stem specific conductivity)	Xylem Functional Traits (XFT) Database	Steven	Jansen	Ulm University	
1728124	12616909	73871	Agathis lanceolata	147.324722222222	-42.905	60		Stem sapwood cross-sectional area per supported leaf surface area (Huber value)	Xylem Functional Traits (XFT) Database	Steven	Jansen	Ulm University	
1728124	12616912	73871	Agathis lanceolata	147.324722222222	-42.905	60		Wood fibre types	Xylem Functional Traits (XFT) Database	Steven	Jansen	Ulm University	
1728124	12616905	73871	Agathis lanceolata	147.324722222222	-42.905	60		Plant life form (Raunkiaer life form)	Xylem Functional Traits (XFT) Database	Steven	Jansen	Ulm University	
4523752	50625201	2614	Allocasuarina monilifera	147.2	-43			Wood (sapwood) specific conductivity (stem specific conductivity)	Plant Hydraulic Traits	Stefano	Manzoni	Stockholm University	
4523752	50625200	2614	Allocasuarina monilifera	147.2	-43			Leaf area-specific conductivity (leaf specific conductivity)	Plant Hydraulic Traits	Stefano	Manzoni	Stockholm University	
4523752	50625208	2614	Allocasuarina monilifera	147.2	-43			Leaf phenology type	Plant Hydraulic Traits	Stefano	Manzoni	Stockholm University	
4523752	50625207	2614	Allocasuarina monilifera	147.2	-43			Plant woodiness	Plant Hydraulic Traits	Stefano	Manzoni	Stockholm University	
1254756	4584701	3894	Anodopetalum biglandulosum	145.6	-42.45	0	1991-11-12	Plant life form (Raunkiaer life form)	VegClass CBM Global Database	Andy	Gillison	Center for Biodiversity Management	
1045048	6405133	3894	Anodopetalum biglandulosum	146.167	-42.22	415		Leaf thickness	Leaf Biomechanics Database	Yusuke	Onoda	Kyushu University	
1045043	6404993	3894	Anodopetalum biglandulosum	146.167	-42.22	415		Plant growth form	Leaf Biomechanics Database	Yusuke	Onoda	Kyushu University	
799229	4584697	3894	Anodopetalum biglandulosum	145.6	-42.45	0	1991-11-12	Leaf angle (inclination, orientation)	VegClass CBM Global Database	Andy	Gillison	Center for Biodiversity Management	
1045048	6405136	3894	Anodopetalum biglandulosum	146.167	-42.22	415		Leaf texture (sclerophylly, physical strength, toughness)	Leaf Biomechanics Database	Yusuke	Onoda	Kyushu University	
1045043	6404997	3894	Anodopetalum biglandulosum	146.167	-42.22	415		Leaf area per leaf dry mass (specific leaf area, SLA or 1/LMA): petiole excluded	Leaf Biomechanics Database	Yusuke	Onoda	Kyushu University	
799229	4584702	3894	Anodopetalum biglandulosum	145.6	-42.45	0	1991-11-12	Plant morphological adaptations: root metamorphoses	VegClass CBM Global Database	Andy	Gillison	Center for Biodiversity Management	
1045048	6405128	3894	Anodopetalum biglandulosum	146.167	-42.22	415		Plant growth form	Leaf Biomechanics Database	Yusuke	Onoda	Kyushu University	
1045043	6405000	3894	Anodopetalum biglandulosum	146.167	-42.22	415		Leaf texture (sclerophylly, physical strength, toughness)	Leaf Biomechanics Database	Yusuke	Onoda	Kyushu University	
1045048	6405132	3894	Anodopetalum biglandulosum	146.167	-42.22	415		Leaf area per leaf dry mass (specific leaf area, SLA or 1/LMA): petiole excluded	Leaf Biomechanics Database	Yusuke	Onoda	Kyushu University	
1045043	6404992	3894	Anodopetalum biglandulosum	146.167	-42.22	415		Plant growth form	Leaf Biomechanics Database	Yusuke	Onoda	Kyushu University	
1045043	6405003	3894	Anodopetalum biglandulosum	146.167	-42.22	415		Leaf texture (sclerophylly, physical strength, toughness)	Leaf Biomechanics Database	Yusuke	Onoda	Kyushu University	
799229	4584694	3894	Anodopetalum biglandulosum	145.6	-42.45	0	1991-11-12	Leaf area (in case of compound leaves: leaflet, undefined if petiole is in- or excluded)	VegClass CBM Global Database	Andy	Gillison	Center for Biodiversity Management	
1045048	6405135	3894	Anodopetalum biglandulosum	146.167	-42.22	415		Leaf texture (sclerophylly, physical strength, toughness)	Leaf Biomechanics Database	Yusuke	Onoda	Kyushu University	
1045043	6404995	3894	Anodopetalum biglandulosum	146.167	-42.22	415		Leaf type	Leaf Biomechanics Database	Yusuke	Onoda	Kyushu University	
799229	4584700	3894	Anodopetalum biglandulosum	145.6	-42.45	0	1991-11-12	Leaf phenology type	VegClass CBM Global Database	Andy	Gillison	Center for Biodiversity Management	
1045048	6405127	3894	Anodopetalum biglandulosum	146.167	-42.22	415		Plant growth form	Leaf Biomechanics Database	Yusuke	Onoda	Kyushu University	
1045048	6405138	3894	Anodopetalum biglandulosum	146.167	-42.22	415		Leaf texture (sclerophylly, physical strength, toughness)	Leaf Biomechanics Database	Yusuke	Onoda	Kyushu University	
1045043	6404999	3894	Anodopetalum biglandulosum	146.167	-42.22	415		Leaf density (leaf tissue density, leaf dry mass per leaf volume)	Leaf Biomechanics Database	Yusuke	Onoda	Kyushu University	
799229	4584705	3894	Anodopetalum biglandulosum	145.6	-42.45	0	1991-11-12	Plant life form (Raunkiaer life form)	VegClass CBM Global Database	Andy	Gillison	Center for Biodiversity Management	
1045048	6405130	3894	Anodopetalum biglandulosum	146.167	-42.22	415		Leaf type	Leaf Biomechanics Database	Yusuke	Onoda	Kyushu University	
1045043	6404991	3894	Anodopetalum biglandulosum	146.167	-42.22	415		Plant growth form	Leaf Biomechanics Database	Yusuke	Onoda	Kyushu University	
1045043	6405002	3894	Anodopetalum biglandulosum	146.167	-42.22	415		Leaf texture (sclerophylly, physical strength, toughness)	Leaf Biomechanics Database	Yusuke	Onoda	Kyushu University	
799229	4584676	3894	Anodopetalum biglandulosum	145.6	-42.45	0	1991-11-12	Plant functional type (PFT)	VegClass CBM Global Database	Andy	Gillison	Center for Biodiversity Management	
1254757	4584704	3894	Anodopetalum biglandulosum	145.6	-42.45	0	1991-11-12	Plant life form (Raunkiaer life form)	VegClass CBM Global Database	Andy	Gillison	Center for Biodiversity Management	
1045048	6405134	3894	Anodopetalum biglandulosum	146.167	-42.22	415		Leaf density (leaf tissue density, leaf dry mass per leaf volume)	Leaf Biomechanics Database	Yusuke	Onoda	Kyushu University	
1045043	6404994	3894	Anodopetalum biglandulosum	146.167	-42.22	415		Leaf phenology type	Leaf Biomechanics Database	Yusuke	Onoda	Kyushu University	
799229	4584699	3894	Anodopetalum biglandulosum	145.6	-42.45	0	1991-11-12	Leaf type	VegClass CBM Global Database	Andy	Gillison	Center for Biodiversity Management	
1045048	6405126	3894	Anodopetalum biglandulosum	146.167	-42.22	415		Plant growth form	Leaf Biomechanics Database	Yusuke	Onoda	Kyushu University	
1045048	6405137	3894	Anodopetalum biglandulosum	146.167	-42.22	415		Leaf texture (sclerophylly, physical strength, toughness)	Leaf Biomechanics Database	Yusuke	Onoda	Kyushu University	
1045043	6404998	3894	Anodopetalum biglandulosum	146.167	-42.22	415		Leaf thickness	Leaf Biomechanics Database	Yusuke	Onoda	Kyushu University	
1221552	4584698	3894	Anodopetalum biglandulosum	145.6	-42.45	0	1991-11-12	Leaf angle (inclination, orientation)	VegClass CBM Global Database	Andy	Gillison	Center for Biodiversity Management	
799229	4584703	3894	Anodopetalum biglandulosum	145.6	-42.45	0	1991-11-12	Plant woodiness	VegClass CBM Global Database	Andy	Gillison	Center for Biodiversity Management	
1045048	6405129	3894	Anodopetalum biglandulosum	146.167	-42.22	415		Leaf phenology type	Leaf Biomechanics Database	Yusuke	Onoda	Kyushu University	
1045043	6405001	3894	Anodopetalum biglandulosum	146.167	-42.22	415		Leaf texture (sclerophylly, physical strength, toughness)	Leaf Biomechanics Database	Yusuke	Onoda	Kyushu University	
2460936	50885650	3915	Anopterus glandulosus	146.7242	-43.0951	88		Leaf photosynthesis carboxylation capacity (Vcmax) per leaf dry mass (Farquhar model)	Global Respiration Database	Owen	Atkin	Australian National University	
1045049	6405165	3915	Anopterus glandulosus	146.167	-42.22	415		Leaf texture (sclerophylly, physical strength, toughness)	Leaf Biomechanics Database	Yusuke	Onoda	Kyushu University	
1045044	6405026	3915	Anopterus glandulosus	146.167	-42.22	415		Leaf density (leaf tissue density, leaf dry mass per leaf volume)	Leaf Biomechanics Database	Yusuke	Onoda	Kyushu University	
2460936	20010691	3915	Anopterus glandulosus	146.7242	-43.0951	88		Plant functional type (PFT)	Global Respiration Database	Owen	Atkin	Australian National University	
2460936	20010707	3915	Anopterus glandulosus	146.7242	-43.0951	88		Leaf respiration rate in the dark per leaf area	Global Respiration Database	Owen	Atkin	Australian National University	
2667691	23674870	3915	Anopterus glandulosus	146.040058	-42.222972			Bark thickness (inner bark)	Dataset for Rosell 2016 New Phytologist	Julieta	Rosell	Universidad Nacional Autonoma de México	
2460936	20010717	3915	Anopterus glandulosus	146.7242	-43.0951	88		Leaf phosphorus (P) content per leaf area	Global Respiration Database	Owen	Atkin	Australian National University	
1045049	6405157	3915	Anopterus glandulosus	146.167	-42.22	415		Leaf type	Leaf Biomechanics Database	Yusuke	Onoda	Kyushu University	
1045044	6405018	3915	Anopterus glandulosus	146.167	-42.22	415		Plant growth form	Leaf Biomechanics Database	Yusuke	Onoda	Kyushu University	
2668343	23680782	3915	Anopterus glandulosus	146.040058	-42.222972			Stem diameter	Dataset for Rosell et al. 2017 New Phytologist	Julieta	Rosell	Universidad Nacional Autonoma de México	
1045044	6405029	3915	Anopterus glandulosus	146.167	-42.22	415		Leaf texture (sclerophylly, physical strength, toughness)	Leaf Biomechanics Database	Yusuke	Onoda	Kyushu University	
2460936	20010696	3915	Anopterus glandulosus	146.7242	-43.0951	88		Stomata conductance per leaf area	Global Respiration Database	Owen	Atkin	Australian National University	
799234	4584855	3915	Anopterus glandulosus	145.6	-42.45	0	1991-11-12	Leaf area (in case of compound leaves: leaflet, undefined if petiole is in- or excluded)	VegClass CBM Global Database	Andy	Gillison	Center for Biodiversity Management	
2398948	19839524	3915	Anopterus glandulosus	146.669	-42.6793	704		Plant woodiness	Global leaf size dataset	Ian	Wright	Macquarie University	
2460936	20010710	3915	Anopterus glandulosus	146.7242	-43.0951	88		Leaf respiration rate in the dark per leaf area	Global Respiration Database	Owen	Atkin	Australian National University	
2460936	20010720	3915	Anopterus glandulosus	146.7242	-43.0951	88		Leaf photosynthesis carboxylation capacity (Vcmax) per leaf area (Farquhar model)	Global Respiration Database	Owen	Atkin	Australian National University	
1045049	6405161	3915	Anopterus glandulosus	146.167	-42.22	415		Leaf density (leaf tissue density, leaf dry mass per leaf volume)	Leaf Biomechanics Database	Yusuke	Onoda	Kyushu University	
1045044	6405021	3915	Anopterus glandulosus	146.167	-42.22	415		Leaf phenology type	Leaf Biomechanics Database	Yusuke	Onoda	Kyushu University	
2460936	20010687	3915	Anopterus glandulosus	146.7242	-43.0951	88		Plant functional type (PFT)	Global Respiration Database	Owen	Atkin	Australian National University	
2668343	23680785	3915	Anopterus glandulosus	146.040058	-42.222972			Bark thickness (outer bark)	Dataset for Rosell et al. 2017 New Phytologist	Julieta	Rosell	Universidad Nacional Autonoma de México	
2460936	20010701	3915	Anopterus glandulosus	146.7242	-43.0951	88		Leaf photosynthesis rate per leaf dry mass	Global Respiration Database	Owen	Atkin	Australian National University	
799234	4584861	3915	Anopterus glandulosus	145.6	-42.45	0	1991-11-12	Leaf phenology type	VegClass CBM Global Database	Andy	Gillison	Center for Biodiversity Management	
2667691	23673471	3915	Anopterus glandulosus	146.040058	-42.222972			Bark thickness (inner bark)	Dataset for Rosell 2016 New Phytologist	Julieta	Rosell	Universidad Nacional Autonoma de México	
2398948	19839527	3915	Anopterus glandulosus	146.669	-42.6793	704		Leaf area (in case of compound leaves: leaflet, undefined if petiole is in- or excluded)	Global leaf size dataset	Ian	Wright	Macquarie University	
2460936	20010713	3915	Anopterus glandulosus	146.7242	-43.0951	88		Leaf respiration rate in the dark per leaf dry mass	Global Respiration Database	Owen	Atkin	Australian National University	
1045049	6405153	3915	Anopterus glandulosus	146.167	-42.22	415		Plant growth form	Leaf Biomechanics Database	Yusuke	Onoda	Kyushu University	
2460936	20010723	3915	Anopterus glandulosus	146.7242	-43.0951	88		Leaf respiration rate in the dark as fraction of photosynthetic carboxylation capacity (Vcmax)	Global Respiration Database	Owen	Atkin	Australian National University	
1045049	6405164	3915	Anopterus glandulosus	146.167	-42.22	415		Leaf texture (sclerophylly, physical strength, toughness)	Leaf Biomechanics Database	Yusuke	Onoda	Kyushu University	
1045044	6405025	3915	Anopterus glandulosus	146.167	-42.22	415		Leaf thickness	Leaf Biomechanics Database	Yusuke	Onoda	Kyushu University	
2460936	20010690	3915	Anopterus glandulosus	146.7242	-43.0951	88		Plant functional type (PFT)	Global Respiration Database	Owen	Atkin	Australian National University	
1254765	4584865	3915	Anopterus glandulosus	145.6	-42.45	0	1991-11-12	Plant life form (Raunkiaer life form)	VegClass CBM Global Database	Andy	Gillison	Center for Biodiversity Management	
2460936	20010706	3915	Anopterus glandulosus	146.7242	-43.0951	88		Leaf respiration rate in the dark per leaf dry mass	Global Respiration Database	Owen	Atkin	Australian National University	
799234	4584866	3915	Anopterus glandulosus	145.6	-42.45	0	1991-11-12	Plant life form (Raunkiaer life form)	VegClass CBM Global Database	Andy	Gillison	Center for Biodiversity Management	
2667691	23674869	3915	Anopterus glandulosus	146.040058	-42.222972			Bark thickness	Dataset for Rosell 2016 New Phytologist	Julieta	Rosell	Universidad Nacional Autonoma de México	
2460936	20010716	3915	Anopterus glandulosus	146.7242	-43.0951	88		Leaf nitrogen (N) content per leaf area	Global Respiration Database	Owen	Atkin	Australian National University	
1045049	6405156	3915	Anopterus glandulosus	146.167	-42.22	415		Leaf phenology type	Leaf Biomechanics Database	Yusuke	Onoda	Kyushu University	
2668343	23680781	3915	Anopterus glandulosus	146.040058	-42.222972			Plant growth form	Dataset for Rosell et al. 2017 New Phytologist	Julieta	Rosell	Universidad Nacional Autonoma de México	
1221557	4584859	3915	Anopterus glandulosus	145.6	-42.45	0	1991-11-12	Leaf angle (inclination, orientation)	VegClass CBM Global Database	Andy	Gillison	Center for Biodiversity Management	
1045044	6405028	3915	Anopterus glandulosus	146.167	-42.22	415		Leaf texture (sclerophylly, physical strength, toughness)	Leaf Biomechanics Database	Yusuke	Onoda	Kyushu University	
2460936	20010695	3915	Anopterus glandulosus	146.7242	-43.0951	88		Leaf photosynthesis rate per leaf area	Global Respiration Database	Owen	Atkin	Australian National University	
799234	4584837	3915	Anopterus glandulosus	145.6	-42.45	0	1991-11-12	Plant functional type (PFT)	VegClass CBM Global Database	Andy	Gillison	Center for Biodiversity Management	
2398948	19839523	3915	Anopterus glandulosus	146.669	-42.6793	704		Plant growth form	Global leaf size dataset	Ian	Wright	Macquarie University	
2460936	20010709	3915	Anopterus glandulosus	146.7242	-43.0951	88		Leaf respiration rate in the dark per leaf dry mass	Global Respiration Database	Owen	Atkin	Australian National University	
2460936	20010719	3915	Anopterus glandulosus	146.7242	-43.0951	88		Leaf photosynthesis carboxylation capacity (Vcmax) per leaf area (Farquhar model)	Global Respiration Database	Owen	Atkin	Australian National University	
1045049	6405160	3915	Anopterus glandulosus	146.167	-42.22	415		Leaf thickness	Leaf Biomechanics Database	Yusuke	Onoda	Kyushu University	
1045044	6405020	3915	Anopterus glandulosus	146.167	-42.22	415		Plant growth form	Leaf Biomechanics Database	Yusuke	Onoda	Kyushu University	
2668343	23680784	3915	Anopterus glandulosus	146.040058	-42.222972			Bark thickness (inner bark)	Dataset for Rosell et al. 2017 New Phytologist	Julieta	Rosell	Universidad Nacional Autonoma de México	
2460936	20010699	3915	Anopterus glandulosus	146.7242	-43.0951	88		Leaf respiration rate in the dark per leaf area	Global Respiration Database	Owen	Atkin	Australian National University	
799234	4584860	3915	Anopterus glandulosus	145.6	-42.45	0	1991-11-12	Leaf type	VegClass CBM Global Database	Andy	Gillison	Center for Biodiversity Management	
2667691	23673470	3915	Anopterus glandulosus	146.040058	-42.222972			Bark thickness	Dataset for Rosell 2016 New Phytologist	Julieta	Rosell	Universidad Nacional Autonoma de México	
2398948	19839526	3915	Anopterus glandulosus	146.669	-42.6793	704		Leaf compoundness	Global leaf size dataset	Ian	Wright	Macquarie University	
2460936	20010712	3915	Anopterus glandulosus	146.7242	-43.0951	88		Leaf respiration rate in the dark per leaf area	Global Respiration Database	Owen	Atkin	Australian National University	
2460936	20010722	3915	Anopterus glandulosus	146.7242	-43.0951	88		Leaf respiration rate in the dark as fraction of photosynthetic carboxylation capacity (Vcmax)	Global Respiration Database	Owen	Atkin	Australian National University	
1045049	6405163	3915	Anopterus glandulosus	146.167	-42.22	415		Leaf texture (sclerophylly, physical strength, toughness)	Leaf Biomechanics Database	Yusuke	Onoda	Kyushu University	
1045044	6405024	3915	Anopterus glandulosus	146.167	-42.22	415		Leaf area per leaf dry mass (specific leaf area, SLA or 1/LMA): petiole excluded	Leaf Biomechanics Database	Yusuke	Onoda	Kyushu University	
2460936	20010689	3915	Anopterus glandulosus	146.7242	-43.0951	88		Plant functional type (PFT)	Global Respiration Database	Owen	Atkin	Australian National University	
1254764	4584862	3915	Anopterus glandulosus	145.6	-42.45	0	1991-11-12	Plant life form (Raunkiaer life form)	VegClass CBM Global Database	Andy	Gillison	Center for Biodiversity Management	
2460936	20010705	3915	Anopterus glandulosus	146.7242	-43.0951	88		Leaf respiration rate in the dark per leaf area	Global Respiration Database	Owen	Atkin	Australian National University	
799234	4584864	3915	Anopterus glandulosus	145.6	-42.45	0	1991-11-12	Plant woodiness	VegClass CBM Global Database	Andy	Gillison	Center for Biodiversity Management	
2667691	23674868	3915	Anopterus glandulosus	146.040058	-42.222972			Stem diameter	Dataset for Rosell 2016 New Phytologist	Julieta	Rosell	Universidad Nacional Autonoma de México	
2398948	19839532	3915	Anopterus glandulosus	146.669	-42.6793	704		Leaflet number per leaf	Global leaf size dataset	Ian	Wright	Macquarie University	
2460936	20010715	3915	Anopterus glandulosus	146.7242	-43.0951	88		Leaf phosphorus (P) content per leaf dry mass	Global Respiration Database	Owen	Atkin	Australian National University	
1045049	6405155	3915	Anopterus glandulosus	146.167	-42.22	415		Plant growth form	Leaf Biomechanics Database	Yusuke	Onoda	Kyushu University	
2668343	23680780	3915	Anopterus glandulosus	146.040058	-42.222972			Stem construction type	Dataset for Rosell et al. 2017 New Phytologist	Julieta	Rosell	Universidad Nacional Autonoma de México	
2460936	50949697	3915	Anopterus glandulosus	146.7242	-43.0951	88		Stomata conductance per leaf dry mass	Global Respiration Database	Owen	Atkin	Australian National University	
1045044	6405027	3915	Anopterus glandulosus	146.167	-42.22	415		Leaf texture (sclerophylly, physical strength, toughness)	Leaf Biomechanics Database	Yusuke	Onoda	Kyushu University	
2460936	20010692	3915	Anopterus glandulosus	146.7242	-43.0951	88		Plant functional type (PFT)	Global Respiration Database	Owen	Atkin	Australian National University	
2460936	20010708	3915	Anopterus glandulosus	146.7242	-43.0951	88		Leaf respiration rate in the dark per leaf area	Global Respiration Database	Owen	Atkin	Australian National University	
2667691	23674871	3915	Anopterus glandulosus	146.040058	-42.222972			Bark thickness (outer bark)	Dataset for Rosell 2016 New Phytologist	Julieta	Rosell	Universidad Nacional Autonoma de México	
2460936	20010718	3915	Anopterus glandulosus	146.7242	-43.0951	88		Leaf area per leaf dry mass (specific leaf area, SLA or 1/LMA): petiole included	Global Respiration Database	Owen	Atkin	Australian National University	
1045049	6405159	3915	Anopterus glandulosus	146.167	-42.22	415		Leaf area per leaf dry mass (specific leaf area, SLA or 1/LMA): petiole excluded	Leaf Biomechanics Database	Yusuke	Onoda	Kyushu University	
1045044	6405019	3915	Anopterus glandulosus	146.167	-42.22	415		Plant growth form	Leaf Biomechanics Database	Yusuke	Onoda	Kyushu University	
2668343	23680783	3915	Anopterus glandulosus	146.040058	-42.222972			Bark thickness	Dataset for Rosell et al. 2017 New Phytologist	Julieta	Rosell	Universidad Nacional Autonoma de México	
1045044	6405030	3915	Anopterus glandulosus	146.167	-42.22	415		Leaf texture (sclerophylly, physical strength, toughness)	Leaf Biomechanics Database	Yusuke	Onoda	Kyushu University	
2460936	20010697	3915	Anopterus glandulosus	146.7242	-43.0951	88		Leaf photosynthesis: intercellular CO2 concentration	Global Respiration Database	Owen	Atkin	Australian National University	
799234	4584858	3915	Anopterus glandulosus	145.6	-42.45	0	1991-11-12	Leaf angle (inclination, orientation)	VegClass CBM Global Database	Andy	Gillison	Center for Biodiversity Management	
2667691	23673469	3915	Anopterus glandulosus	146.040058	-42.222972			Stem diameter	Dataset for Rosell 2016 New Phytologist	Julieta	Rosell	Universidad Nacional Autonoma de México	
2398948	19839525	3915	Anopterus glandulosus	146.669	-42.6793	704		Leaf phenology type	Global leaf size dataset	Ian	Wright	Macquarie University	
2460936	20010711	3915	Anopterus glandulosus	146.7242	-43.0951	88		Leaf respiration rate in the dark per leaf dry mass	Global Respiration Database	Owen	Atkin	Australian National University	
2460936	20010721	3915	Anopterus glandulosus	146.7242	-43.0951	88		Leaf photosynthesis carboxylation capacity (Vcmax) per leaf dry mass (Farquhar model)	Global Respiration Database	Owen	Atkin	Australian National University	
1045049	6405162	3915	Anopterus glandulosus	146.167	-42.22	415		Leaf texture (sclerophylly, physical strength, toughness)	Leaf Biomechanics Database	Yusuke	Onoda	Kyushu University	
1045044	6405022	3915	Anopterus glandulosus	146.167	-42.22	415		Leaf type	Leaf Biomechanics Database	Yusuke	Onoda	Kyushu University	
2460936	20010688	3915	Anopterus glandulosus	146.7242	-43.0951	88		Plant functional type (PFT)	Global Respiration Database	Owen	Atkin	Australian National University	
2460936	20010702	3915	Anopterus glandulosus	146.7242	-43.0951	88		Leaf respiration rate in the dark per leaf dry mass	Global Respiration Database	Owen	Atkin	Australian National University	
799234	4584863	3915	Anopterus glandulosus	145.6	-42.45	0	1991-11-12	Plant morphological adaptations: root metamorphoses	VegClass CBM Global Database	Andy	Gillison	Center for Biodiversity Management	
2667691	23673472	3915	Anopterus glandulosus	146.040058	-42.222972			Bark thickness (outer bark)	Dataset for Rosell 2016 New Phytologist	Julieta	Rosell	Universidad Nacional Autonoma de México	
2398948	19839528	3915	Anopterus glandulosus	146.669	-42.6793	704		Leaf area (in case of compound leaves: leaf, undefined if petiole in- or excluded)	Global leaf size dataset	Ian	Wright	Macquarie University	
2460936	20010714	3915	Anopterus glandulosus	146.7242	-43.0951	88		Leaf nitrogen (N) content per leaf dry mass	Global Respiration Database	Owen	Atkin	Australian National University	
1045049	6405154	3915	Anopterus glandulosus	146.167	-42.22	415		Plant growth form	Leaf Biomechanics Database	Yusuke	Onoda	Kyushu University	
4523753	50625212	4146	Aotus ericoides	147.2	-43			Wood (sapwood) specific conductivity (stem specific conductivity)	Plant Hydraulic Traits	Stefano	Manzoni	Stockholm University	
2668349	23680853	4146	Aotus ericoides	147	-42.4			Bark thickness	Dataset for Rosell et al. 2017 New Phytologist	Julieta	Rosell	Universidad Nacional Autonoma de México	
4523767	50625372	4146	Aotus ericoides	147	-42.4			Plant woodiness	Plant Hydraulic Traits	Stefano	Manzoni	Stockholm University	
2667693	23673486	4146	Aotus ericoides	147	-42.4			Bark thickness	Dataset for Rosell 2016 New Phytologist	Julieta	Rosell	Universidad Nacional Autonoma de México	
2667693	23674886	4146	Aotus ericoides	147	-42.4			Stem diameter	Dataset for Rosell 2016 New Phytologist	Julieta	Rosell	Universidad Nacional Autonoma de México	
4523753	50625211	4146	Aotus ericoides	147.2	-43			Leaf area-specific conductivity (leaf specific conductivity)	Plant Hydraulic Traits	Stefano	Manzoni	Stockholm University	
2668349	23680852	4146	Aotus ericoides	147	-42.4			Stem diameter	Dataset for Rosell et al. 2017 New Phytologist	Julieta	Rosell	Universidad Nacional Autonoma de México	
4523767	50625366	4146	Aotus ericoides	147	-42.4			Wood (sapwood) specific conductivity (stem specific conductivity)	Plant Hydraulic Traits	Stefano	Manzoni	Stockholm University	
2667693	23674889	4146	Aotus ericoides	147	-42.4			Bark thickness (outer bark)	Dataset for Rosell 2016 New Phytologist	Julieta	Rosell	Universidad Nacional Autonoma de México	
4523753	50625219	4146	Aotus ericoides	147.2	-43			Leaf phenology type	Plant Hydraulic Traits	Stefano	Manzoni	Stockholm University	
2668349	23680855	4146	Aotus ericoides	147	-42.4			Bark thickness (outer bark)	Dataset for Rosell et al. 2017 New Phytologist	Julieta	Rosell	Universidad Nacional Autonoma de México	
2667693	23673485	4146	Aotus ericoides	147	-42.4			Stem diameter	Dataset for Rosell 2016 New Phytologist	Julieta	Rosell	Universidad Nacional Autonoma de México	
2667693	23673488	4146	Aotus ericoides	147	-42.4			Bark thickness (outer bark)	Dataset for Rosell 2016 New Phytologist	Julieta	Rosell	Universidad Nacional Autonoma de México	
2668349	23680851	4146	Aotus ericoides	147	-42.4			Plant growth form	Dataset for Rosell et al. 2017 New Phytologist	Julieta	Rosell	Universidad Nacional Autonoma de México	
4523767	50625365	4146	Aotus ericoides	147	-42.4			Leaf area-specific conductivity (leaf specific conductivity)	Plant Hydraulic Traits	Stefano	Manzoni	Stockholm University	
2667693	23674888	4146	Aotus ericoides	147	-42.4			Bark thickness (inner bark)	Dataset for Rosell 2016 New Phytologist	Julieta	Rosell	Universidad Nacional Autonoma de México	
4523753	50625218	4146	Aotus ericoides	147.2	-43			Plant woodiness	Plant Hydraulic Traits	Stefano	Manzoni	Stockholm University	
2668349	23680854	4146	Aotus ericoides	147	-42.4			Bark thickness (inner bark)	Dataset for Rosell et al. 2017 New Phytologist	Julieta	Rosell	Universidad Nacional Autonoma de México	
4523767	50625373	4146	Aotus ericoides	147	-42.4			Leaf phenology type	Plant Hydraulic Traits	Stefano	Manzoni	Stockholm University	
2667693	23673487	4146	Aotus ericoides	147	-42.4			Bark thickness (inner bark)	Dataset for Rosell 2016 New Phytologist	Julieta	Rosell	Universidad Nacional Autonoma de México	
2668349	23680850	4146	Aotus ericoides	147	-42.4			Stem construction type	Dataset for Rosell et al. 2017 New Phytologist	Julieta	Rosell	Universidad Nacional Autonoma de México	
2667693	23674887	4146	Aotus ericoides	147	-42.4			Bark thickness	Dataset for Rosell 2016 New Phytologist	Julieta	Rosell	Universidad Nacional Autonoma de México	
2667713	23675067	5997	Atherosperma moschatum	146.45945	-42.336			Bark thickness (outer bark)	Dataset for Rosell 2016 New Phytologist	Julieta	Rosell	Universidad Nacional Autonoma de México	
2460937	20010750	5997	Atherosperma moschatum	146.7242	-43.0951	88		Leaf photosynthesis: intercellular CO2 concentration	Global Respiration Database	Owen	Atkin	Australian National University	
1045050	6405190	5997	Atherosperma moschatum	146.167	-42.22	415		Leaf texture (sclerophylly, physical strength, toughness)	Leaf Biomechanics Database	Yusuke	Onoda	Kyushu University	
1045045	6405051	5997	Atherosperma moschatum	146.167	-42.22	415		Leaf area per leaf dry mass (specific leaf area, SLA or 1/LMA): petiole excluded	Leaf Biomechanics Database	Yusuke	Onoda	Kyushu University	
2460937	20010764	5997	Atherosperma moschatum	146.7242	-43.0951	88		Leaf respiration rate in the dark per leaf dry mass	Global Respiration Database	Owen	Atkin	Australian National University	
2398949	19839539	5997	Atherosperma moschatum	146.669	-42.6793	704		Plant woodiness	Global leaf size dataset	Ian	Wright	Macquarie University	
2667713	23673645	5997	Atherosperma moschatum	146.45945	-42.336			Stem diameter	Dataset for Rosell 2016 New Phytologist	Julieta	Rosell	Universidad Nacional Autonoma de México	
2460937	20010774	5997	Atherosperma moschatum	146.7242	-43.0951	88		Leaf photosynthesis carboxylation capacity (Vcmax) per leaf dry mass (Farquhar model)	Global Respiration Database	Owen	Atkin	Australian National University	
1727131	12521865	5997	Atherosperma moschatum	147.324722222222	-42.905	60		Wood vestures presence	Xylem Functional Traits (XFT) Database	Steven	Jansen	Ulm University	
2460937	20010741	5997	Atherosperma moschatum	146.7242	-43.0951	88		Plant functional type (PFT)	Global Respiration Database	Owen	Atkin	Australian National University	
1045050	6405182	5997	Atherosperma moschatum	146.167	-42.22	415		Plant growth form	Leaf Biomechanics Database	Yusuke	Onoda	Kyushu University	
2668384	23681258	5997	Atherosperma moschatum	146.45945	-42.336			Stem construction type	Dataset for Rosell et al. 2017 New Phytologist	Julieta	Rosell	Universidad Nacional Autonoma de México	
2460937	20010755	5997	Atherosperma moschatum	146.7242	-43.0951	88		Leaf respiration rate in the dark per leaf dry mass	Global Respiration Database	Owen	Atkin	Australian National University	
1045045	6405054	5997	Atherosperma moschatum	146.167	-42.22	415		Leaf texture (sclerophylly, physical strength, toughness)	Leaf Biomechanics Database	Yusuke	Onoda	Kyushu University	
1727131	12521854	5997	Atherosperma moschatum	147.324722222222	-42.905	60		Plant growth form	Xylem Functional Traits (XFT) Database	Steven	Jansen	Ulm University	
2460937	20010767	5997	Atherosperma moschatum	146.7242	-43.0951	88		Leaf nitrogen (N) content per leaf dry mass	Global Respiration Database	Owen	Atkin	Australian National University	
2398949	19839542	5997	Atherosperma moschatum	146.669	-42.6793	704		Leaf area (in case of compound leaves: leaflet, undefined if petiole is in- or excluded)	Global leaf size dataset	Ian	Wright	Macquarie University	
2667713	23673648	5997	Atherosperma moschatum	146.45945	-42.336			Bark thickness (outer bark)	Dataset for Rosell 2016 New Phytologist	Julieta	Rosell	Universidad Nacional Autonoma de México	
2460937	50885651	5997	Atherosperma moschatum	146.7242	-43.0951	88		Leaf photosynthesis carboxylation capacity (Vcmax) per leaf dry mass (Farquhar model)	Global Respiration Database	Owen	Atkin	Australian National University	
1727131	12521868	5997	Atherosperma moschatum	147.324722222222	-42.905	60		Wood vessels surrounded by tracheids (vasicentric tracheids)	Xylem Functional Traits (XFT) Database	Steven	Jansen	Ulm University	
2460937	20010744	5997	Atherosperma moschatum	146.7242	-43.0951	88		Plant functional type (PFT)	Global Respiration Database	Owen	Atkin	Australian National University	
1045050	6405186	5997	Atherosperma moschatum	146.167	-42.22	415		Leaf area per leaf dry mass (specific leaf area, SLA or 1/LMA): petiole excluded	Leaf Biomechanics Database	Yusuke	Onoda	Kyushu University	
1045045	6405046	5997	Atherosperma moschatum	146.167	-42.22	415		Plant growth form	Leaf Biomechanics Database	Yusuke	Onoda	Kyushu University	
2668384	23681261	5997	Atherosperma moschatum	146.45945	-42.336			Bark thickness	Dataset for Rosell et al. 2017 New Phytologist	Julieta	Rosell	Universidad Nacional Autonoma de México	
2460937	20010760	5997	Atherosperma moschatum	146.7242	-43.0951	88		Leaf respiration rate in the dark per leaf area	Global Respiration Database	Owen	Atkin	Australian National University	
1045045	6405057	5997	Atherosperma moschatum	146.167	-42.22	415		Leaf texture (sclerophylly, physical strength, toughness)	Leaf Biomechanics Database	Yusuke	Onoda	Kyushu University	
1727131	12521858	5997	Atherosperma moschatum	147.324722222222	-42.905	60		Xylem hydraulic vulnerability, xylem cavitation vulnerability, embolism vulnerability, (P20, P50, P8	Xylem Functional Traits (XFT) Database	Steven	Jansen	Ulm University	
2460937	20010770	5997	Atherosperma moschatum	146.7242	-43.0951	88		Leaf phosphorus (P) content per leaf area	Global Respiration Database	Owen	Atkin	Australian National University	
2667713	23675066	5997	Atherosperma moschatum	146.45945	-42.336			Bark thickness (inner bark)	Dataset for Rosell 2016 New Phytologist	Julieta	Rosell	Universidad Nacional Autonoma de México	
2460937	20010749	5997	Atherosperma moschatum	146.7242	-43.0951	88		Stomata conductance per leaf area	Global Respiration Database	Owen	Atkin	Australian National University	
1045050	6405189	5997	Atherosperma moschatum	146.167	-42.22	415		Leaf texture (sclerophylly, physical strength, toughness)	Leaf Biomechanics Database	Yusuke	Onoda	Kyushu University	
1045045	6405049	5997	Atherosperma moschatum	146.167	-42.22	415		Leaf type	Leaf Biomechanics Database	Yusuke	Onoda	Kyushu University	
2460937	20010763	5997	Atherosperma moschatum	146.7242	-43.0951	88		Leaf respiration rate in the dark per leaf area	Global Respiration Database	Owen	Atkin	Australian National University	
2398949	19839538	5997	Atherosperma moschatum	146.669	-42.6793	704		Plant growth form	Global leaf size dataset	Ian	Wright	Macquarie University	
2460937	20010773	5997	Atherosperma moschatum	146.7242	-43.0951	88		Leaf photosynthesis carboxylation capacity (Vcmax) per leaf area (Farquhar model)	Global Respiration Database	Owen	Atkin	Australian National University	
1727131	12521861	5997	Atherosperma moschatum	147.324722222222	-42.905	60		Xylem hydraulic vulnerability, xylem cavitation vulnerability, embolism vulnerability, (P20, P50, P8	Xylem Functional Traits (XFT) Database	Steven	Jansen	Ulm University	
2460937	20010740	5997	Atherosperma moschatum	146.7242	-43.0951	88		Plant functional type (PFT)	Global Respiration Database	Owen	Atkin	Australian National University	
1045050	6405181	5997	Atherosperma moschatum	146.167	-42.22	415		Plant growth form	Leaf Biomechanics Database	Yusuke	Onoda	Kyushu University	
2460937	20010754	5997	Atherosperma moschatum	146.7242	-43.0951	88		Leaf photosynthesis rate per leaf dry mass	Global Respiration Database	Owen	Atkin	Australian National University	
1045050	6405192	5997	Atherosperma moschatum	146.167	-42.22	415		Leaf texture (sclerophylly, physical strength, toughness)	Leaf Biomechanics Database	Yusuke	Onoda	Kyushu University	
1045045	6405053	5997	Atherosperma moschatum	146.167	-42.22	415		Leaf density (leaf tissue density, leaf dry mass per leaf volume)	Leaf Biomechanics Database	Yusuke	Onoda	Kyushu University	
2460937	20010766	5997	Atherosperma moschatum	146.7242	-43.0951	88		Leaf respiration rate in the dark per leaf dry mass	Global Respiration Database	Owen	Atkin	Australian National University	
2398949	19839541	5997	Atherosperma moschatum	146.669	-42.6793	704		Leaf compoundness	Global leaf size dataset	Ian	Wright	Macquarie University	
2667713	23673647	5997	Atherosperma moschatum	146.45945	-42.336			Bark thickness (inner bark)	Dataset for Rosell 2016 New Phytologist	Julieta	Rosell	Universidad Nacional Autonoma de México	
2460937	20010776	5997	Atherosperma moschatum	146.7242	-43.0951	88		Leaf respiration rate in the dark as fraction of photosynthetic carboxylation capacity (Vcmax)	Global Respiration Database	Owen	Atkin	Australian National University	
1727131	12521867	5997	Atherosperma moschatum	147.324722222222	-42.905	60		Wood vessel perforation plates	Xylem Functional Traits (XFT) Database	Steven	Jansen	Ulm University	
2460937	20010743	5997	Atherosperma moschatum	146.7242	-43.0951	88		Plant functional type (PFT)	Global Respiration Database	Owen	Atkin	Australian National University	
1045050	6405184	5997	Atherosperma moschatum	146.167	-42.22	415		Leaf type	Leaf Biomechanics Database	Yusuke	Onoda	Kyushu University	
1045045	6405045	5997	Atherosperma moschatum	146.167	-42.22	415		Plant growth form	Leaf Biomechanics Database	Yusuke	Onoda	Kyushu University	
2668384	23681260	5997	Atherosperma moschatum	146.45945	-42.336			Stem diameter	Dataset for Rosell et al. 2017 New Phytologist	Julieta	Rosell	Universidad Nacional Autonoma de México	
2460937	20010759	5997	Atherosperma moschatum	146.7242	-43.0951	88		Leaf respiration rate in the dark per leaf dry mass	Global Respiration Database	Owen	Atkin	Australian National University	
1045045	6405056	5997	Atherosperma moschatum	146.167	-42.22	415		Leaf texture (sclerophylly, physical strength, toughness)	Leaf Biomechanics Database	Yusuke	Onoda	Kyushu University	
1727131	12521857	5997	Atherosperma moschatum	147.324722222222	-42.905	60		Plant height vegetative	Xylem Functional Traits (XFT) Database	Steven	Jansen	Ulm University	
2460937	20010769	5997	Atherosperma moschatum	146.7242	-43.0951	88		Leaf nitrogen (N) content per leaf area	Global Respiration Database	Owen	Atkin	Australian National University	
2398949	19839547	5997	Atherosperma moschatum	146.669	-42.6793	704		Leaflet number per leaf	Global leaf size dataset	Ian	Wright	Macquarie University	
1727131	12521870	5997	Atherosperma moschatum	147.324722222222	-42.905	60		Leaf phenology type	Xylem Functional Traits (XFT) Database	Steven	Jansen	Ulm University	
2667713	23675065	5997	Atherosperma moschatum	146.45945	-42.336			Bark thickness	Dataset for Rosell 2016 New Phytologist	Julieta	Rosell	Universidad Nacional Autonoma de México	
2460937	20010748	5997	Atherosperma moschatum	146.7242	-43.0951	88		Leaf photosynthesis rate per leaf area	Global Respiration Database	Owen	Atkin	Australian National University	
1045050	6405188	5997	Atherosperma moschatum	146.167	-42.22	415		Leaf density (leaf tissue density, leaf dry mass per leaf volume)	Leaf Biomechanics Database	Yusuke	Onoda	Kyushu University	
1045045	6405048	5997	Atherosperma moschatum	146.167	-42.22	415		Leaf phenology type	Leaf Biomechanics Database	Yusuke	Onoda	Kyushu University	
2668384	23681263	5997	Atherosperma moschatum	146.45945	-42.336			Bark thickness (outer bark)	Dataset for Rosell et al. 2017 New Phytologist	Julieta	Rosell	Universidad Nacional Autonoma de México	
2460937	20010762	5997	Atherosperma moschatum	146.7242	-43.0951	88		Leaf respiration rate in the dark per leaf dry mass	Global Respiration Database	Owen	Atkin	Australian National University	
2460937	20010772	5997	Atherosperma moschatum	146.7242	-43.0951	88		Leaf photosynthesis carboxylation capacity (Vcmax) per leaf area (Farquhar model)	Global Respiration Database	Owen	Atkin	Australian National University	
1727131	12521860	5997	Atherosperma moschatum	147.324722222222	-42.905	60		Xylem hydraulic vulnerability, xylem cavitation vulnerability, embolism vulnerability, (P20, P50, P8	Xylem Functional Traits (XFT) Database	Steven	Jansen	Ulm University	
1045050	6405180	5997	Atherosperma moschatum	146.167	-42.22	415		Plant growth form	Leaf Biomechanics Database	Yusuke	Onoda	Kyushu University	
2460937	20010752	5997	Atherosperma moschatum	146.7242	-43.0951	88		Leaf respiration rate in the dark per leaf area	Global Respiration Database	Owen	Atkin	Australian National University	
1045050	6405191	5997	Atherosperma moschatum	146.167	-42.22	415		Leaf texture (sclerophylly, physical strength, toughness)	Leaf Biomechanics Database	Yusuke	Onoda	Kyushu University	
1045045	6405052	5997	Atherosperma moschatum	146.167	-42.22	415		Leaf thickness	Leaf Biomechanics Database	Yusuke	Onoda	Kyushu University	
2460937	20010765	5997	Atherosperma moschatum	146.7242	-43.0951	88		Leaf respiration rate in the dark per leaf area	Global Respiration Database	Owen	Atkin	Australian National University	
2398949	19839540	5997	Atherosperma moschatum	146.669	-42.6793	704		Leaf phenology type	Global leaf size dataset	Ian	Wright	Macquarie University	
2667713	23673646	5997	Atherosperma moschatum	146.45945	-42.336			Bark thickness	Dataset for Rosell 2016 New Phytologist	Julieta	Rosell	Universidad Nacional Autonoma de México	
2460937	20010775	5997	Atherosperma moschatum	146.7242	-43.0951	88		Leaf respiration rate in the dark as fraction of photosynthetic carboxylation capacity (Vcmax)	Global Respiration Database	Owen	Atkin	Australian National University	
1727131	12521866	5997	Atherosperma moschatum	147.324722222222	-42.905	60		Wood growth ring distinction	Xylem Functional Traits (XFT) Database	Steven	Jansen	Ulm University	
2460937	20010742	5997	Atherosperma moschatum	146.7242	-43.0951	88		Plant functional type (PFT)	Global Respiration Database	Owen	Atkin	Australian National University	
1045050	6405183	5997	Atherosperma moschatum	146.167	-42.22	415		Leaf phenology type	Leaf Biomechanics Database	Yusuke	Onoda	Kyushu University	
2668384	23681259	5997	Atherosperma moschatum	146.45945	-42.336			Plant growth form	Dataset for Rosell et al. 2017 New Phytologist	Julieta	Rosell	Universidad Nacional Autonoma de México	
2460937	20010758	5997	Atherosperma moschatum	146.7242	-43.0951	88		Leaf respiration rate in the dark per leaf area	Global Respiration Database	Owen	Atkin	Australian National University	
1045045	6405055	5997	Atherosperma moschatum	146.167	-42.22	415		Leaf texture (sclerophylly, physical strength, toughness)	Leaf Biomechanics Database	Yusuke	Onoda	Kyushu University	
1727131	12521856	5997	Atherosperma moschatum	147.324722222222	-42.905	60		Plant life form (Raunkiaer life form)	Xylem Functional Traits (XFT) Database	Steven	Jansen	Ulm University	
2460937	20010768	5997	Atherosperma moschatum	146.7242	-43.0951	88		Leaf phosphorus (P) content per leaf dry mass	Global Respiration Database	Owen	Atkin	Australian National University	
2398949	19839543	5997	Atherosperma moschatum	146.669	-42.6793	704		Leaf area (in case of compound leaves: leaf, undefined if petiole in- or excluded)	Global leaf size dataset	Ian	Wright	Macquarie University	
2667713	23675064	5997	Atherosperma moschatum	146.45945	-42.336			Stem diameter	Dataset for Rosell 2016 New Phytologist	Julieta	Rosell	Universidad Nacional Autonoma de México	
2460937	50949698	5997	Atherosperma moschatum	146.7242	-43.0951	88		Stomata conductance per leaf dry mass	Global Respiration Database	Owen	Atkin	Australian National University	
1727131	12521869	5997	Atherosperma moschatum	147.324722222222	-42.905	60		Stem specific density (SSD) or wood density (stem dry mass per stem fresh volume)	Xylem Functional Traits (XFT) Database	Steven	Jansen	Ulm University	
2460937	20010745	5997	Atherosperma moschatum	146.7242	-43.0951	88		Plant functional type (PFT)	Global Respiration Database	Owen	Atkin	Australian National University	
1045050	6405187	5997	Atherosperma moschatum	146.167	-42.22	415		Leaf thickness	Leaf Biomechanics Database	Yusuke	Onoda	Kyushu University	
1045045	6405047	5997	Atherosperma moschatum	146.167	-42.22	415		Plant growth form	Leaf Biomechanics Database	Yusuke	Onoda	Kyushu University	
2668384	23681262	5997	Atherosperma moschatum	146.45945	-42.336			Bark thickness (inner bark)	Dataset for Rosell et al. 2017 New Phytologist	Julieta	Rosell	Universidad Nacional Autonoma de México	
2460937	20010761	5997	Atherosperma moschatum	146.7242	-43.0951	88		Leaf respiration rate in the dark per leaf area	Global Respiration Database	Owen	Atkin	Australian National University	
1727131	12521859	5997	Atherosperma moschatum	147.324722222222	-42.905	60		Xylem hydraulic vulnerability, xylem cavitation vulnerability, embolism vulnerability, (P20, P50, P8	Xylem Functional Traits (XFT) Database	Steven	Jansen	Ulm University	
2460937	20010771	5997	Atherosperma moschatum	146.7242	-43.0951	88		Leaf area per leaf dry mass (specific leaf area, SLA or 1/LMA): petiole included	Global Respiration Database	Owen	Atkin	Australian National University	
2668385	23681271	6001	Athrotaxis cupressoides	146.589347	-42.683857			Plant growth form	Dataset for Rosell et al. 2017 New Phytologist	Julieta	Rosell	Universidad Nacional Autonoma de México	
2668385	23681274	6001	Athrotaxis cupressoides	146.589347	-42.683857			Bark thickness (inner bark)	Dataset for Rosell et al. 2017 New Phytologist	Julieta	Rosell	Universidad Nacional Autonoma de México	
2668385	23681270	6001	Athrotaxis cupressoides	146.589347	-42.683857			Stem construction type	Dataset for Rosell et al. 2017 New Phytologist	Julieta	Rosell	Universidad Nacional Autonoma de México	
2668385	23681273	6001	Athrotaxis cupressoides	146.589347	-42.683857			Bark thickness	Dataset for Rosell et al. 2017 New Phytologist	Julieta	Rosell	Universidad Nacional Autonoma de México	
2668385	23681272	6001	Athrotaxis cupressoides	146.589347	-42.683857			Stem diameter	Dataset for Rosell et al. 2017 New Phytologist	Julieta	Rosell	Universidad Nacional Autonoma de México	
2668385	23681275	6001	Athrotaxis cupressoides	146.589347	-42.683857			Bark thickness (outer bark)	Dataset for Rosell et al. 2017 New Phytologist	Julieta	Rosell	Universidad Nacional Autonoma de México	
1728130	12617517	6002	Athrotaxis selaginoides	147.324722222222	-42.905	60		Wood vessels surrounded by tracheids (vasicentric tracheids)	Xylem Functional Traits (XFT) Database	Steven	Jansen	Ulm University	
2668386	23681287	6002	Athrotaxis selaginoides	146.589347	-42.683857			Bark thickness (outer bark)	Dataset for Rosell et al. 2017 New Phytologist	Julieta	Rosell	Universidad Nacional Autonoma de México	
1728130	12617507	6002	Athrotaxis selaginoides	147.324722222222	-42.905	60		Xylem hydraulic vulnerability, xylem cavitation vulnerability, embolism vulnerability, (P20, P50, P8	Xylem Functional Traits (XFT) Database	Steven	Jansen	Ulm University	
1728130	12617510	6002	Athrotaxis selaginoides	147.324722222222	-42.905	60		Xylem hydraulic vulnerability, xylem cavitation vulnerability, embolism vulnerability, (P20, P50, P8	Xylem Functional Traits (XFT) Database	Steven	Jansen	Ulm University	
2668386	23681283	6002	Athrotaxis selaginoides	146.589347	-42.683857			Plant growth form	Dataset for Rosell et al. 2017 New Phytologist	Julieta	Rosell	Universidad Nacional Autonoma de México	
1728130	12617516	6002	Athrotaxis selaginoides	147.324722222222	-42.905	60		Wood fibre types	Xylem Functional Traits (XFT) Database	Steven	Jansen	Ulm University	
2668386	23681286	6002	Athrotaxis selaginoides	146.589347	-42.683857			Bark thickness (inner bark)	Dataset for Rosell et al. 2017 New Phytologist	Julieta	Rosell	Universidad Nacional Autonoma de México	
1728130	12617506	6002	Athrotaxis selaginoides	147.324722222222	-42.905	60		Plant life form (Raunkiaer life form)	Xylem Functional Traits (XFT) Database	Steven	Jansen	Ulm University	
1728130	12617519	6002	Athrotaxis selaginoides	147.324722222222	-42.905	60		Leaf phenology type	Xylem Functional Traits (XFT) Database	Steven	Jansen	Ulm University	
1728130	12617509	6002	Athrotaxis selaginoides	147.324722222222	-42.905	60		Xylem hydraulic vulnerability, xylem cavitation vulnerability, embolism vulnerability, (P20, P50, P8	Xylem Functional Traits (XFT) Database	Steven	Jansen	Ulm University	
2668386	23681282	6002	Athrotaxis selaginoides	146.589347	-42.683857			Stem construction type	Dataset for Rosell et al. 2017 New Phytologist	Julieta	Rosell	Universidad Nacional Autonoma de México	
1728130	12617515	6002	Athrotaxis selaginoides	147.324722222222	-42.905	60		Wood vessel perforation plates	Xylem Functional Traits (XFT) Database	Steven	Jansen	Ulm University	
2668386	23681285	6002	Athrotaxis selaginoides	146.589347	-42.683857			Bark thickness	Dataset for Rosell et al. 2017 New Phytologist	Julieta	Rosell	Universidad Nacional Autonoma de México	
1728130	12617504	6002	Athrotaxis selaginoides	147.324722222222	-42.905	60		Plant growth form	Xylem Functional Traits (XFT) Database	Steven	Jansen	Ulm University	
1728130	12617518	6002	Athrotaxis selaginoides	147.324722222222	-42.905	60		Wood vessel grouping	Xylem Functional Traits (XFT) Database	Steven	Jansen	Ulm University	
1728130	12617508	6002	Athrotaxis selaginoides	147.324722222222	-42.905	60		Xylem hydraulic vulnerability, xylem cavitation vulnerability, embolism vulnerability, (P20, P50, P8	Xylem Functional Traits (XFT) Database	Steven	Jansen	Ulm University	
1728130	12617514	6002	Athrotaxis selaginoides	147.324722222222	-42.905	60		Wood growth ring distinction	Xylem Functional Traits (XFT) Database	Steven	Jansen	Ulm University	
2668386	23681284	6002	Athrotaxis selaginoides	146.589347	-42.683857			Stem diameter	Dataset for Rosell et al. 2017 New Phytologist	Julieta	Rosell	Universidad Nacional Autonoma de México	
2391658	19733360	6605	Baeckea gunniana	147.2353	-42.8964	1271		Leaf compoundness	Global leaf size dataset	Ian	Wright	Macquarie University	
2391658	19733366	6605	Baeckea gunniana	147.2353	-42.8964	1271		Leaflet number per leaf	Global leaf size dataset	Ian	Wright	Macquarie University	
2391658	19733359	6605	Baeckea gunniana	147.2353	-42.8964	1271		Leaf phenology type	Global leaf size dataset	Ian	Wright	Macquarie University	
2391658	19733362	6605	Baeckea gunniana	147.2353	-42.8964	1271		Leaf area (in case of compound leaves: leaf, undefined if petiole in- or excluded)	Global leaf size dataset	Ian	Wright	Macquarie University	
2391658	19733358	6605	Baeckea gunniana	147.2353	-42.8964	1271		Plant woodiness	Global leaf size dataset	Ian	Wright	Macquarie University	
2391658	19733361	6605	Baeckea gunniana	147.2353	-42.8964	1271		Leaf area (in case of compound leaves: leaflet, undefined if petiole is in- or excluded)	Global leaf size dataset	Ian	Wright	Macquarie University	
2391658	19733357	6605	Baeckea gunniana	147.2353	-42.8964	1271		Plant growth form	Global leaf size dataset	Ian	Wright	Macquarie University	
1254739	4584354	206479	Balantium antarcticum	145.3	-42.183333	2	1991-11-12	Plant life form (Raunkiaer life form)	VegClass CBM Global Database	Andy	Gillison	Center for Biodiversity Management	
799219	4584346	206479	Balantium antarcticum	145.3	-42.183333	2	1991-11-12	Leaf angle (inclination, orientation)	VegClass CBM Global Database	Andy	Gillison	Center for Biodiversity Management	
799219	4584351	206479	Balantium antarcticum	145.3	-42.183333	2	1991-11-12	Leaf distribution along the shoot axis (arrangement type)	VegClass CBM Global Database	Andy	Gillison	Center for Biodiversity Management	
799219	4584355	206479	Balantium antarcticum	145.3	-42.183333	2	1991-11-12	Plant life form (Raunkiaer life form)	VegClass CBM Global Database	Andy	Gillison	Center for Biodiversity Management	
799219	4584343	206479	Balantium antarcticum	145.3	-42.183333	2	1991-11-12	Leaf area (in case of compound leaves: leaflet, undefined if petiole is in- or excluded)	VegClass CBM Global Database	Andy	Gillison	Center for Biodiversity Management	
799219	4584349	206479	Balantium antarcticum	145.3	-42.183333	2	1991-11-12	Leaf phenology type	VegClass CBM Global Database	Andy	Gillison	Center for Biodiversity Management	
799219	4584353	206479	Balantium antarcticum	145.3	-42.183333	2	1991-11-12	Plant woodiness	VegClass CBM Global Database	Andy	Gillison	Center for Biodiversity Management	
799219	4584321	206479	Balantium antarcticum	145.3	-42.183333	2	1991-11-12	Plant functional type (PFT)	VegClass CBM Global Database	Andy	Gillison	Center for Biodiversity Management	
1254740	4584350	206479	Balantium antarcticum	145.3	-42.183333	2	1991-11-12	Plant life form (Raunkiaer life form)	VegClass CBM Global Database	Andy	Gillison	Center for Biodiversity Management	
799219	4584348	206479	Balantium antarcticum	145.3	-42.183333	2	1991-11-12	Leaf type	VegClass CBM Global Database	Andy	Gillison	Center for Biodiversity Management	
1221542	4584347	206479	Balantium antarcticum	145.3	-42.183333	2	1991-11-12	Leaf angle (inclination, orientation)	VegClass CBM Global Database	Andy	Gillison	Center for Biodiversity Management	
799219	4584352	206479	Balantium antarcticum	145.3	-42.183333	2	1991-11-12	Plant morphological adaptations: root metamorphoses	VegClass CBM Global Database	Andy	Gillison	Center for Biodiversity Management	
799225	4584571	206546	Banksia	145.3	-42.183333	2	1991-11-12	Leaf angle (inclination, orientation)	VegClass CBM Global Database	Andy	Gillison	Center for Biodiversity Management	
1221548	4584572	206546	Banksia	145.3	-42.183333	2	1991-11-12	Leaf angle (inclination, orientation)	VegClass CBM Global Database	Andy	Gillison	Center for Biodiversity Management	
799225	4584576	206546	Banksia	145.3	-42.183333	2	1991-11-12	Plant woodiness	VegClass CBM Global Database	Andy	Gillison	Center for Biodiversity Management	
1254752	4584577	206546	Banksia	145.3	-42.183333	2	1991-11-12	Plant life form (Raunkiaer life form)	VegClass CBM Global Database	Andy	Gillison	Center for Biodiversity Management	
799225	4584568	206546	Banksia	145.3	-42.183333	2	1991-11-12	Leaf area (in case of compound leaves: leaflet, undefined if petiole is in- or excluded)	VegClass CBM Global Database	Andy	Gillison	Center for Biodiversity Management	
799225	4584574	206546	Banksia	145.3	-42.183333	2	1991-11-12	Leaf phenology type	VegClass CBM Global Database	Andy	Gillison	Center for Biodiversity Management	
1254751	4584575	206546	Banksia	145.3	-42.183333	2	1991-11-12	Plant life form (Raunkiaer life form)	VegClass CBM Global Database	Andy	Gillison	Center for Biodiversity Management	
799225	4584546	206546	Banksia	145.3	-42.183333	2	1991-11-12	Plant functional type (PFT)	VegClass CBM Global Database	Andy	Gillison	Center for Biodiversity Management	
799225	4584573	206546	Banksia	145.3	-42.183333	2	1991-11-12	Leaf type	VegClass CBM Global Database	Andy	Gillison	Center for Biodiversity Management	
799225	4584578	206546	Banksia	145.3	-42.183333	2	1991-11-12	Plant life form (Raunkiaer life form)	VegClass CBM Global Database	Andy	Gillison	Center for Biodiversity Management	
4523754	50625222	6858	Banksia marginata	147.2	-43			Leaf area-specific conductivity (leaf specific conductivity)	Plant Hydraulic Traits	Stefano	Manzoni	Stockholm University	
2667722	23673719	6858	Banksia marginata	147	-42.4			Bark thickness (inner bark)	Dataset for Rosell 2016 New Phytologist	Julieta	Rosell	Universidad Nacional Autonoma de México	
4523768	50625377	6858	Banksia marginata	147	-42.4			Wood (sapwood) specific conductivity (stem specific conductivity)	Plant Hydraulic Traits	Stefano	Manzoni	Stockholm University	
2668401	23681458	6858	Banksia marginata	147	-42.4			Stem diameter	Dataset for Rosell et al. 2017 New Phytologist	Julieta	Rosell	Universidad Nacional Autonoma de México	
2668401	23681461	6858	Banksia marginata	147	-42.4			Bark thickness (outer bark)	Dataset for Rosell et al. 2017 New Phytologist	Julieta	Rosell	Universidad Nacional Autonoma de México	
4523754	50625230	6858	Banksia marginata	147.2	-43			Leaf phenology type	Plant Hydraulic Traits	Stefano	Manzoni	Stockholm University	
2667722	23675142	6858	Banksia marginata	147	-42.4			Bark thickness	Dataset for Rosell 2016 New Phytologist	Julieta	Rosell	Universidad Nacional Autonoma de México	
2667722	23673718	6858	Banksia marginata	147	-42.4			Bark thickness	Dataset for Rosell 2016 New Phytologist	Julieta	Rosell	Universidad Nacional Autonoma de México	
4523768	50625376	6858	Banksia marginata	147	-42.4			Leaf area-specific conductivity (leaf specific conductivity)	Plant Hydraulic Traits	Stefano	Manzoni	Stockholm University	
2668401	23681457	6858	Banksia marginata	147	-42.4			Plant growth form	Dataset for Rosell et al. 2017 New Phytologist	Julieta	Rosell	Universidad Nacional Autonoma de México	
2668401	23681460	6858	Banksia marginata	147	-42.4			Bark thickness (inner bark)	Dataset for Rosell et al. 2017 New Phytologist	Julieta	Rosell	Universidad Nacional Autonoma de México	
4523754	50625229	6858	Banksia marginata	147.2	-43			Plant woodiness	Plant Hydraulic Traits	Stefano	Manzoni	Stockholm University	
2667722	23675141	6858	Banksia marginata	147	-42.4			Stem diameter	Dataset for Rosell 2016 New Phytologist	Julieta	Rosell	Universidad Nacional Autonoma de México	
4523768	50625384	6858	Banksia marginata	147	-42.4			Leaf phenology type	Plant Hydraulic Traits	Stefano	Manzoni	Stockholm University	
2667722	23675144	6858	Banksia marginata	147	-42.4			Bark thickness (outer bark)	Dataset for Rosell 2016 New Phytologist	Julieta	Rosell	Universidad Nacional Autonoma de México	
2667722	23673717	6858	Banksia marginata	147	-42.4			Stem diameter	Dataset for Rosell 2016 New Phytologist	Julieta	Rosell	Universidad Nacional Autonoma de México	
2668401	23681456	6858	Banksia marginata	147	-42.4			Stem construction type	Dataset for Rosell et al. 2017 New Phytologist	Julieta	Rosell	Universidad Nacional Autonoma de México	
4523754	50625223	6858	Banksia marginata	147.2	-43			Wood (sapwood) specific conductivity (stem specific conductivity)	Plant Hydraulic Traits	Stefano	Manzoni	Stockholm University	
2667722	23673720	6858	Banksia marginata	147	-42.4			Bark thickness (outer bark)	Dataset for Rosell 2016 New Phytologist	Julieta	Rosell	Universidad Nacional Autonoma de México	
4523768	50625383	6858	Banksia marginata	147	-42.4			Plant woodiness	Plant Hydraulic Traits	Stefano	Manzoni	Stockholm University	
2668401	23681459	6858	Banksia marginata	147	-42.4			Bark thickness	Dataset for Rosell et al. 2017 New Phytologist	Julieta	Rosell	Universidad Nacional Autonoma de México	
2667722	23675143	6858	Banksia marginata	147	-42.4			Bark thickness (inner bark)	Dataset for Rosell 2016 New Phytologist	Julieta	Rosell	Universidad Nacional Autonoma de México	
2668404	23681495	6984	Bauera rubioides	146.589347	-42.683857			Bark thickness	Dataset for Rosell et al. 2017 New Phytologist	Julieta	Rosell	Universidad Nacional Autonoma de México	
2667725	23673742	6984	Bauera rubioides	146.589347	-42.683857			Bark thickness	Dataset for Rosell 2016 New Phytologist	Julieta	Rosell	Universidad Nacional Autonoma de México	
2667725	23675168	6984	Bauera rubioides	146.589347	-42.683857			Stem diameter	Dataset for Rosell 2016 New Phytologist	Julieta	Rosell	Universidad Nacional Autonoma de México	
2391660	19733389	6984	Bauera rubioides	147.2353	-42.8964	1271		Leaf phenology type	Global leaf size dataset	Ian	Wright	Macquarie University	
2391660	19733392	6984	Bauera rubioides	147.2353	-42.8964	1271		Leaf area (in case of compound leaves: leaf, undefined if petiole in- or excluded)	Global leaf size dataset	Ian	Wright	Macquarie University	
2668404	23681494	6984	Bauera rubioides	146.589347	-42.683857			Stem diameter	Dataset for Rosell et al. 2017 New Phytologist	Julieta	Rosell	Universidad Nacional Autonoma de México	
2667725	23673741	6984	Bauera rubioides	146.589347	-42.683857			Stem diameter	Dataset for Rosell 2016 New Phytologist	Julieta	Rosell	Universidad Nacional Autonoma de México	
2667725	23673744	6984	Bauera rubioides	146.589347	-42.683857			Bark thickness (outer bark)	Dataset for Rosell 2016 New Phytologist	Julieta	Rosell	Universidad Nacional Autonoma de México	
2391660	19733388	6984	Bauera rubioides	147.2353	-42.8964	1271		Plant woodiness	Global leaf size dataset	Ian	Wright	Macquarie University	
2391660	19733391	6984	Bauera rubioides	147.2353	-42.8964	1271		Leaf area (in case of compound leaves: leaflet, undefined if petiole is in- or excluded)	Global leaf size dataset	Ian	Wright	Macquarie University	
2668404	23681493	6984	Bauera rubioides	146.589347	-42.683857			Plant growth form	Dataset for Rosell et al. 2017 New Phytologist	Julieta	Rosell	Universidad Nacional Autonoma de México	
2667725	23673743	6984	Bauera rubioides	146.589347	-42.683857			Bark thickness (inner bark)	Dataset for Rosell 2016 New Phytologist	Julieta	Rosell	Universidad Nacional Autonoma de México	
2391660	19733387	6984	Bauera rubioides	147.2353	-42.8964	1271		Plant growth form	Global leaf size dataset	Ian	Wright	Macquarie University	
2667725	23675169	6984	Bauera rubioides	146.589347	-42.683857			Bark thickness	Dataset for Rosell 2016 New Phytologist	Julieta	Rosell	Universidad Nacional Autonoma de México	
2391660	19733390	6984	Bauera rubioides	147.2353	-42.8964	1271		Leaf compoundness	Global leaf size dataset	Ian	Wright	Macquarie University	
2668404	23681492	6984	Bauera rubioides	146.589347	-42.683857			Stem construction type	Dataset for Rosell et al. 2017 New Phytologist	Julieta	Rosell	Universidad Nacional Autonoma de México	
2391660	19733396	6984	Bauera rubioides	147.2353	-42.8964	1271		Leaflet number per leaf	Global leaf size dataset	Ian	Wright	Macquarie University	
2391659	19733381	7167	Bellendena montana	147.2353	-42.8964	1271		Leaflet number per leaf	Global leaf size dataset	Ian	Wright	Macquarie University	
2667729	23675203	7167	Bellendena montana	146.589347	-42.683857			Bark thickness	Dataset for Rosell 2016 New Phytologist	Julieta	Rosell	Universidad Nacional Autonoma de México	
2668417	23681646	7167	Bellendena montana	146.589347	-42.683857			Stem diameter	Dataset for Rosell et al. 2017 New Phytologist	Julieta	Rosell	Universidad Nacional Autonoma de México	
2668417	23681649	7167	Bellendena montana	146.589347	-42.683857			Bark thickness (outer bark)	Dataset for Rosell et al. 2017 New Phytologist	Julieta	Rosell	Universidad Nacional Autonoma de México	
2391659	19733374	7167	Bellendena montana	147.2353	-42.8964	1271		Leaf phenology type	Global leaf size dataset	Ian	Wright	Macquarie University	
2667729	23673774	7167	Bellendena montana	146.589347	-42.683857			Bark thickness	Dataset for Rosell 2016 New Phytologist	Julieta	Rosell	Universidad Nacional Autonoma de México	
2391659	19733377	7167	Bellendena montana	147.2353	-42.8964	1271		Leaf area (in case of compound leaves: leaf, undefined if petiole in- or excluded)	Global leaf size dataset	Ian	Wright	Macquarie University	
2667729	23675202	7167	Bellendena montana	146.589347	-42.683857			Stem diameter	Dataset for Rosell 2016 New Phytologist	Julieta	Rosell	Universidad Nacional Autonoma de México	
2668417	23681645	7167	Bellendena montana	146.589347	-42.683857			Plant growth form	Dataset for Rosell et al. 2017 New Phytologist	Julieta	Rosell	Universidad Nacional Autonoma de México	
2667729	23675205	7167	Bellendena montana	146.589347	-42.683857			Bark thickness (outer bark)	Dataset for Rosell 2016 New Phytologist	Julieta	Rosell	Universidad Nacional Autonoma de México	
2668417	23681648	7167	Bellendena montana	146.589347	-42.683857			Bark thickness (inner bark)	Dataset for Rosell et al. 2017 New Phytologist	Julieta	Rosell	Universidad Nacional Autonoma de México	
2391659	19733373	7167	Bellendena montana	147.2353	-42.8964	1271		Plant woodiness	Global leaf size dataset	Ian	Wright	Macquarie University	
2667729	23673773	7167	Bellendena montana	146.589347	-42.683857			Stem diameter	Dataset for Rosell 2016 New Phytologist	Julieta	Rosell	Universidad Nacional Autonoma de México	
2391659	19733376	7167	Bellendena montana	147.2353	-42.8964	1271		Leaf area (in case of compound leaves: leaflet, undefined if petiole is in- or excluded)	Global leaf size dataset	Ian	Wright	Macquarie University	
2667729	23673776	7167	Bellendena montana	146.589347	-42.683857			Bark thickness (outer bark)	Dataset for Rosell 2016 New Phytologist	Julieta	Rosell	Universidad Nacional Autonoma de México	
2668417	23681644	7167	Bellendena montana	146.589347	-42.683857			Stem construction type	Dataset for Rosell et al. 2017 New Phytologist	Julieta	Rosell	Universidad Nacional Autonoma de México	
2667729	23675204	7167	Bellendena montana	146.589347	-42.683857			Bark thickness (inner bark)	Dataset for Rosell 2016 New Phytologist	Julieta	Rosell	Universidad Nacional Autonoma de México	
2668417	23681647	7167	Bellendena montana	146.589347	-42.683857			Bark thickness	Dataset for Rosell et al. 2017 New Phytologist	Julieta	Rosell	Universidad Nacional Autonoma de México	
2391659	19733372	7167	Bellendena montana	147.2353	-42.8964	1271		Plant growth form	Global leaf size dataset	Ian	Wright	Macquarie University	
2391659	19733375	7167	Bellendena montana	147.2353	-42.8964	1271		Leaf compoundness	Global leaf size dataset	Ian	Wright	Macquarie University	
2667729	23673775	7167	Bellendena montana	146.589347	-42.683857			Bark thickness (inner bark)	Dataset for Rosell 2016 New Phytologist	Julieta	Rosell	Universidad Nacional Autonoma de México	
799220	4584391	7526	Blechnum wattsii	145.3	-42.183333	2	1991-11-12	Plant woodiness	VegClass CBM Global Database	Andy	Gillison	Center for Biodiversity Management	
1221555	4584793	7526	Blechnum wattsii	145.6	-42.45	0	1991-11-12	Leaf angle (inclination, orientation)	VegClass CBM Global Database	Andy	Gillison	Center for Biodiversity Management	
799220	4584359	7526	Blechnum wattsii	145.3	-42.183333	2	1991-11-12	Plant functional type (PFT)	VegClass CBM Global Database	Andy	Gillison	Center for Biodiversity Management	
799232	4584798	7526	Blechnum wattsii	145.6	-42.45	0	1991-11-12	Plant woodiness	VegClass CBM Global Database	Andy	Gillison	Center for Biodiversity Management	
1254742	4584388	7526	Blechnum wattsii	145.3	-42.183333	2	1991-11-12	Plant life form (Raunkiaer life form)	VegClass CBM Global Database	Andy	Gillison	Center for Biodiversity Management	
799232	4584771	7526	Blechnum wattsii	145.6	-42.45	0	1991-11-12	Plant functional type (PFT)	VegClass CBM Global Database	Andy	Gillison	Center for Biodiversity Management	
799220	4584386	7526	Blechnum wattsii	145.3	-42.183333	2	1991-11-12	Leaf type	VegClass CBM Global Database	Andy	Gillison	Center for Biodiversity Management	
799232	4584794	7526	Blechnum wattsii	145.6	-42.45	0	1991-11-12	Leaf type	VegClass CBM Global Database	Andy	Gillison	Center for Biodiversity Management	
799220	4584390	7526	Blechnum wattsii	145.3	-42.183333	2	1991-11-12	Plant morphological adaptations: root metamorphoses	VegClass CBM Global Database	Andy	Gillison	Center for Biodiversity Management	
799232	4584797	7526	Blechnum wattsii	145.6	-42.45	0	1991-11-12	Plant morphological adaptations: root metamorphoses	VegClass CBM Global Database	Andy	Gillison	Center for Biodiversity Management	
1254741	4584393	7526	Blechnum wattsii	145.3	-42.183333	2	1991-11-12	Plant life form (Raunkiaer life form)	VegClass CBM Global Database	Andy	Gillison	Center for Biodiversity Management	
799220	4584384	7526	Blechnum wattsii	145.3	-42.183333	2	1991-11-12	Leaf angle (inclination, orientation)	VegClass CBM Global Database	Andy	Gillison	Center for Biodiversity Management	
1254761	4584799	7526	Blechnum wattsii	145.6	-42.45	0	1991-11-12	Plant life form (Raunkiaer life form)	VegClass CBM Global Database	Andy	Gillison	Center for Biodiversity Management	
1221543	4584385	7526	Blechnum wattsii	145.3	-42.183333	2	1991-11-12	Leaf angle (inclination, orientation)	VegClass CBM Global Database	Andy	Gillison	Center for Biodiversity Management	
799232	4584792	7526	Blechnum wattsii	145.6	-42.45	0	1991-11-12	Leaf angle (inclination, orientation)	VegClass CBM Global Database	Andy	Gillison	Center for Biodiversity Management	
799220	4584389	7526	Blechnum wattsii	145.3	-42.183333	2	1991-11-12	Leaf distribution along the shoot axis (arrangement type)	VegClass CBM Global Database	Andy	Gillison	Center for Biodiversity Management	
799232	4584796	7526	Blechnum wattsii	145.6	-42.45	0	1991-11-12	Plant life form (Raunkiaer life form)	VegClass CBM Global Database	Andy	Gillison	Center for Biodiversity Management	
799220	4584392	7526	Blechnum wattsii	145.3	-42.183333	2	1991-11-12	Plant life form (Raunkiaer life form)	VegClass CBM Global Database	Andy	Gillison	Center for Biodiversity Management	
799220	4584381	7526	Blechnum wattsii	145.3	-42.183333	2	1991-11-12	Leaf area (in case of compound leaves: leaflet, undefined if petiole is in- or excluded)	VegClass CBM Global Database	Andy	Gillison	Center for Biodiversity Management	
1254760	4584800	7526	Blechnum wattsii	145.6	-42.45	0	1991-11-12	Plant life form (Raunkiaer life form)	VegClass CBM Global Database	Andy	Gillison	Center for Biodiversity Management	
799232	4584789	7526	Blechnum wattsii	145.6	-42.45	0	1991-11-12	Leaf area (in case of compound leaves: leaflet, undefined if petiole is in- or excluded)	VegClass CBM Global Database	Andy	Gillison	Center for Biodiversity Management	
799220	4584387	7526	Blechnum wattsii	145.3	-42.183333	2	1991-11-12	Leaf phenology type	VegClass CBM Global Database	Andy	Gillison	Center for Biodiversity Management	
799232	4584795	7526	Blechnum wattsii	145.6	-42.45	0	1991-11-12	Leaf phenology type	VegClass CBM Global Database	Andy	Gillison	Center for Biodiversity Management	
4523769	50625388	7800	Bossiaea cinerea	147	-42.4			Wood (sapwood) specific conductivity (stem specific conductivity)	Plant Hydraulic Traits	Stefano	Manzoni	Stockholm University	
2667739	23675290	7800	Bossiaea cinerea	147	-42.4			Stem diameter	Dataset for Rosell 2016 New Phytologist	Julieta	Rosell	Universidad Nacional Autonoma de México	
2668431	23681813	7800	Bossiaea cinerea	147	-42.4			Bark thickness	Dataset for Rosell et al. 2017 New Phytologist	Julieta	Rosell	Universidad Nacional Autonoma de México	
2667739	23675293	7800	Bossiaea cinerea	147	-42.4			Bark thickness (outer bark)	Dataset for Rosell 2016 New Phytologist	Julieta	Rosell	Universidad Nacional Autonoma de México	
2667739	23673853	7800	Bossiaea cinerea	147	-42.4			Stem diameter	Dataset for Rosell 2016 New Phytologist	Julieta	Rosell	Universidad Nacional Autonoma de México	
4523769	50625387	7800	Bossiaea cinerea	147	-42.4			Leaf area-specific conductivity (leaf specific conductivity)	Plant Hydraulic Traits	Stefano	Manzoni	Stockholm University	
2667739	23673856	7800	Bossiaea cinerea	147	-42.4			Bark thickness (outer bark)	Dataset for Rosell 2016 New Phytologist	Julieta	Rosell	Universidad Nacional Autonoma de México	
2668431	23681812	7800	Bossiaea cinerea	147	-42.4			Stem diameter	Dataset for Rosell et al. 2017 New Phytologist	Julieta	Rosell	Universidad Nacional Autonoma de México	
4523769	50625395	7800	Bossiaea cinerea	147	-42.4			Leaf phenology type	Plant Hydraulic Traits	Stefano	Manzoni	Stockholm University	
2667739	23675292	7800	Bossiaea cinerea	147	-42.4			Bark thickness (inner bark)	Dataset for Rosell 2016 New Phytologist	Julieta	Rosell	Universidad Nacional Autonoma de México	
2668431	23681815	7800	Bossiaea cinerea	147	-42.4			Bark thickness (outer bark)	Dataset for Rosell et al. 2017 New Phytologist	Julieta	Rosell	Universidad Nacional Autonoma de México	
2667739	23673855	7800	Bossiaea cinerea	147	-42.4			Bark thickness (inner bark)	Dataset for Rosell 2016 New Phytologist	Julieta	Rosell	Universidad Nacional Autonoma de México	
2668431	23681811	7800	Bossiaea cinerea	147	-42.4			Plant growth form	Dataset for Rosell et al. 2017 New Phytologist	Julieta	Rosell	Universidad Nacional Autonoma de México	
4523769	50625394	7800	Bossiaea cinerea	147	-42.4			Plant woodiness	Plant Hydraulic Traits	Stefano	Manzoni	Stockholm University	
2667739	23675291	7800	Bossiaea cinerea	147	-42.4			Bark thickness	Dataset for Rosell 2016 New Phytologist	Julieta	Rosell	Universidad Nacional Autonoma de México	
2668431	23681814	7800	Bossiaea cinerea	147	-42.4			Bark thickness (inner bark)	Dataset for Rosell et al. 2017 New Phytologist	Julieta	Rosell	Universidad Nacional Autonoma de México	
2667739	23673854	7800	Bossiaea cinerea	147	-42.4			Bark thickness	Dataset for Rosell 2016 New Phytologist	Julieta	Rosell	Universidad Nacional Autonoma de México	
2668431	23681810	7800	Bossiaea cinerea	147	-42.4			Stem construction type	Dataset for Rosell et al. 2017 New Phytologist	Julieta	Rosell	Universidad Nacional Autonoma de México	
1728136	12618091	9615	Callitris rhomboidea	147.324722222222	-42.905	60		Plant life form (Raunkiaer life form)	Xylem Functional Traits (XFT) Database	Steven	Jansen	Ulm University	
1728136	12618104	9615	Callitris rhomboidea	147.324722222222	-42.905	60		Wood vessels surrounded by tracheids (vasicentric tracheids)	Xylem Functional Traits (XFT) Database	Steven	Jansen	Ulm University	
1393362	10185239	9615	Callitris rhomboidea	147.324	-42.9053	42		Xylem hydraulic vulnerability, xylem cavitation vulnerability, embolism vulnerability, (P20, P50, P8	Xylem Functional Traits (XFT) Database: Nature Subset	Steven	Jansen	Ulm University	
1728137	12618199	9615	Callitris rhomboidea	147.324722222222	-42.905	60		Wood vessel pits characteristics (vestured pits)	Xylem Functional Traits (XFT) Database	Steven	Jansen	Ulm University	
1728135	12618003	9615	Callitris rhomboidea	147.324722222222	-42.905	60		Wood growth ring distinction	Xylem Functional Traits (XFT) Database	Steven	Jansen	Ulm University	
1728136	12618094	9615	Callitris rhomboidea	147.324722222222	-42.905	60		Xylem hydraulic vulnerability, xylem cavitation vulnerability, embolism vulnerability, (P20, P50, P8	Xylem Functional Traits (XFT) Database	Steven	Jansen	Ulm University	
1728136	12618107	9615	Callitris rhomboidea	147.324722222222	-42.905	60		Leaf phenology type	Xylem Functional Traits (XFT) Database	Steven	Jansen	Ulm University	
1728135	12617992	9615	Callitris rhomboidea	147.324722222222	-42.905	60		Plant growth form	Xylem Functional Traits (XFT) Database	Steven	Jansen	Ulm University	
2668471	23682286	9615	Callitris rhomboidea	147.848	-43.1382			Stem construction type	Dataset for Rosell et al. 2017 New Phytologist	Julieta	Rosell	Universidad Nacional Autonoma de México	
1393362	10185242	9615	Callitris rhomboidea	147.324	-42.9053	42		Xylem hydraulic vulnerability, xylem cavitation vulnerability, embolism vulnerability, (P20, P50, P8	Xylem Functional Traits (XFT) Database: Nature Subset	Steven	Jansen	Ulm University	
1728137	12618202	9615	Callitris rhomboidea	147.324722222222	-42.905	60		Wood growth ring distinction	Xylem Functional Traits (XFT) Database	Steven	Jansen	Ulm University	
1728135	12618006	9615	Callitris rhomboidea	147.324722222222	-42.905	60		Wood vessels surrounded by tracheids (vasicentric tracheids)	Xylem Functional Traits (XFT) Database	Steven	Jansen	Ulm University	
1728136	12618097	9615	Callitris rhomboidea	147.324722222222	-42.905	60		Xylem hydraulic vulnerability, xylem cavitation vulnerability, embolism vulnerability, (P20, P50, P8	Xylem Functional Traits (XFT) Database	Steven	Jansen	Ulm University	
1728137	12618192	9615	Callitris rhomboidea	147.324722222222	-42.905	60		Xylem hydraulic vulnerability, xylem cavitation vulnerability, embolism vulnerability, (P20, P50, P8	Xylem Functional Traits (XFT) Database	Steven	Jansen	Ulm University	
2668471	23682289	9615	Callitris rhomboidea	147.848	-43.1382			Bark thickness	Dataset for Rosell et al. 2017 New Phytologist	Julieta	Rosell	Universidad Nacional Autonoma de México	
1728135	12617996	9615	Callitris rhomboidea	147.324722222222	-42.905	60		Xylem hydraulic vulnerability, xylem cavitation vulnerability, embolism vulnerability, (P20, P50, P8	Xylem Functional Traits (XFT) Database	Steven	Jansen	Ulm University	
1728137	12618205	9615	Callitris rhomboidea	147.324722222222	-42.905	60		Wood vessels surrounded by tracheids (vasicentric tracheids)	Xylem Functional Traits (XFT) Database	Steven	Jansen	Ulm University	
1728136	12618089	9615	Callitris rhomboidea	147.324722222222	-42.905	60		Plant growth form	Xylem Functional Traits (XFT) Database	Steven	Jansen	Ulm University	
1728136	12618103	9615	Callitris rhomboidea	147.324722222222	-42.905	60		Wood fibre types	Xylem Functional Traits (XFT) Database	Steven	Jansen	Ulm University	
1728137	12618195	9615	Callitris rhomboidea	147.324722222222	-42.905	60		Xylem hydraulic vulnerability, xylem cavitation vulnerability, embolism vulnerability, (P20, P50, P8	Xylem Functional Traits (XFT) Database	Steven	Jansen	Ulm University	
1728135	12618002	9615	Callitris rhomboidea	147.324722222222	-42.905	60		Xylem hydraulic vulnerability, xylem cavitation vulnerability, embolism vulnerability, (P20, P50, P8	Xylem Functional Traits (XFT) Database	Steven	Jansen	Ulm University	
1728136	12618093	9615	Callitris rhomboidea	147.324722222222	-42.905	60		Plant height vegetative	Xylem Functional Traits (XFT) Database	Steven	Jansen	Ulm University	
1728136	12618106	9615	Callitris rhomboidea	147.324722222222	-42.905	60		Stem specific density (SSD) or wood density (stem dry mass per stem fresh volume)	Xylem Functional Traits (XFT) Database	Steven	Jansen	Ulm University	
1393362	10185241	9615	Callitris rhomboidea	147.324	-42.9053	42		Xylem hydraulic vulnerability, xylem cavitation vulnerability, embolism vulnerability, (P20, P50, P8	Xylem Functional Traits (XFT) Database: Nature Subset	Steven	Jansen	Ulm University	
1728137	12618201	9615	Callitris rhomboidea	147.324722222222	-42.905	60		Wood outer pit aperture diameter / interconduit pit size	Xylem Functional Traits (XFT) Database	Steven	Jansen	Ulm University	
1728135	12618005	9615	Callitris rhomboidea	147.324722222222	-42.905	60		Wood fibre types	Xylem Functional Traits (XFT) Database	Steven	Jansen	Ulm University	
1728136	12618096	9615	Callitris rhomboidea	147.324722222222	-42.905	60		Xylem hydraulic vulnerability, xylem cavitation vulnerability, embolism vulnerability, (P20, P50, P8	Xylem Functional Traits (XFT) Database	Steven	Jansen	Ulm University	
1728137	12618191	9615	Callitris rhomboidea	147.324722222222	-42.905	60		Plant life form (Raunkiaer life form)	Xylem Functional Traits (XFT) Database	Steven	Jansen	Ulm University	
1728135	12617995	9615	Callitris rhomboidea	147.324722222222	-42.905	60		Xylem hydraulic vulnerability, xylem cavitation vulnerability, embolism vulnerability, (P20, P50, P8	Xylem Functional Traits (XFT) Database	Steven	Jansen	Ulm University	
2668471	23682288	9615	Callitris rhomboidea	147.848	-43.1382			Stem diameter	Dataset for Rosell et al. 2017 New Phytologist	Julieta	Rosell	Universidad Nacional Autonoma de México	
1393362	10185249	9615	Callitris rhomboidea	147.324	-42.9053	42		Plant growth form	Xylem Functional Traits (XFT) Database: Nature Subset	Steven	Jansen	Ulm University	
1728137	12618204	9615	Callitris rhomboidea	147.324722222222	-42.905	60		Wood fibre types	Xylem Functional Traits (XFT) Database	Steven	Jansen	Ulm University	
1728135	12618008	9615	Callitris rhomboidea	147.324722222222	-42.905	60		Leaf phenology type	Xylem Functional Traits (XFT) Database	Steven	Jansen	Ulm University	
1728136	12618102	9615	Callitris rhomboidea	147.324722222222	-42.905	60		Wood vessel perforation plates	Xylem Functional Traits (XFT) Database	Steven	Jansen	Ulm University	
1728137	12618194	9615	Callitris rhomboidea	147.324722222222	-42.905	60		Xylem hydraulic vulnerability, xylem cavitation vulnerability, embolism vulnerability, (P20, P50, P8	Xylem Functional Traits (XFT) Database	Steven	Jansen	Ulm University	
2668471	23682291	9615	Callitris rhomboidea	147.848	-43.1382			Bark thickness (outer bark)	Dataset for Rosell et al. 2017 New Phytologist	Julieta	Rosell	Universidad Nacional Autonoma de México	
1728135	12617998	9615	Callitris rhomboidea	147.324722222222	-42.905	60		Xylem hydraulic vulnerability, xylem cavitation vulnerability, embolism vulnerability, (P20, P50, P8	Xylem Functional Traits (XFT) Database	Steven	Jansen	Ulm University	
1728137	12618207	9615	Callitris rhomboidea	147.324722222222	-42.905	60		Leaf phenology type	Xylem Functional Traits (XFT) Database	Steven	Jansen	Ulm University	
1728136	12618092	9615	Callitris rhomboidea	147.324722222222	-42.905	60		Plant height vegetative	Xylem Functional Traits (XFT) Database	Steven	Jansen	Ulm University	
1728136	12618105	9615	Callitris rhomboidea	147.324722222222	-42.905	60		Wood vessel grouping	Xylem Functional Traits (XFT) Database	Steven	Jansen	Ulm University	
1393362	10185240	9615	Callitris rhomboidea	147.324	-42.9053	42		Xylem hydraulic vulnerability, xylem cavitation vulnerability, embolism vulnerability, (P20, P50, P8	Xylem Functional Traits (XFT) Database: Nature Subset	Steven	Jansen	Ulm University	
1728137	12618200	9615	Callitris rhomboidea	147.324722222222	-42.905	60		Wood outer pit aperture diameter	Xylem Functional Traits (XFT) Database	Steven	Jansen	Ulm University	
1728135	12618004	9615	Callitris rhomboidea	147.324722222222	-42.905	60		Wood vessel perforation plates	Xylem Functional Traits (XFT) Database	Steven	Jansen	Ulm University	
1728136	12618095	9615	Callitris rhomboidea	147.324722222222	-42.905	60		Xylem hydraulic vulnerability, xylem cavitation vulnerability, embolism vulnerability, (P20, P50, P8	Xylem Functional Traits (XFT) Database	Steven	Jansen	Ulm University	
1728137	12618189	9615	Callitris rhomboidea	147.324722222222	-42.905	60		Plant growth form	Xylem Functional Traits (XFT) Database	Steven	Jansen	Ulm University	
1728135	12617994	9615	Callitris rhomboidea	147.324722222222	-42.905	60		Plant life form (Raunkiaer life form)	Xylem Functional Traits (XFT) Database	Steven	Jansen	Ulm University	
2668471	23682287	9615	Callitris rhomboidea	147.848	-43.1382			Plant growth form	Dataset for Rosell et al. 2017 New Phytologist	Julieta	Rosell	Universidad Nacional Autonoma de México	
1393362	10185243	9615	Callitris rhomboidea	147.324	-42.9053	42		Xylem hydraulic vulnerability, xylem cavitation vulnerability, embolism vulnerability, (P20, P50, P8	Xylem Functional Traits (XFT) Database: Nature Subset	Steven	Jansen	Ulm University	
1728137	12618203	9615	Callitris rhomboidea	147.324722222222	-42.905	60		Wood vessel perforation plates	Xylem Functional Traits (XFT) Database	Steven	Jansen	Ulm University	
1728135	12618007	9615	Callitris rhomboidea	147.324722222222	-42.905	60		Wood vessel grouping	Xylem Functional Traits (XFT) Database	Steven	Jansen	Ulm University	
1728136	12618101	9615	Callitris rhomboidea	147.324722222222	-42.905	60		Wood growth ring distinction	Xylem Functional Traits (XFT) Database	Steven	Jansen	Ulm University	
1728137	12618193	9615	Callitris rhomboidea	147.324722222222	-42.905	60		Xylem hydraulic vulnerability, xylem cavitation vulnerability, embolism vulnerability, (P20, P50, P8	Xylem Functional Traits (XFT) Database	Steven	Jansen	Ulm University	
2668471	23682290	9615	Callitris rhomboidea	147.848	-43.1382			Bark thickness (inner bark)	Dataset for Rosell et al. 2017 New Phytologist	Julieta	Rosell	Universidad Nacional Autonoma de México	
1728135	12617997	9615	Callitris rhomboidea	147.324722222222	-42.905	60		Xylem hydraulic vulnerability, xylem cavitation vulnerability, embolism vulnerability, (P20, P50, P8	Xylem Functional Traits (XFT) Database	Steven	Jansen	Ulm University	
1728137	12618206	9615	Callitris rhomboidea	147.324722222222	-42.905	60		Wood vessel grouping	Xylem Functional Traits (XFT) Database	Steven	Jansen	Ulm University	
2667782	23675671	11013	Cassinia aculeata	147	-42.4			Bark thickness (inner bark)	Dataset for Rosell 2016 New Phytologist	Julieta	Rosell	Universidad Nacional Autonoma de México	
2668487	23682473	11013	Cassinia aculeata	147	-42.4			Plant growth form	Dataset for Rosell et al. 2017 New Phytologist	Julieta	Rosell	Universidad Nacional Autonoma de México	
4523770	50625398	11013	Cassinia aculeata	147	-42.4			Leaf area-specific conductivity (leaf specific conductivity)	Plant Hydraulic Traits	Stefano	Manzoni	Stockholm University	
2668487	23682476	11013	Cassinia aculeata	147	-42.4			Bark thickness (inner bark)	Dataset for Rosell et al. 2017 New Phytologist	Julieta	Rosell	Universidad Nacional Autonoma de México	
4523770	50625406	11013	Cassinia aculeata	147	-42.4			Leaf phenology type	Plant Hydraulic Traits	Stefano	Manzoni	Stockholm University	
2667782	23674197	11013	Cassinia aculeata	147	-42.4			Bark thickness (inner bark)	Dataset for Rosell 2016 New Phytologist	Julieta	Rosell	Universidad Nacional Autonoma de México	
2667782	23675670	11013	Cassinia aculeata	147	-42.4			Bark thickness	Dataset for Rosell 2016 New Phytologist	Julieta	Rosell	Universidad Nacional Autonoma de México	
2668487	23682472	11013	Cassinia aculeata	147	-42.4			Stem construction type	Dataset for Rosell et al. 2017 New Phytologist	Julieta	Rosell	Universidad Nacional Autonoma de México	
2668487	23682475	11013	Cassinia aculeata	147	-42.4			Bark thickness	Dataset for Rosell et al. 2017 New Phytologist	Julieta	Rosell	Universidad Nacional Autonoma de México	
4523770	50625405	11013	Cassinia aculeata	147	-42.4			Plant woodiness	Plant Hydraulic Traits	Stefano	Manzoni	Stockholm University	
2667782	23674196	11013	Cassinia aculeata	147	-42.4			Bark thickness	Dataset for Rosell 2016 New Phytologist	Julieta	Rosell	Universidad Nacional Autonoma de México	
2667782	23675669	11013	Cassinia aculeata	147	-42.4			Stem diameter	Dataset for Rosell 2016 New Phytologist	Julieta	Rosell	Universidad Nacional Autonoma de México	
2667782	23675672	11013	Cassinia aculeata	147	-42.4			Bark thickness (outer bark)	Dataset for Rosell 2016 New Phytologist	Julieta	Rosell	Universidad Nacional Autonoma de México	
2668487	23682474	11013	Cassinia aculeata	147	-42.4			Stem diameter	Dataset for Rosell et al. 2017 New Phytologist	Julieta	Rosell	Universidad Nacional Autonoma de México	
4523770	50625399	11013	Cassinia aculeata	147	-42.4			Wood (sapwood) specific conductivity (stem specific conductivity)	Plant Hydraulic Traits	Stefano	Manzoni	Stockholm University	
2667782	23674195	11013	Cassinia aculeata	147	-42.4			Stem diameter	Dataset for Rosell 2016 New Phytologist	Julieta	Rosell	Universidad Nacional Autonoma de México	
2668487	23682477	11013	Cassinia aculeata	147	-42.4			Bark thickness (outer bark)	Dataset for Rosell et al. 2017 New Phytologist	Julieta	Rosell	Universidad Nacional Autonoma de México	
2667782	23674198	11013	Cassinia aculeata	147	-42.4			Bark thickness (outer bark)	Dataset for Rosell 2016 New Phytologist	Julieta	Rosell	Universidad Nacional Autonoma de México	
2668537	23683066	14336	Coprosma nitida	146.589347	-42.683857			Stem diameter	Dataset for Rosell et al. 2017 New Phytologist	Julieta	Rosell	Universidad Nacional Autonoma de México	
2668537	23683069	14336	Coprosma nitida	146.589347	-42.683857			Bark thickness (outer bark)	Dataset for Rosell et al. 2017 New Phytologist	Julieta	Rosell	Universidad Nacional Autonoma de México	
2667817	23675981	14336	Coprosma nitida	146.589347	-42.683857			Bark thickness	Dataset for Rosell 2016 New Phytologist	Julieta	Rosell	Universidad Nacional Autonoma de México	
2668537	23683065	14336	Coprosma nitida	146.589347	-42.683857			Plant growth form	Dataset for Rosell et al. 2017 New Phytologist	Julieta	Rosell	Universidad Nacional Autonoma de México	
2668537	23683068	14336	Coprosma nitida	146.589347	-42.683857			Bark thickness (inner bark)	Dataset for Rosell et al. 2017 New Phytologist	Julieta	Rosell	Universidad Nacional Autonoma de México	
2667817	23675980	14336	Coprosma nitida	146.589347	-42.683857			Stem diameter	Dataset for Rosell 2016 New Phytologist	Julieta	Rosell	Universidad Nacional Autonoma de México	
2667817	23675983	14336	Coprosma nitida	146.589347	-42.683857			Bark thickness (outer bark)	Dataset for Rosell 2016 New Phytologist	Julieta	Rosell	Universidad Nacional Autonoma de México	
2668537	23683064	14336	Coprosma nitida	146.589347	-42.683857			Stem construction type	Dataset for Rosell et al. 2017 New Phytologist	Julieta	Rosell	Universidad Nacional Autonoma de México	
2668537	23683067	14336	Coprosma nitida	146.589347	-42.683857			Bark thickness	Dataset for Rosell et al. 2017 New Phytologist	Julieta	Rosell	Universidad Nacional Autonoma de México	
2667817	23675982	14336	Coprosma nitida	146.589347	-42.683857			Bark thickness (inner bark)	Dataset for Rosell 2016 New Phytologist	Julieta	Rosell	Universidad Nacional Autonoma de México	
2668568	23683430	67069	Cyathodes straminea	146.589347	-42.683857			Stem diameter	Dataset for Rosell et al. 2017 New Phytologist	Julieta	Rosell	Universidad Nacional Autonoma de México	
2667842	23676201	67069	Cyathodes straminea	146.589347	-42.683857			Stem diameter	Dataset for Rosell 2016 New Phytologist	Julieta	Rosell	Universidad Nacional Autonoma de México	
2668568	23683433	67069	Cyathodes straminea	146.589347	-42.683857			Bark thickness (outer bark)	Dataset for Rosell et al. 2017 New Phytologist	Julieta	Rosell	Universidad Nacional Autonoma de México	
2667842	23676204	67069	Cyathodes straminea	146.589347	-42.683857			Bark thickness (outer bark)	Dataset for Rosell 2016 New Phytologist	Julieta	Rosell	Universidad Nacional Autonoma de México	
2668568	23683429	67069	Cyathodes straminea	146.589347	-42.683857			Plant growth form	Dataset for Rosell et al. 2017 New Phytologist	Julieta	Rosell	Universidad Nacional Autonoma de México	
2668568	23683432	67069	Cyathodes straminea	146.589347	-42.683857			Bark thickness (inner bark)	Dataset for Rosell et al. 2017 New Phytologist	Julieta	Rosell	Universidad Nacional Autonoma de México	
2667842	23676203	67069	Cyathodes straminea	146.589347	-42.683857			Bark thickness (inner bark)	Dataset for Rosell 2016 New Phytologist	Julieta	Rosell	Universidad Nacional Autonoma de México	
2668568	23683428	67069	Cyathodes straminea	146.589347	-42.683857			Stem construction type	Dataset for Rosell et al. 2017 New Phytologist	Julieta	Rosell	Universidad Nacional Autonoma de México	
2668568	23683431	67069	Cyathodes straminea	146.589347	-42.683857			Bark thickness	Dataset for Rosell et al. 2017 New Phytologist	Julieta	Rosell	Universidad Nacional Autonoma de México	
2667842	23676202	67069	Cyathodes straminea	146.589347	-42.683857			Bark thickness	Dataset for Rosell 2016 New Phytologist	Julieta	Rosell	Universidad Nacional Autonoma de México	
1728167	12621217	80661	Dacrycarpus compactus	147.324722222222	-42.905	60		Wood fibre types	Xylem Functional Traits (XFT) Database	Steven	Jansen	Ulm University	
1728167	12621207	80661	Dacrycarpus compactus	147.324722222222	-42.905	60		Plant life form (Raunkiaer life form)	Xylem Functional Traits (XFT) Database	Steven	Jansen	Ulm University	
1728167	12621220	80661	Dacrycarpus compactus	147.324722222222	-42.905	60		Leaf phenology type	Xylem Functional Traits (XFT) Database	Steven	Jansen	Ulm University	
1728167	12621210	80661	Dacrycarpus compactus	147.324722222222	-42.905	60		Xylem hydraulic vulnerability, xylem cavitation vulnerability, embolism vulnerability, (P20, P50, P8	Xylem Functional Traits (XFT) Database	Steven	Jansen	Ulm University	
1728167	12621216	80661	Dacrycarpus compactus	147.324722222222	-42.905	60		Wood vessel perforation plates	Xylem Functional Traits (XFT) Database	Steven	Jansen	Ulm University	
1728167	12621205	80661	Dacrycarpus compactus	147.324722222222	-42.905	60		Plant growth form	Xylem Functional Traits (XFT) Database	Steven	Jansen	Ulm University	
1728167	12621219	80661	Dacrycarpus compactus	147.324722222222	-42.905	60		Wood vessel grouping	Xylem Functional Traits (XFT) Database	Steven	Jansen	Ulm University	
1728167	12621209	80661	Dacrycarpus compactus	147.324722222222	-42.905	60		Xylem hydraulic vulnerability, xylem cavitation vulnerability, embolism vulnerability, (P20, P50, P8	Xylem Functional Traits (XFT) Database	Steven	Jansen	Ulm University	
1728167	12621215	80661	Dacrycarpus compactus	147.324722222222	-42.905	60		Wood growth ring distinction	Xylem Functional Traits (XFT) Database	Steven	Jansen	Ulm University	
1728167	12621218	80661	Dacrycarpus compactus	147.324722222222	-42.905	60		Wood vessels surrounded by tracheids (vasicentric tracheids)	Xylem Functional Traits (XFT) Database	Steven	Jansen	Ulm University	
1728167	12621208	80661	Dacrycarpus compactus	147.324722222222	-42.905	60		Xylem hydraulic vulnerability, xylem cavitation vulnerability, embolism vulnerability, (P20, P50, P8	Xylem Functional Traits (XFT) Database	Steven	Jansen	Ulm University	
1728167	12621211	80661	Dacrycarpus compactus	147.324722222222	-42.905	60		Xylem hydraulic vulnerability, xylem cavitation vulnerability, embolism vulnerability, (P20, P50, P8	Xylem Functional Traits (XFT) Database	Steven	Jansen	Ulm University	
1728171	12621600	16652	Dacrycarpus dacrydioides	147.324722222222	-42.905	60		Xylem hydraulic vulnerability, xylem cavitation vulnerability, embolism vulnerability, (P20, P50, P8	Xylem Functional Traits (XFT) Database	Steven	Jansen	Ulm University	
1728169	12621412	16652	Dacrycarpus dacrydioides	147.324722222222	-42.905	60		Wood vessels surrounded by tracheids (vasicentric tracheids)	Xylem Functional Traits (XFT) Database	Steven	Jansen	Ulm University	
1728168	12621311	16652	Dacrycarpus dacrydioides	147.324722222222	-42.905	60		Wood (sapwood) specific conductivity (stem specific conductivity)	Xylem Functional Traits (XFT) Database	Steven	Jansen	Ulm University	
1728170	12621506	16652	Dacrycarpus dacrydioides	147.324722222222	-42.905	60		Wood vessel pits characteristics (vestured pits)	Xylem Functional Traits (XFT) Database	Steven	Jansen	Ulm University	
1728169	12621402	16652	Dacrycarpus dacrydioides	147.324722222222	-42.905	60		Plant life form (Raunkiaer life form)	Xylem Functional Traits (XFT) Database	Steven	Jansen	Ulm University	
1728170	12621516	16652	Dacrycarpus dacrydioides	147.324722222222	-42.905	60		Leaf phenology type	Xylem Functional Traits (XFT) Database	Steven	Jansen	Ulm University	
1728171	12621606	16652	Dacrycarpus dacrydioides	147.324722222222	-42.905	60		Wood vessel perforation plates	Xylem Functional Traits (XFT) Database	Steven	Jansen	Ulm University	
1728170	12621495	16652	Dacrycarpus dacrydioides	147.324722222222	-42.905	60		Plant growth form	Xylem Functional Traits (XFT) Database	Steven	Jansen	Ulm University	
1728168	12621314	16652	Dacrycarpus dacrydioides	147.324722222222	-42.905	60		Wood growth ring distinction	Xylem Functional Traits (XFT) Database	Steven	Jansen	Ulm University	
1728170	12621509	16652	Dacrycarpus dacrydioides	147.324722222222	-42.905	60		Wood xylem torus diameter	Xylem Functional Traits (XFT) Database	Steven	Jansen	Ulm University	
1728171	12621596	16652	Dacrycarpus dacrydioides	147.324722222222	-42.905	60		Plant height vegetative	Xylem Functional Traits (XFT) Database	Steven	Jansen	Ulm University	
1728169	12621408	16652	Dacrycarpus dacrydioides	147.324722222222	-42.905	60		Xylem hydraulic vulnerability, xylem cavitation vulnerability, embolism vulnerability, (P20, P50, P8	Xylem Functional Traits (XFT) Database	Steven	Jansen	Ulm University	
1728171	12621609	16652	Dacrycarpus dacrydioides	147.324722222222	-42.905	60		Wood vessel grouping	Xylem Functional Traits (XFT) Database	Steven	Jansen	Ulm University	
1728168	12621304	16652	Dacrycarpus dacrydioides	147.324722222222	-42.905	60		Xylem hydraulic vulnerability, xylem cavitation vulnerability, embolism vulnerability, (P20, P50, P8	Xylem Functional Traits (XFT) Database	Steven	Jansen	Ulm University	
1728170	12621499	16652	Dacrycarpus dacrydioides	147.324722222222	-42.905	60		Xylem hydraulic vulnerability, xylem cavitation vulnerability, embolism vulnerability, (P20, P50, P8	Xylem Functional Traits (XFT) Database	Steven	Jansen	Ulm University	
1728168	12621317	16652	Dacrycarpus dacrydioides	147.324722222222	-42.905	60		Wood vessels surrounded by tracheids (vasicentric tracheids)	Xylem Functional Traits (XFT) Database	Steven	Jansen	Ulm University	
1728170	12621512	16652	Dacrycarpus dacrydioides	147.324722222222	-42.905	60		Wood vessel perforation plates	Xylem Functional Traits (XFT) Database	Steven	Jansen	Ulm University	
1728171	12621599	16652	Dacrycarpus dacrydioides	147.324722222222	-42.905	60		Xylem hydraulic vulnerability, xylem cavitation vulnerability, embolism vulnerability, (P20, P50, P8	Xylem Functional Traits (XFT) Database	Steven	Jansen	Ulm University	
1728169	12621411	16652	Dacrycarpus dacrydioides	147.324722222222	-42.905	60		Wood fibre types	Xylem Functional Traits (XFT) Database	Steven	Jansen	Ulm University	
1728168	12621307	16652	Dacrycarpus dacrydioides	147.324722222222	-42.905	60		Xylem hydraulic vulnerability, xylem cavitation vulnerability, embolism vulnerability, (P20, P50, P8	Xylem Functional Traits (XFT) Database	Steven	Jansen	Ulm University	
1728170	12621502	16652	Dacrycarpus dacrydioides	147.324722222222	-42.905	60		Xylem hydraulic vulnerability, xylem cavitation vulnerability, embolism vulnerability, (P20, P50, P8	Xylem Functional Traits (XFT) Database	Steven	Jansen	Ulm University	
1728169	12621400	16652	Dacrycarpus dacrydioides	147.324722222222	-42.905	60		Plant growth form	Xylem Functional Traits (XFT) Database	Steven	Jansen	Ulm University	
1728170	12621515	16652	Dacrycarpus dacrydioides	147.324722222222	-42.905	60		Wood vessel grouping	Xylem Functional Traits (XFT) Database	Steven	Jansen	Ulm University	
1728171	12621605	16652	Dacrycarpus dacrydioides	147.324722222222	-42.905	60		Wood growth ring distinction	Xylem Functional Traits (XFT) Database	Steven	Jansen	Ulm University	
1728169	12621414	16652	Dacrycarpus dacrydioides	147.324722222222	-42.905	60		Leaf phenology type	Xylem Functional Traits (XFT) Database	Steven	Jansen	Ulm University	
1728168	12621313	16652	Dacrycarpus dacrydioides	147.324722222222	-42.905	60		Xylem hydraulic vulnerability, xylem cavitation vulnerability, embolism vulnerability, (P20, P50, P8	Xylem Functional Traits (XFT) Database	Steven	Jansen	Ulm University	
1728170	12621508	16652	Dacrycarpus dacrydioides	147.324722222222	-42.905	60		Wood outer pit aperture diameter / interconduit pit size	Xylem Functional Traits (XFT) Database	Steven	Jansen	Ulm University	
1728171	12621595	16652	Dacrycarpus dacrydioides	147.324722222222	-42.905	60		Plant life form (Raunkiaer life form)	Xylem Functional Traits (XFT) Database	Steven	Jansen	Ulm University	
1728169	12621407	16652	Dacrycarpus dacrydioides	147.324722222222	-42.905	60		Leaf area-specific conductivity (leaf specific conductivity)	Xylem Functional Traits (XFT) Database	Steven	Jansen	Ulm University	
1728171	12621608	16652	Dacrycarpus dacrydioides	147.324722222222	-42.905	60		Wood vessels surrounded by tracheids (vasicentric tracheids)	Xylem Functional Traits (XFT) Database	Steven	Jansen	Ulm University	
1728168	12621303	16652	Dacrycarpus dacrydioides	147.324722222222	-42.905	60		Plant life form (Raunkiaer life form)	Xylem Functional Traits (XFT) Database	Steven	Jansen	Ulm University	
1728170	12621498	16652	Dacrycarpus dacrydioides	147.324722222222	-42.905	60		Plant height vegetative	Xylem Functional Traits (XFT) Database	Steven	Jansen	Ulm University	
1728168	12621316	16652	Dacrycarpus dacrydioides	147.324722222222	-42.905	60		Wood fibre types	Xylem Functional Traits (XFT) Database	Steven	Jansen	Ulm University	
1728170	12621511	16652	Dacrycarpus dacrydioides	147.324722222222	-42.905	60		Wood growth ring distinction	Xylem Functional Traits (XFT) Database	Steven	Jansen	Ulm University	
1728171	12621598	16652	Dacrycarpus dacrydioides	147.324722222222	-42.905	60		Xylem hydraulic vulnerability, xylem cavitation vulnerability, embolism vulnerability, (P20, P50, P8	Xylem Functional Traits (XFT) Database	Steven	Jansen	Ulm University	
1728169	12621410	16652	Dacrycarpus dacrydioides	147.324722222222	-42.905	60		Wood vessel perforation plates	Xylem Functional Traits (XFT) Database	Steven	Jansen	Ulm University	
1728171	12621611	16652	Dacrycarpus dacrydioides	147.324722222222	-42.905	60		Leaf phenology type	Xylem Functional Traits (XFT) Database	Steven	Jansen	Ulm University	
1728168	12621306	16652	Dacrycarpus dacrydioides	147.324722222222	-42.905	60		Xylem hydraulic vulnerability, xylem cavitation vulnerability, embolism vulnerability, (P20, P50, P8	Xylem Functional Traits (XFT) Database	Steven	Jansen	Ulm University	
1728170	12621501	16652	Dacrycarpus dacrydioides	147.324722222222	-42.905	60		Xylem hydraulic vulnerability, xylem cavitation vulnerability, embolism vulnerability, (P20, P50, P8	Xylem Functional Traits (XFT) Database	Steven	Jansen	Ulm University	
1728168	12621319	16652	Dacrycarpus dacrydioides	147.324722222222	-42.905	60		Leaf phenology type	Xylem Functional Traits (XFT) Database	Steven	Jansen	Ulm University	
1728170	12621514	16652	Dacrycarpus dacrydioides	147.324722222222	-42.905	60		Wood vessels surrounded by tracheids (vasicentric tracheids)	Xylem Functional Traits (XFT) Database	Steven	Jansen	Ulm University	
1728171	12621601	16652	Dacrycarpus dacrydioides	147.324722222222	-42.905	60		Xylem hydraulic vulnerability, xylem cavitation vulnerability, embolism vulnerability, (P20, P50, P8	Xylem Functional Traits (XFT) Database	Steven	Jansen	Ulm University	
1728169	12621413	16652	Dacrycarpus dacrydioides	147.324722222222	-42.905	60		Wood vessel grouping	Xylem Functional Traits (XFT) Database	Steven	Jansen	Ulm University	
1728168	12621312	16652	Dacrycarpus dacrydioides	147.324722222222	-42.905	60		Leaf area-specific conductivity (leaf specific conductivity)	Xylem Functional Traits (XFT) Database	Steven	Jansen	Ulm University	
1728170	12621507	16652	Dacrycarpus dacrydioides	147.324722222222	-42.905	60		Wood outer pit aperture diameter	Xylem Functional Traits (XFT) Database	Steven	Jansen	Ulm University	
1728169	12621403	16652	Dacrycarpus dacrydioides	147.324722222222	-42.905	60		Xylem hydraulic vulnerability, xylem cavitation vulnerability, embolism vulnerability, (P20, P50, P8	Xylem Functional Traits (XFT) Database	Steven	Jansen	Ulm University	
1728171	12621593	16652	Dacrycarpus dacrydioides	147.324722222222	-42.905	60		Plant growth form	Xylem Functional Traits (XFT) Database	Steven	Jansen	Ulm University	
1728171	12621607	16652	Dacrycarpus dacrydioides	147.324722222222	-42.905	60		Wood fibre types	Xylem Functional Traits (XFT) Database	Steven	Jansen	Ulm University	
1728170	12621497	16652	Dacrycarpus dacrydioides	147.324722222222	-42.905	60		Plant life form (Raunkiaer life form)	Xylem Functional Traits (XFT) Database	Steven	Jansen	Ulm University	
1728168	12621301	16652	Dacrycarpus dacrydioides	147.324722222222	-42.905	60		Plant growth form	Xylem Functional Traits (XFT) Database	Steven	Jansen	Ulm University	
1728168	12621315	16652	Dacrycarpus dacrydioides	147.324722222222	-42.905	60		Wood vessel perforation plates	Xylem Functional Traits (XFT) Database	Steven	Jansen	Ulm University	
1728170	12621510	16652	Dacrycarpus dacrydioides	147.324722222222	-42.905	60		Wood xylem torus diameter per outer pit apertuer diameter	Xylem Functional Traits (XFT) Database	Steven	Jansen	Ulm University	
1728171	12621597	16652	Dacrycarpus dacrydioides	147.324722222222	-42.905	60		Plant height vegetative	Xylem Functional Traits (XFT) Database	Steven	Jansen	Ulm University	
1728169	12621409	16652	Dacrycarpus dacrydioides	147.324722222222	-42.905	60		Wood growth ring distinction	Xylem Functional Traits (XFT) Database	Steven	Jansen	Ulm University	
1728171	12621610	16652	Dacrycarpus dacrydioides	147.324722222222	-42.905	60		Stem specific density (SSD) or wood density (stem dry mass per stem fresh volume)	Xylem Functional Traits (XFT) Database	Steven	Jansen	Ulm University	
1728168	12621305	16652	Dacrycarpus dacrydioides	147.324722222222	-42.905	60		Xylem hydraulic vulnerability, xylem cavitation vulnerability, embolism vulnerability, (P20, P50, P8	Xylem Functional Traits (XFT) Database	Steven	Jansen	Ulm University	
1728170	12621500	16652	Dacrycarpus dacrydioides	147.324722222222	-42.905	60		Xylem hydraulic vulnerability, xylem cavitation vulnerability, embolism vulnerability, (P20, P50, P8	Xylem Functional Traits (XFT) Database	Steven	Jansen	Ulm University	
1728168	12621318	16652	Dacrycarpus dacrydioides	147.324722222222	-42.905	60		Wood vessel grouping	Xylem Functional Traits (XFT) Database	Steven	Jansen	Ulm University	
1728170	12621513	16652	Dacrycarpus dacrydioides	147.324722222222	-42.905	60		Wood fibre types	Xylem Functional Traits (XFT) Database	Steven	Jansen	Ulm University	
1728172	12621695	16653	Dacrycarpus imbricatus	147.324722222222	-42.905	60		Plant life form (Raunkiaer life form)	Xylem Functional Traits (XFT) Database	Steven	Jansen	Ulm University	
1728172	12621708	16653	Dacrycarpus imbricatus	147.324722222222	-42.905	60		Wood fibre types	Xylem Functional Traits (XFT) Database	Steven	Jansen	Ulm University	
1728172	12621698	16653	Dacrycarpus imbricatus	147.324722222222	-42.905	60		Xylem hydraulic vulnerability, xylem cavitation vulnerability, embolism vulnerability, (P20, P50, P8	Xylem Functional Traits (XFT) Database	Steven	Jansen	Ulm University	
1728172	12621711	16653	Dacrycarpus imbricatus	147.324722222222	-42.905	60		Stem specific density (SSD) or wood density (stem dry mass per stem fresh volume)	Xylem Functional Traits (XFT) Database	Steven	Jansen	Ulm University	
1728172	12621701	16653	Dacrycarpus imbricatus	147.324722222222	-42.905	60		Xylem hydraulic vulnerability, xylem cavitation vulnerability, embolism vulnerability, (P20, P50, P8	Xylem Functional Traits (XFT) Database	Steven	Jansen	Ulm University	
1728172	12621693	16653	Dacrycarpus imbricatus	147.324722222222	-42.905	60		Plant growth form	Xylem Functional Traits (XFT) Database	Steven	Jansen	Ulm University	
1728172	12621707	16653	Dacrycarpus imbricatus	147.324722222222	-42.905	60		Wood vessel perforation plates	Xylem Functional Traits (XFT) Database	Steven	Jansen	Ulm University	
1728172	12621697	16653	Dacrycarpus imbricatus	147.324722222222	-42.905	60		Plant height vegetative	Xylem Functional Traits (XFT) Database	Steven	Jansen	Ulm University	
1728172	12621710	16653	Dacrycarpus imbricatus	147.324722222222	-42.905	60		Wood vessel grouping	Xylem Functional Traits (XFT) Database	Steven	Jansen	Ulm University	
1728172	12621700	16653	Dacrycarpus imbricatus	147.324722222222	-42.905	60		Xylem hydraulic vulnerability, xylem cavitation vulnerability, embolism vulnerability, (P20, P50, P8	Xylem Functional Traits (XFT) Database	Steven	Jansen	Ulm University	
1728172	12621706	16653	Dacrycarpus imbricatus	147.324722222222	-42.905	60		Wood growth ring distinction	Xylem Functional Traits (XFT) Database	Steven	Jansen	Ulm University	
1728172	12621696	16653	Dacrycarpus imbricatus	147.324722222222	-42.905	60		Plant height vegetative	Xylem Functional Traits (XFT) Database	Steven	Jansen	Ulm University	
1728172	12621709	16653	Dacrycarpus imbricatus	147.324722222222	-42.905	60		Wood vessels surrounded by tracheids (vasicentric tracheids)	Xylem Functional Traits (XFT) Database	Steven	Jansen	Ulm University	
1728172	12621699	16653	Dacrycarpus imbricatus	147.324722222222	-42.905	60		Xylem hydraulic vulnerability, xylem cavitation vulnerability, embolism vulnerability, (P20, P50, P8	Xylem Functional Traits (XFT) Database	Steven	Jansen	Ulm University	
1728172	12621712	16653	Dacrycarpus imbricatus	147.324722222222	-42.905	60		Leaf phenology type	Xylem Functional Traits (XFT) Database	Steven	Jansen	Ulm University	
1728172	12621705	16653	Dacrycarpus imbricatus	147.324722222222	-42.905	60		Xylem hydraulic vulnerability, xylem cavitation vulnerability, embolism vulnerability, (P20, P50, P8	Xylem Functional Traits (XFT) Database	Steven	Jansen	Ulm University	
4523771	50625417	17071	Daviesia latifolia	147	-42.4			Leaf phenology type	Plant Hydraulic Traits	Stefano	Manzoni	Stockholm University	
2668584	23683620	17071	Daviesia latifolia	147	-42.4			Stem construction type	Dataset for Rosell et al. 2017 New Phytologist	Julieta	Rosell	Universidad Nacional Autonoma de México	
2667853	23676300	17071	Daviesia latifolia	147	-42.4			Stem diameter	Dataset for Rosell 2016 New Phytologist	Julieta	Rosell	Universidad Nacional Autonoma de México	
2668584	23683623	17071	Daviesia latifolia	147	-42.4			Bark thickness	Dataset for Rosell et al. 2017 New Phytologist	Julieta	Rosell	Universidad Nacional Autonoma de México	
2667853	23676303	17071	Daviesia latifolia	147	-42.4			Bark thickness (outer bark)	Dataset for Rosell 2016 New Phytologist	Julieta	Rosell	Universidad Nacional Autonoma de México	
4523771	50625416	17071	Daviesia latifolia	147	-42.4			Plant woodiness	Plant Hydraulic Traits	Stefano	Manzoni	Stockholm University	
2668584	23683622	17071	Daviesia latifolia	147	-42.4			Stem diameter	Dataset for Rosell et al. 2017 New Phytologist	Julieta	Rosell	Universidad Nacional Autonoma de México	
2667853	23676302	17071	Daviesia latifolia	147	-42.4			Bark thickness (inner bark)	Dataset for Rosell 2016 New Phytologist	Julieta	Rosell	Universidad Nacional Autonoma de México	
2668584	23683625	17071	Daviesia latifolia	147	-42.4			Bark thickness (outer bark)	Dataset for Rosell et al. 2017 New Phytologist	Julieta	Rosell	Universidad Nacional Autonoma de México	
4523771	50625410	17071	Daviesia latifolia	147	-42.4			Wood (sapwood) specific conductivity (stem specific conductivity)	Plant Hydraulic Traits	Stefano	Manzoni	Stockholm University	
2668584	23683621	17071	Daviesia latifolia	147	-42.4			Plant growth form	Dataset for Rosell et al. 2017 New Phytologist	Julieta	Rosell	Universidad Nacional Autonoma de México	
2667853	23676301	17071	Daviesia latifolia	147	-42.4			Bark thickness	Dataset for Rosell 2016 New Phytologist	Julieta	Rosell	Universidad Nacional Autonoma de México	
2668584	23683624	17071	Daviesia latifolia	147	-42.4			Bark thickness (inner bark)	Dataset for Rosell et al. 2017 New Phytologist	Julieta	Rosell	Universidad Nacional Autonoma de México	
4523771	50625409	17071	Daviesia latifolia	147	-42.4			Leaf area-specific conductivity (leaf specific conductivity)	Plant Hydraulic Traits	Stefano	Manzoni	Stockholm University	
1727383	12546101	67452	Drimys lanceolata	147.324722222222	-42.905	60		Plant height vegetative	Xylem Functional Traits (XFT) Database	Steven	Jansen	Ulm University	
1727383	12546114	67452	Drimys lanceolata	147.324722222222	-42.905	60		Wood vessel grouping	Xylem Functional Traits (XFT) Database	Steven	Jansen	Ulm University	
1727383	12546104	67452	Drimys lanceolata	147.324722222222	-42.905	60		Xylem hydraulic vulnerability, xylem cavitation vulnerability, embolism vulnerability, (P20, P50, P8	Xylem Functional Traits (XFT) Database	Steven	Jansen	Ulm University	
1727383	12546110	67452	Drimys lanceolata	147.324722222222	-42.905	60		Wood growth ring distinction	Xylem Functional Traits (XFT) Database	Steven	Jansen	Ulm University	
1727383	12546100	67452	Drimys lanceolata	147.324722222222	-42.905	60		Plant life form (Raunkiaer life form)	Xylem Functional Traits (XFT) Database	Steven	Jansen	Ulm University	
1727383	12546113	67452	Drimys lanceolata	147.324722222222	-42.905	60		Wood vessels surrounded by tracheids (vasicentric tracheids)	Xylem Functional Traits (XFT) Database	Steven	Jansen	Ulm University	
1727383	12546103	67452	Drimys lanceolata	147.324722222222	-42.905	60		Xylem hydraulic vulnerability, xylem cavitation vulnerability, embolism vulnerability, (P20, P50, P8	Xylem Functional Traits (XFT) Database	Steven	Jansen	Ulm University	
1727383	12546116	67452	Drimys lanceolata	147.324722222222	-42.905	60		Leaf phenology type	Xylem Functional Traits (XFT) Database	Steven	Jansen	Ulm University	
1727383	12546109	67452	Drimys lanceolata	147.324722222222	-42.905	60		Wood vestures presence	Xylem Functional Traits (XFT) Database	Steven	Jansen	Ulm University	
1727383	12546112	67452	Drimys lanceolata	147.324722222222	-42.905	60		Wood fibre types	Xylem Functional Traits (XFT) Database	Steven	Jansen	Ulm University	
1727383	12546102	67452	Drimys lanceolata	147.324722222222	-42.905	60		Xylem hydraulic vulnerability, xylem cavitation vulnerability, embolism vulnerability, (P20, P50, P8	Xylem Functional Traits (XFT) Database	Steven	Jansen	Ulm University	
1727383	12546115	67452	Drimys lanceolata	147.324722222222	-42.905	60		Stem specific density (SSD) or wood density (stem dry mass per stem fresh volume)	Xylem Functional Traits (XFT) Database	Steven	Jansen	Ulm University	
1727383	12546105	67452	Drimys lanceolata	147.324722222222	-42.905	60		Xylem hydraulic vulnerability, xylem cavitation vulnerability, embolism vulnerability, (P20, P50, P8	Xylem Functional Traits (XFT) Database	Steven	Jansen	Ulm University	
1727383	12546111	67452	Drimys lanceolata	147.324722222222	-42.905	60		Wood vessel perforation plates	Xylem Functional Traits (XFT) Database	Steven	Jansen	Ulm University	
4523755	50625241	20720	Epacris impressa	147.2	-43			Leaf phenology type	Plant Hydraulic Traits	Stefano	Manzoni	Stockholm University	
2668618	23684020	20720	Epacris impressa	147	-42.4			Bark thickness (inner bark)	Dataset for Rosell et al. 2017 New Phytologist	Julieta	Rosell	Universidad Nacional Autonoma de México	
4523772	50625427	20720	Epacris impressa	147	-42.4			Plant woodiness	Plant Hydraulic Traits	Stefano	Manzoni	Stockholm University	
2668618	23684016	20720	Epacris impressa	147	-42.4			Stem construction type	Dataset for Rosell et al. 2017 New Phytologist	Julieta	Rosell	Universidad Nacional Autonoma de México	
2667878	23676519	20720	Epacris impressa	147	-42.4			Bark thickness (inner bark)	Dataset for Rosell 2016 New Phytologist	Julieta	Rosell	Universidad Nacional Autonoma de México	
4523755	50625240	20720	Epacris impressa	147.2	-43			Plant woodiness	Plant Hydraulic Traits	Stefano	Manzoni	Stockholm University	
2668618	23684019	20720	Epacris impressa	147	-42.4			Bark thickness	Dataset for Rosell et al. 2017 New Phytologist	Julieta	Rosell	Universidad Nacional Autonoma de México	
4523772	50625421	20720	Epacris impressa	147	-42.4			Wood (sapwood) specific conductivity (stem specific conductivity)	Plant Hydraulic Traits	Stefano	Manzoni	Stockholm University	
2667878	23676518	20720	Epacris impressa	147	-42.4			Bark thickness	Dataset for Rosell 2016 New Phytologist	Julieta	Rosell	Universidad Nacional Autonoma de México	
4523755	50625234	20720	Epacris impressa	147.2	-43			Wood (sapwood) specific conductivity (stem specific conductivity)	Plant Hydraulic Traits	Stefano	Manzoni	Stockholm University	
2668618	23684018	20720	Epacris impressa	147	-42.4			Stem diameter	Dataset for Rosell et al. 2017 New Phytologist	Julieta	Rosell	Universidad Nacional Autonoma de México	
4523772	50625420	20720	Epacris impressa	147	-42.4			Leaf area-specific conductivity (leaf specific conductivity)	Plant Hydraulic Traits	Stefano	Manzoni	Stockholm University	
2668618	23684021	20720	Epacris impressa	147	-42.4			Bark thickness (outer bark)	Dataset for Rosell et al. 2017 New Phytologist	Julieta	Rosell	Universidad Nacional Autonoma de México	
4523772	50625428	20720	Epacris impressa	147	-42.4			Leaf phenology type	Plant Hydraulic Traits	Stefano	Manzoni	Stockholm University	
2667878	23676517	20720	Epacris impressa	147	-42.4			Stem diameter	Dataset for Rosell 2016 New Phytologist	Julieta	Rosell	Universidad Nacional Autonoma de México	
4523755	50625233	20720	Epacris impressa	147.2	-43			Leaf area-specific conductivity (leaf specific conductivity)	Plant Hydraulic Traits	Stefano	Manzoni	Stockholm University	
2668618	23684017	20720	Epacris impressa	147	-42.4			Plant growth form	Dataset for Rosell et al. 2017 New Phytologist	Julieta	Rosell	Universidad Nacional Autonoma de México	
2667878	23676520	20720	Epacris impressa	147	-42.4			Bark thickness (outer bark)	Dataset for Rosell 2016 New Phytologist	Julieta	Rosell	Universidad Nacional Autonoma de México	
3037614	30557524	20722	Epacris lanuginosa	146.85998	-43.12207	322		Leaf density (leaf tissue density, leaf dry mass per leaf volume)	The Global Leaf Traits	Serge	Sheremetev	Komarov Botanical Institute	
3037614	30557517	20722	Epacris lanuginosa	146.85998	-43.12207	322		Leaf chlorophyll content per leaf dry mass (Chl a)	The Global Leaf Traits	Serge	Sheremetev	Komarov Botanical Institute	
3037614	30557527	20722	Epacris lanuginosa	146.85998	-43.12207	322		Leaf phosphorus (P) content per leaf dry mass	The Global Leaf Traits	Serge	Sheremetev	Komarov Botanical Institute	
4523756	50625251	20722	Epacris lanuginosa	147.2	-43			Plant woodiness	Plant Hydraulic Traits	Stefano	Manzoni	Stockholm University	
3037614	30557520	20722	Epacris lanuginosa	146.85998	-43.12207	322		Leaf chlorophyll a/b ratio	The Global Leaf Traits	Serge	Sheremetev	Komarov Botanical Institute	
3037614	50865325	20722	Epacris lanuginosa	146.85998	-43.12207	322		Leaf phosphorus (P) content per leaf area	The Global Leaf Traits	Serge	Sheremetev	Komarov Botanical Institute	
3037614	30557523	20722	Epacris lanuginosa	146.85998	-43.12207	322		Leaf area per leaf dry mass (specific leaf area, SLA or 1/LMA): undefined if petiole is in- or exclu	The Global Leaf Traits	Serge	Sheremetev	Komarov Botanical Institute	
3037614	30557516	20722	Epacris lanuginosa	146.85998	-43.12207	322		Plant growth form	The Global Leaf Traits	Serge	Sheremetev	Komarov Botanical Institute	
3037614	30557526	20722	Epacris lanuginosa	146.85998	-43.12207	322		Leaf nitrogen (N) content per leaf dry mass	The Global Leaf Traits	Serge	Sheremetev	Komarov Botanical Institute	
4523756	50625245	20722	Epacris lanuginosa	147.2	-43			Wood (sapwood) specific conductivity (stem specific conductivity)	Plant Hydraulic Traits	Stefano	Manzoni	Stockholm University	
3037614	30557519	20722	Epacris lanuginosa	146.85998	-43.12207	322		Leaf chlorophyll content per leaf dry mass	The Global Leaf Traits	Serge	Sheremetev	Komarov Botanical Institute	
3037614	50836191	20722	Epacris lanuginosa	146.85998	-43.12207	322		Leaf nitrogen (N) content per leaf area	The Global Leaf Traits	Serge	Sheremetev	Komarov Botanical Institute	
3037614	30557522	20722	Epacris lanuginosa	146.85998	-43.12207	322		Leaf thickness	The Global Leaf Traits	Serge	Sheremetev	Komarov Botanical Institute	
3037614	50935620	20722	Epacris lanuginosa	146.85998	-43.12207	322		Leaf chlorophyll content per leaf area	The Global Leaf Traits	Serge	Sheremetev	Komarov Botanical Institute	
3037614	30557525	20722	Epacris lanuginosa	146.85998	-43.12207	322		Leaf carbon (C) content per leaf dry mass	The Global Leaf Traits	Serge	Sheremetev	Komarov Botanical Institute	
4523756	50625244	20722	Epacris lanuginosa	147.2	-43			Leaf area-specific conductivity (leaf specific conductivity)	Plant Hydraulic Traits	Stefano	Manzoni	Stockholm University	
3037614	30557518	20722	Epacris lanuginosa	146.85998	-43.12207	322		Leaf chlorophyll content per leaf dry mass (Chl b)	The Global Leaf Traits	Serge	Sheremetev	Komarov Botanical Institute	
3037614	30557528	20722	Epacris lanuginosa	146.85998	-43.12207	322		Leaf carbon/nitrogen (C/N) ratio	The Global Leaf Traits	Serge	Sheremetev	Komarov Botanical Institute	
4523756	50625252	20722	Epacris lanuginosa	147.2	-43			Leaf phenology type	Plant Hydraulic Traits	Stefano	Manzoni	Stockholm University	
3037614	30557521	20722	Epacris lanuginosa	146.85998	-43.12207	322		Leaf carotenoid content per leaf dry mass	The Global Leaf Traits	Serge	Sheremetev	Komarov Botanical Institute	
3037614	50912346	20722	Epacris lanuginosa	146.85998	-43.12207	322		Leaf carbon (C) content per leaf area	The Global Leaf Traits	Serge	Sheremetev	Komarov Botanical Institute	
2391662	19733419	20732	Epacris serpyllifolia	147.2353	-42.8964	1271		Leaf phenology type	Global leaf size dataset	Ian	Wright	Macquarie University	
2391662	19733422	20732	Epacris serpyllifolia	147.2353	-42.8964	1271		Leaf area (in case of compound leaves: leaf, undefined if petiole in- or excluded)	Global leaf size dataset	Ian	Wright	Macquarie University	
2391662	19733418	20732	Epacris serpyllifolia	147.2353	-42.8964	1271		Plant woodiness	Global leaf size dataset	Ian	Wright	Macquarie University	
2391662	19733421	20732	Epacris serpyllifolia	147.2353	-42.8964	1271		Leaf area (in case of compound leaves: leaflet, undefined if petiole is in- or excluded)	Global leaf size dataset	Ian	Wright	Macquarie University	
2391662	19733417	20732	Epacris serpyllifolia	147.2353	-42.8964	1271		Plant growth form	Global leaf size dataset	Ian	Wright	Macquarie University	
2391662	19733420	20732	Epacris serpyllifolia	147.2353	-42.8964	1271		Leaf compoundness	Global leaf size dataset	Ian	Wright	Macquarie University	
2391662	19733426	20732	Epacris serpyllifolia	147.2353	-42.8964	1271		Leaflet number per leaf	Global leaf size dataset	Ian	Wright	Macquarie University	
4523757	50625256	22327	Eucalyptus amygdalina	147.2	-43			Wood (sapwood) specific conductivity (stem specific conductivity)	Plant Hydraulic Traits	Stefano	Manzoni	Stockholm University	
4523757	50625255	22327	Eucalyptus amygdalina	147.2	-43			Leaf area-specific conductivity (leaf specific conductivity)	Plant Hydraulic Traits	Stefano	Manzoni	Stockholm University	
4523757	50625263	22327	Eucalyptus amygdalina	147.2	-43			Leaf phenology type	Plant Hydraulic Traits	Stefano	Manzoni	Stockholm University	
4523757	50625262	22327	Eucalyptus amygdalina	147.2	-43			Plant woodiness	Plant Hydraulic Traits	Stefano	Manzoni	Stockholm University	
2391661	19733404	22419	Eucalyptus coccifera	147.2353	-42.8964	1271		Leaf phenology type	Global leaf size dataset	Ian	Wright	Macquarie University	
2668643	23684307	22419	Eucalyptus coccifera	146.589347	-42.683857			Plant growth form	Dataset for Rosell et al. 2017 New Phytologist	Julieta	Rosell	Universidad Nacional Autonoma de México	
2391661	19733407	22419	Eucalyptus coccifera	147.2353	-42.8964	1271		Leaf area (in case of compound leaves: leaf, undefined if petiole in- or excluded)	Global leaf size dataset	Ian	Wright	Macquarie University	
2668643	23684310	22419	Eucalyptus coccifera	146.589347	-42.683857			Bark thickness (inner bark)	Dataset for Rosell et al. 2017 New Phytologist	Julieta	Rosell	Universidad Nacional Autonoma de México	
2667901	23676715	22419	Eucalyptus coccifera	146.589347	-42.683857			Bark thickness	Dataset for Rosell 2016 New Phytologist	Julieta	Rosell	Universidad Nacional Autonoma de México	
2391661	19733403	22419	Eucalyptus coccifera	147.2353	-42.8964	1271		Plant woodiness	Global leaf size dataset	Ian	Wright	Macquarie University	
2668643	23684306	22419	Eucalyptus coccifera	146.589347	-42.683857			Stem construction type	Dataset for Rosell et al. 2017 New Phytologist	Julieta	Rosell	Universidad Nacional Autonoma de México	
2391661	19733406	22419	Eucalyptus coccifera	147.2353	-42.8964	1271		Leaf area (in case of compound leaves: leaflet, undefined if petiole is in- or excluded)	Global leaf size dataset	Ian	Wright	Macquarie University	
2668643	23684309	22419	Eucalyptus coccifera	146.589347	-42.683857			Bark thickness	Dataset for Rosell et al. 2017 New Phytologist	Julieta	Rosell	Universidad Nacional Autonoma de México	
2391661	19733402	22419	Eucalyptus coccifera	147.2353	-42.8964	1271		Plant growth form	Global leaf size dataset	Ian	Wright	Macquarie University	
2667901	23676717	22419	Eucalyptus coccifera	146.589347	-42.683857			Bark thickness (outer bark)	Dataset for Rosell 2016 New Phytologist	Julieta	Rosell	Universidad Nacional Autonoma de México	
2667901	23676714	22419	Eucalyptus coccifera	146.589347	-42.683857			Stem diameter	Dataset for Rosell 2016 New Phytologist	Julieta	Rosell	Universidad Nacional Autonoma de México	
2391661	19733405	22419	Eucalyptus coccifera	147.2353	-42.8964	1271		Leaf compoundness	Global leaf size dataset	Ian	Wright	Macquarie University	
2668643	23684308	22419	Eucalyptus coccifera	146.589347	-42.683857			Stem diameter	Dataset for Rosell et al. 2017 New Phytologist	Julieta	Rosell	Universidad Nacional Autonoma de México	
2391661	19733411	22419	Eucalyptus coccifera	147.2353	-42.8964	1271		Leaflet number per leaf	Global leaf size dataset	Ian	Wright	Macquarie University	
2668643	23684311	22419	Eucalyptus coccifera	146.589347	-42.683857			Bark thickness (outer bark)	Dataset for Rosell et al. 2017 New Phytologist	Julieta	Rosell	Universidad Nacional Autonoma de México	
2667901	23676716	22419	Eucalyptus coccifera	146.589347	-42.683857			Bark thickness (inner bark)	Dataset for Rosell 2016 New Phytologist	Julieta	Rosell	Universidad Nacional Autonoma de México	
3019268	29512184	22543	Eucalyptus globulus	147.51	-42.82			Stem diameter	BAAD: a biomass and allometry database for woody plants	Daniel	Falster	University of New South Wales	
3019281	29512638	22543	Eucalyptus globulus	147.51	-42.82			Plant biomass and allometry: Whole plant aboveground mass	BAAD: a biomass and allometry database for woody plants	Daniel	Falster	University of New South Wales	
3019236	29511094	22543	Eucalyptus globulus	147.51	-42.82			Leaf area per plant	BAAD: a biomass and allometry database for woody plants	Daniel	Falster	University of New South Wales	
1310467	9139597	22543	Eucalyptus globulus	147.6	-42.82		1993-12-25	Leaf photosynthesis pathway	Leaf Physiology Database	Jens	Kattge	Max Planck Institute for Biogeochemistry	
4404880	48144047	22543	Eucalyptus globulus	147.51	-42.82		2000 to 2005	Plant woodiness	FRED - Fine Root Ecology Database	Colleen	Iversen		
3019226	29510769	22543	Eucalyptus globulus	147.51	-42.82			Plant functional type (PFT)	BAAD: a biomass and allometry database for woody plants	Daniel	Falster	University of New South Wales	
4444735	49600243	22543	Eucalyptus globulus	147.51	-42.82		2000 to 2005	Leaf photosynthesis pathway	FRED - Fine Root Ecology Database	Colleen	Iversen		
4444728	49600004	22543	Eucalyptus globulus	147.51	-42.82		2000 to 2005	Leaf photosynthesis pathway	FRED - Fine Root Ecology Database	Colleen	Iversen		
4446334	49654420	22543	Eucalyptus globulus	147.51	-42.82		2000 to 2005	Mycorrhiza type	FRED - Fine Root Ecology Database	Colleen	Iversen		
1310463	9139482	22543	Eucalyptus globulus	147.6	-42.82		1993-12-25	Leaf type	Leaf Physiology Database	Jens	Kattge	Max Planck Institute for Biogeochemistry	
3019258	29511833	22543	Eucalyptus globulus	147.51	-42.82			Leaf area per plant	BAAD: a biomass and allometry database for woody plants	Daniel	Falster	University of New South Wales	
4446327	49654195	22543	Eucalyptus globulus	147.51	-42.82		2000 to 2005	Coarse root to fine root mass ratio	FRED - Fine Root Ecology Database	Colleen	Iversen		
3019250	29511561	22543	Eucalyptus globulus	147.51	-42.82			Leaf area per plant	BAAD: a biomass and allometry database for woody plants	Daniel	Falster	University of New South Wales	
4444738	49600348	22543	Eucalyptus globulus	147.51	-42.82		2000 to 2005	Mycorrhiza type	FRED - Fine Root Ecology Database	Colleen	Iversen		
3019275	29512431	22543	Eucalyptus globulus	147.51	-42.82			Plant biomass and allometry: Leaf mass (dry or fresh) per plant	BAAD: a biomass and allometry database for woody plants	Daniel	Falster	University of New South Wales	
3019286	29512832	22543	Eucalyptus globulus	147.51	-42.82			Plant biomass and allometry: Root mass per plant	BAAD: a biomass and allometry database for woody plants	Daniel	Falster	University of New South Wales	
3019245	29511392	22543	Eucalyptus globulus	147.51	-42.82			Plant biomass and allometry: Stem cross-sectional area at base of the plant	BAAD: a biomass and allometry database for woody plants	Daniel	Falster	University of New South Wales	
1310476	9139859	22543	Eucalyptus globulus	147.6	-42.82		1994-06-21	Leaf type	Leaf Physiology Database	Jens	Kattge	Max Planck Institute for Biogeochemistry	
4444732	49600144	22543	Eucalyptus globulus	147.51	-42.82		2000 to 2005	Mycorrhiza type	FRED - Fine Root Ecology Database	Colleen	Iversen		
4404889	48144333	22543	Eucalyptus globulus	147.51	-42.82		2000 to 2005	Leaf type	FRED - Fine Root Ecology Database	Colleen	Iversen		
3019262	29511974	22543	Eucalyptus globulus	147.51	-42.82			Stem diameter	BAAD: a biomass and allometry database for woody plants	Daniel	Falster	University of New South Wales	
4446331	49654323	22543	Eucalyptus globulus	147.51	-42.82		2000 to 2005	Plant woodiness	FRED - Fine Root Ecology Database	Colleen	Iversen		
1310459	9139367	22543	Eucalyptus globulus	147.6	-42.82		1993-11-01	Species occurrence range: climate type	Leaf Physiology Database	Jens	Kattge	Max Planck Institute for Biogeochemistry	
3019254	29511703	22543	Eucalyptus globulus	147.51	-42.82			Plant biomass and allometry: Whole plant aboveground mass	BAAD: a biomass and allometry database for woody plants	Daniel	Falster	University of New South Wales	
4446324	49654099	22543	Eucalyptus globulus	147.51	-42.82		2000 to 2005	Coarse root to fine root mass ratio	FRED - Fine Root Ecology Database	Colleen	Iversen		
3019246	29511431	22543	Eucalyptus globulus	147.51	-42.82			Plant biomass and allometry: Whole plant aboveground mass	BAAD: a biomass and allometry database for woody plants	Daniel	Falster	University of New South Wales	
3019289	29512947	22543	Eucalyptus globulus	147.51	-42.82			Plant biomass and allometry: Branch mass per plant	BAAD: a biomass and allometry database for woody plants	Daniel	Falster	University of New South Wales	
3019272	29512326	22543	Eucalyptus globulus	147.51	-42.82			Plant biomass and allometry: Leaf mass (dry or fresh) per plant	BAAD: a biomass and allometry database for woody plants	Daniel	Falster	University of New South Wales	
3019284	29512753	22543	Eucalyptus globulus	147.51	-42.82			Plant biomass and allometry: Branch mass per plant	BAAD: a biomass and allometry database for woody plants	Daniel	Falster	University of New South Wales	
3019241	29511262	22543	Eucalyptus globulus	147.51	-42.82			Plant biomass and allometry: Leaf mass (dry or fresh) per plant	BAAD: a biomass and allometry database for woody plants	Daniel	Falster	University of New South Wales	
1310472	9139744	22543	Eucalyptus globulus	147.6	-42.82		1994-04-14	Species occurrence range: climate type	Leaf Physiology Database	Jens	Kattge	Max Planck Institute for Biogeochemistry	
4404884	48144182	22543	Eucalyptus globulus	147.51	-42.82		2000 to 2005	Mycorrhiza type	FRED - Fine Root Ecology Database	Colleen	Iversen		
3019265	29512079	22543	Eucalyptus globulus	147.51	-42.82			Stem diameter	BAAD: a biomass and allometry database for woody plants	Daniel	Falster	University of New South Wales	
3019278	29512532	22543	Eucalyptus globulus	147.51	-42.82			Plant biomass and allometry: Stem cross-sectional area at base of the plant	BAAD: a biomass and allometry database for woody plants	Daniel	Falster	University of New South Wales	
3019231	29510937	22543	Eucalyptus globulus	147.51	-42.82			Stem diameter	BAAD: a biomass and allometry database for woody plants	Daniel	Falster	University of New South Wales	
4404877	48143948	22543	Eucalyptus globulus	147.51	-42.82		2000 to 2005	Leaf phenology type	FRED - Fine Root Ecology Database	Colleen	Iversen		
3019291	29513026	22543	Eucalyptus globulus	147.51	-42.82			Plant biomass and allometry: Fine root mass per plant	BAAD: a biomass and allometry database for woody plants	Daniel	Falster	University of New South Wales	
3019276	29512467	22543	Eucalyptus globulus	147.51	-42.82			Plant biomass and allometry: Stem mass (including branches) per plant	BAAD: a biomass and allometry database for woody plants	Daniel	Falster	University of New South Wales	
3019287	29512868	22543	Eucalyptus globulus	147.51	-42.82			Plant biomass and allometry: Leaf mass (dry or fresh) per plant	BAAD: a biomass and allometry database for woody plants	Daniel	Falster	University of New South Wales	
1310478	9139909	22543	Eucalyptus globulus	147.6	-42.82		1994-06-21	Plant nitrogen(N) fixation capacity	Leaf Physiology Database	Jens	Kattge	Max Planck Institute for Biogeochemistry	
3019269	29512221	22543	Eucalyptus globulus	147.51	-42.82			Plant biomass and allometry: Leaf mass (dry or fresh) per plant	BAAD: a biomass and allometry database for woody plants	Daniel	Falster	University of New South Wales	
3019282	29512674	22543	Eucalyptus globulus	147.51	-42.82			Plant biomass and allometry: Leaf mass (dry or fresh) per plant	BAAD: a biomass and allometry database for woody plants	Daniel	Falster	University of New South Wales	
3019237	29511131	22543	Eucalyptus globulus	147.51	-42.82			Plant biomass and allometry: Leaf mass (dry or fresh) per plant	BAAD: a biomass and allometry database for woody plants	Daniel	Falster	University of New South Wales	
1310469	9139637	22543	Eucalyptus globulus	147.6	-42.82		1994-04-14	Leaf photosynthesis rate per leaf area	Leaf Physiology Database	Jens	Kattge	Max Planck Institute for Biogeochemistry	
4404881	48144083	22543	Eucalyptus globulus	147.51	-42.82		2000 to 2005	Mycorrhiza type	FRED - Fine Root Ecology Database	Colleen	Iversen		
3019227	29510806	22543	Eucalyptus globulus	147.51	-42.82			Stem diameter	BAAD: a biomass and allometry database for woody plants	Daniel	Falster	University of New South Wales	
4444736	49600278	22543	Eucalyptus globulus	147.51	-42.82		2000 to 2005	Leaf photosynthesis pathway	FRED - Fine Root Ecology Database	Colleen	Iversen		
4444729	49600042	22543	Eucalyptus globulus	147.51	-42.82		2000 to 2005	Mycorrhiza type	FRED - Fine Root Ecology Database	Colleen	Iversen		
4404885	48144210	22543	Eucalyptus globulus	147.51	-42.82		2000 to 2005	Leaf photosynthesis pathway	FRED - Fine Root Ecology Database	Colleen	Iversen		
1310465	9139532	22543	Eucalyptus globulus	147.6	-42.82		1993-12-25	Plant nitrogen(N) fixation capacity	Leaf Physiology Database	Jens	Kattge	Max Planck Institute for Biogeochemistry	
3019259	29511869	22543	Eucalyptus globulus	147.51	-42.82			Stem diameter	BAAD: a biomass and allometry database for woody plants	Daniel	Falster	University of New South Wales	
4446328	49654228	22543	Eucalyptus globulus	147.51	-42.82		2000 to 2005	Coarse root to fine root mass ratio	FRED - Fine Root Ecology Database	Colleen	Iversen		
1310455	9139236	22543	Eucalyptus globulus	147.6	-42.82			Leaf photosynthesis rate per leaf area	Leaf Physiology Database	Jens	Kattge	Max Planck Institute for Biogeochemistry	
3019251	29511597	22543	Eucalyptus globulus	147.51	-42.82			Stem diameter	BAAD: a biomass and allometry database for woody plants	Daniel	Falster	University of New South Wales	
4444740	49600405	22543	Eucalyptus globulus	147.51	-42.82		2000 to 2005	Leaf type	FRED - Fine Root Ecology Database	Colleen	Iversen		
3019292	29513061	22543	Eucalyptus globulus	147.51	-42.82			Stem diameter	BAAD: a biomass and allometry database for woody plants	Daniel	Falster	University of New South Wales	
4444733	49600179	22543	Eucalyptus globulus	147.51	-42.82		2000 to 2005	Mycorrhiza type	FRED - Fine Root Ecology Database	Colleen	Iversen		
4404890	48144367	22543	Eucalyptus globulus	147.51	-42.82		2000 to 2005	Plant woodiness	FRED - Fine Root Ecology Database	Colleen	Iversen		
4446332	49654356	22543	Eucalyptus globulus	147.51	-42.82		2000 to 2005	Plant woodiness	FRED - Fine Root Ecology Database	Colleen	Iversen		
1310461	9139421	22543	Eucalyptus globulus	147.6	-42.82		1993-12-25	Plant growth form	Leaf Physiology Database	Jens	Kattge	Max Planck Institute for Biogeochemistry	
3019256	29511763	22543	Eucalyptus globulus	147.51	-42.82			Plant functional type (PFT)	BAAD: a biomass and allometry database for woody plants	Daniel	Falster	University of New South Wales	
4446326	49654154	22543	Eucalyptus globulus	147.51	-42.82		2000 to 2005	Leaf phenology type	FRED - Fine Root Ecology Database	Colleen	Iversen		
3019248	29511491	22543	Eucalyptus globulus	147.51	-42.82			Plant functional type (PFT)	BAAD: a biomass and allometry database for woody plants	Daniel	Falster	University of New South Wales	
3019273	29512362	22543	Eucalyptus globulus	147.51	-42.82			Plant biomass and allometry: Stem mass (including branches) per plant	BAAD: a biomass and allometry database for woody plants	Daniel	Falster	University of New South Wales	
3019285	29512789	22543	Eucalyptus globulus	147.51	-42.82			Plant biomass and allometry: Stem mass (including branches) per plant	BAAD: a biomass and allometry database for woody plants	Daniel	Falster	University of New South Wales	
3019243	29511323	22543	Eucalyptus globulus	147.51	-42.82			Leaf area per plant	BAAD: a biomass and allometry database for woody plants	Daniel	Falster	University of New South Wales	
1310474	9139798	22543	Eucalyptus globulus	147.6	-42.82		1994-06-21	Plant growth form	Leaf Physiology Database	Jens	Kattge	Max Planck Institute for Biogeochemistry	
3019266	29512116	22543	Eucalyptus globulus	147.51	-42.82			Plant biomass and allometry: Leaf mass (dry or fresh) per plant	BAAD: a biomass and allometry database for woody plants	Daniel	Falster	University of New South Wales	
1414969	10321574	22543	Eucalyptus globulus	147.36	-42.49			Stem sapwood cross-sectional area per supported leaf surface area (Huber value)	Global Leaf-Sapwood Area Ratios	Maurizio	Mencuccini		
3019279	29512569	22543	Eucalyptus globulus	147.51	-42.82			Plant biomass and allometry: Coarse root mass per plant	BAAD: a biomass and allometry database for woody plants	Daniel	Falster	University of New South Wales	
4446335	49654453	22543	Eucalyptus globulus	147.51	-42.82		2000 to 2005	Plant biomass and allometry: Root dry mass per plant	FRED - Fine Root Ecology Database	Colleen	Iversen		
3019233	29510999	22543	Eucalyptus globulus	147.51	-42.82			Plant biomass and allometry: Stem cross-sectional area at base of the plant	BAAD: a biomass and allometry database for woody plants	Daniel	Falster	University of New South Wales	
4404878	48143982	22543	Eucalyptus globulus	147.51	-42.82		2000 to 2005	Plant growth form	FRED - Fine Root Ecology Database	Colleen	Iversen		
4446329	49654261	22543	Eucalyptus globulus	147.51	-42.82		2000 to 2005	Coarse root to fine root mass ratio	FRED - Fine Root Ecology Database	Colleen	Iversen		
1310457	9139306	22543	Eucalyptus globulus	147.6	-42.82		1993-11-01	Leaf phenology type	Leaf Physiology Database	Jens	Kattge	Max Planck Institute for Biogeochemistry	
3019252	29511634	22543	Eucalyptus globulus	147.51	-42.82			Plant biomass and allometry: Stem mass (including branches) per plant	BAAD: a biomass and allometry database for woody plants	Daniel	Falster	University of New South Wales	
4444741	49600440	22543	Eucalyptus globulus	147.51	-42.82		2000 to 2005	Plant woodiness	FRED - Fine Root Ecology Database	Colleen	Iversen		
3019277	29512503	22543	Eucalyptus globulus	147.51	-42.82			Plant biomass and allometry: Whole plant aboveground mass	BAAD: a biomass and allometry database for woody plants	Daniel	Falster	University of New South Wales	
3019288	29512903	22543	Eucalyptus globulus	147.51	-42.82			Plant biomass and allometry: Stem cross-sectional area at breast height	BAAD: a biomass and allometry database for woody plants	Daniel	Falster	University of New South Wales	
3019270	29512257	22543	Eucalyptus globulus	147.51	-42.82			Plant biomass and allometry: Stem mass (including branches) per plant	BAAD: a biomass and allometry database for woody plants	Daniel	Falster	University of New South Wales	
3019283	29512709	22543	Eucalyptus globulus	147.51	-42.82			Plant biomass and allometry: Stem cross-sectional area at base of the plant	BAAD: a biomass and allometry database for woody plants	Daniel	Falster	University of New South Wales	
3019239	29511191	22543	Eucalyptus globulus	147.51	-42.82			Plant functional type (PFT)	BAAD: a biomass and allometry database for woody plants	Daniel	Falster	University of New South Wales	
1310470	9139683	22543	Eucalyptus globulus	147.6	-42.82		1994-04-14	Leaf phenology type	Leaf Physiology Database	Jens	Kattge	Max Planck Institute for Biogeochemistry	
4404882	48144117	22543	Eucalyptus globulus	147.51	-42.82		2000 to 2005	Plant biomass and allometry: Coarse root mass fraction (fraction of coarse root dry mass per whole p	FRED - Fine Root Ecology Database	Colleen	Iversen		
3019263	29512011	22543	Eucalyptus globulus	147.51	-42.82			Plant biomass and allometry: Leaf mass (dry or fresh) per plant	BAAD: a biomass and allometry database for woody plants	Daniel	Falster	University of New South Wales	
3019228	29510843	22543	Eucalyptus globulus	147.51	-42.82			Plant biomass and allometry: Branch mass per plant	BAAD: a biomass and allometry database for woody plants	Daniel	Falster	University of New South Wales	
3019290	29512982	22543	Eucalyptus globulus	147.51	-42.82			Stem diameter	BAAD: a biomass and allometry database for woody plants	Daniel	Falster	University of New South Wales	
4444730	49600077	22543	Eucalyptus globulus	147.51	-42.82		2000 to 2005	Plant biomass and allometry: Root dry mass per plant	FRED - Fine Root Ecology Database	Colleen	Iversen		
4404886	48144246	22543	Eucalyptus globulus	147.51	-42.82		2000 to 2005	Mycorrhiza type	FRED - Fine Root Ecology Database	Colleen	Iversen		
3019260	29511906	22543	Eucalyptus globulus	147.51	-42.82			Plant biomass and allometry: Leaf mass (dry or fresh) per plant	BAAD: a biomass and allometry database for woody plants	Daniel	Falster	University of New South Wales	
4444734	49600214	22543	Eucalyptus globulus	147.51	-42.82		2000 to 2005	Mycorrhiza type	FRED - Fine Root Ecology Database	Colleen	Iversen		
4444727	49599972	22543	Eucalyptus globulus	147.51	-42.82		2000 to 2005	Leaf photosynthesis pathway	FRED - Fine Root Ecology Database	Colleen	Iversen		
4446333	49654390	22543	Eucalyptus globulus	147.51	-42.82		2000 to 2005	Coarse root to fine root mass ratio	FRED - Fine Root Ecology Database	Colleen	Iversen		
1310462	9139453	22543	Eucalyptus globulus	147.6	-42.82		1993-12-25	Leaf type	Leaf Physiology Database	Jens	Kattge	Max Planck Institute for Biogeochemistry	
3019257	29511800	22543	Eucalyptus globulus	147.51	-42.82			Plant biomass and allometry: Stem cross-sectional area at base of the plant	BAAD: a biomass and allometry database for woody plants	Daniel	Falster	University of New South Wales	
4446327	49654187	22543	Eucalyptus globulus	147.51	-42.82		2000 to 2005	Leaf phenology type	FRED - Fine Root Ecology Database	Colleen	Iversen		
3019249	29511528	22543	Eucalyptus globulus	147.51	-42.82			Plant biomass and allometry: Stem cross-sectional area at base of the plant	BAAD: a biomass and allometry database for woody plants	Daniel	Falster	University of New South Wales	
4444737	49600316	22543	Eucalyptus globulus	147.51	-42.82		2000 to 2005	Mycorrhiza type	FRED - Fine Root Ecology Database	Colleen	Iversen		
3019274	29512398	22543	Eucalyptus globulus	147.51	-42.82			Plant biomass and allometry: Whole plant aboveground mass	BAAD: a biomass and allometry database for woody plants	Daniel	Falster	University of New South Wales	
3019286	29512824	22543	Eucalyptus globulus	147.51	-42.82			Stem diameter	BAAD: a biomass and allometry database for woody plants	Daniel	Falster	University of New South Wales	
3019244	29511359	22543	Eucalyptus globulus	147.51	-42.82			Stem diameter	BAAD: a biomass and allometry database for woody plants	Daniel	Falster	University of New South Wales	
1310475	9139830	22543	Eucalyptus globulus	147.6	-42.82		1994-06-21	Leaf type	Leaf Physiology Database	Jens	Kattge	Max Planck Institute for Biogeochemistry	
3019267	29512152	22543	Eucalyptus globulus	147.51	-42.82			Plant biomass and allometry: Stem mass (including branches) per plant	BAAD: a biomass and allometry database for woody plants	Daniel	Falster	University of New South Wales	
3019281	29512629	22543	Eucalyptus globulus	147.51	-42.82			Plant functional type (PFT)	BAAD: a biomass and allometry database for woody plants	Daniel	Falster	University of New South Wales	
4446337	49654508	22543	Eucalyptus globulus	147.51	-42.82		2000 to 2005	Leaf type	FRED - Fine Root Ecology Database	Colleen	Iversen		
3019235	29511060	22543	Eucalyptus globulus	147.51	-42.82			Plant functional type (PFT)	BAAD: a biomass and allometry database for woody plants	Daniel	Falster	University of New South Wales	
1310466	9139568	22543	Eucalyptus globulus	147.6	-42.82		1993-12-25	Leaf photosynthesis pathway	Leaf Physiology Database	Jens	Kattge	Max Planck Institute for Biogeochemistry	
4404879	48144018	22543	Eucalyptus globulus	147.51	-42.82		2000 to 2005	Plant biomass and allometry: Coarse root mass fraction (fraction of coarse root dry mass per whole p	FRED - Fine Root Ecology Database	Colleen	Iversen		
3019261	29511942	22543	Eucalyptus globulus	147.51	-42.82			Plant biomass and allometry: Stem mass (including branches) per plant	BAAD: a biomass and allometry database for woody plants	Daniel	Falster	University of New South Wales	
4446330	49654294	22543	Eucalyptus globulus	147.51	-42.82		2000 to 2005	Coarse root to fine root mass ratio	FRED - Fine Root Ecology Database	Colleen	Iversen		
1310458	9139338	22543	Eucalyptus globulus	147.6	-42.82		1993-11-01	Species occurrence range: climate type	Leaf Physiology Database	Jens	Kattge	Max Planck Institute for Biogeochemistry	
3019253	29511670	22543	Eucalyptus globulus	147.51	-42.82			Plant biomass and allometry: Branch mass per plant	BAAD: a biomass and allometry database for woody plants	Daniel	Falster	University of New South Wales	
4446323	49654069	22543	Eucalyptus globulus	147.51	-42.82		2000 to 2005	Plant biomass and allometry: Root dry mass per plant	FRED - Fine Root Ecology Database	Colleen	Iversen		
3019289	29512939	22543	Eucalyptus globulus	147.51	-42.82			Plant biomass and allometry: Wood (sapwood) cross-sectional area at base	BAAD: a biomass and allometry database for woody plants	Daniel	Falster	University of New South Wales	
3019271	29512293	22543	Eucalyptus globulus	147.51	-42.82			Plant biomass and allometry: Whole plant aboveground mass	BAAD: a biomass and allometry database for woody plants	Daniel	Falster	University of New South Wales	
3019284	29512744	22543	Eucalyptus globulus	147.51	-42.82			Plant functional type (PFT)	BAAD: a biomass and allometry database for woody plants	Daniel	Falster	University of New South Wales	
3019240	29511228	22543	Eucalyptus globulus	147.51	-42.82			Stem diameter	BAAD: a biomass and allometry database for woody plants	Daniel	Falster	University of New South Wales	
1310471	9139715	22543	Eucalyptus globulus	147.6	-42.82		1994-04-14	Species occurrence range: climate type	Leaf Physiology Database	Jens	Kattge	Max Planck Institute for Biogeochemistry	
4404883	48144151	22543	Eucalyptus globulus	147.51	-42.82		2000 to 2005	Plant biomass and allometry: Coarse root dry mass per plant	FRED - Fine Root Ecology Database	Colleen	Iversen		
3019264	29512047	22543	Eucalyptus globulus	147.51	-42.82			Plant biomass and allometry: Stem mass (including branches) per plant	BAAD: a biomass and allometry database for woody plants	Daniel	Falster	University of New South Wales	
3019230	29510904	22543	Eucalyptus globulus	147.51	-42.82			Plant height vegetative	BAAD: a biomass and allometry database for woody plants	Daniel	Falster	University of New South Wales	
4404876	48143917	22543	Eucalyptus globulus	147.51	-42.82		2000 to 2005	Leaf phenology type	FRED - Fine Root Ecology Database	Colleen	Iversen		
3019291	29513018	22543	Eucalyptus globulus	147.51	-42.82			Plant biomass and allometry: Wood (sapwood) cross-sectional area at breast height	BAAD: a biomass and allometry database for woody plants	Daniel	Falster	University of New South Wales	
4444731	49600112	22543	Eucalyptus globulus	147.51	-42.82		2000 to 2005	Plant biomass and allometry: Root dry mass per plant	FRED - Fine Root Ecology Database	Colleen	Iversen		
4404888	48144302	22543	Eucalyptus globulus	147.51	-42.82		2000 to 2005	Leaf type	FRED - Fine Root Ecology Database	Colleen	Iversen		
3019245	29511396	22543	Eucalyptus globulus	147.51	-42.82			Plant biomass and allometry: Stem mass (including branches) per plant	BAAD: a biomass and allometry database for woody plants	Daniel	Falster	University of New South Wales	
1310477	9139880	22543	Eucalyptus globulus	147.6	-42.82		1994-06-21	Plant nitrogen(N) fixation capacity	Leaf Physiology Database	Jens	Kattge	Max Planck Institute for Biogeochemistry	
3019268	29512188	22543	Eucalyptus globulus	147.51	-42.82			Plant biomass and allometry: Whole plant aboveground mass	BAAD: a biomass and allometry database for woody plants	Daniel	Falster	University of New South Wales	
3019281	29512641	22543	Eucalyptus globulus	147.51	-42.82			Plant biomass and allometry: Coarse root mass per plant	BAAD: a biomass and allometry database for woody plants	Daniel	Falster	University of New South Wales	
3019236	29511097	22543	Eucalyptus globulus	147.51	-42.82			Stem diameter	BAAD: a biomass and allometry database for woody plants	Daniel	Falster	University of New South Wales	
1310468	9139608	22543	Eucalyptus globulus	147.6	-42.82		1994-04-14	Leaf photosynthesis rate per leaf area	Leaf Physiology Database	Jens	Kattge	Max Planck Institute for Biogeochemistry	
4404880	48144052	22543	Eucalyptus globulus	147.51	-42.82		2000 to 2005	Plant biomass and allometry: Coarse root dry mass per plant	FRED - Fine Root Ecology Database	Colleen	Iversen		
3019226	29510773	22543	Eucalyptus globulus	147.51	-42.82			Plant height vegetative	BAAD: a biomass and allometry database for woody plants	Daniel	Falster	University of New South Wales	
4444735	49600249	22543	Eucalyptus globulus	147.51	-42.82		2000 to 2005	Mycorrhiza type	FRED - Fine Root Ecology Database	Colleen	Iversen		
4444728	49600010	22543	Eucalyptus globulus	147.51	-42.82		2000 to 2005	Mycorrhiza type	FRED - Fine Root Ecology Database	Colleen	Iversen		
1310464	9139503	22543	Eucalyptus globulus	147.6	-42.82		1993-12-25	Plant nitrogen(N) fixation capacity	Leaf Physiology Database	Jens	Kattge	Max Planck Institute for Biogeochemistry	
3019258	29511837	22543	Eucalyptus globulus	147.51	-42.82			Plant biomass and allometry: Leaf mass (dry or fresh) per plant	BAAD: a biomass and allometry database for woody plants	Daniel	Falster	University of New South Wales	
4446328	49654220	22543	Eucalyptus globulus	147.51	-42.82		2000 to 2005	Leaf phenology type	FRED - Fine Root Ecology Database	Colleen	Iversen		
3019250	29511565	22543	Eucalyptus globulus	147.51	-42.82			Plant biomass and allometry: Leaf mass (dry or fresh) per plant	BAAD: a biomass and allometry database for woody plants	Daniel	Falster	University of New South Wales	
4444739	49600373	22543	Eucalyptus globulus	147.51	-42.82		2000 to 2005	Leaf type	FRED - Fine Root Ecology Database	Colleen	Iversen		
3019275	29512434	22543	Eucalyptus globulus	147.51	-42.82			Plant biomass and allometry: Branch mass per plant	BAAD: a biomass and allometry database for woody plants	Daniel	Falster	University of New South Wales	
3019287	29512860	22543	Eucalyptus globulus	147.51	-42.82			Leaf area per plant	BAAD: a biomass and allometry database for woody plants	Daniel	Falster	University of New South Wales	
4444732	49600147	22543	Eucalyptus globulus	147.51	-42.82		2000 to 2005	Plant biomass and allometry: Root dry mass per plant	FRED - Fine Root Ecology Database	Colleen	Iversen		
4404889	48144336	22543	Eucalyptus globulus	147.51	-42.82		2000 to 2005	Plant woodiness	FRED - Fine Root Ecology Database	Colleen	Iversen		
3019262	29511978	22543	Eucalyptus globulus	147.51	-42.82			Plant biomass and allometry: Whole plant aboveground mass	BAAD: a biomass and allometry database for woody plants	Daniel	Falster	University of New South Wales	
4446331	49654327	22543	Eucalyptus globulus	147.51	-42.82		2000 to 2005	Coarse root to fine root mass ratio	FRED - Fine Root Ecology Database	Colleen	Iversen		
1310460	9139392	22543	Eucalyptus globulus	147.6	-42.82		1993-11-01	Plant growth form	Leaf Physiology Database	Jens	Kattge	Max Planck Institute for Biogeochemistry	
3019255	29511731	22543	Eucalyptus globulus	147.51	-42.82			Leaf area per plant	BAAD: a biomass and allometry database for woody plants	Daniel	Falster	University of New South Wales	
4446325	49654124	22543	Eucalyptus globulus	147.51	-42.82		2000 to 2005	Leaf type	FRED - Fine Root Ecology Database	Colleen	Iversen		
3019247	29511459	22543	Eucalyptus globulus	147.51	-42.82			Leaf area per plant	BAAD: a biomass and allometry database for woody plants	Daniel	Falster	University of New South Wales	
3019289	29512950	22543	Eucalyptus globulus	147.51	-42.82			Plant biomass and allometry: Root mass per plant	BAAD: a biomass and allometry database for woody plants	Daniel	Falster	University of New South Wales	
3019272	29512329	22543	Eucalyptus globulus	147.51	-42.82			Plant biomass and allometry: Branch mass per plant	BAAD: a biomass and allometry database for woody plants	Daniel	Falster	University of New South Wales	
3019284	29512756	22543	Eucalyptus globulus	147.51	-42.82			Plant biomass and allometry: Root mass per plant	BAAD: a biomass and allometry database for woody plants	Daniel	Falster	University of New South Wales	
3019242	29511290	22543	Eucalyptus globulus	147.51	-42.82			Plant biomass and allometry: Stem cross-sectional area at base of the plant	BAAD: a biomass and allometry database for woody plants	Daniel	Falster	University of New South Wales	
1310473	9139769	22543	Eucalyptus globulus	147.6	-42.82		1994-04-14	Plant growth form	Leaf Physiology Database	Jens	Kattge	Max Planck Institute for Biogeochemistry	
4404884	48144198	22543	Eucalyptus globulus	147.51	-42.82		2000 to 2005	Plant biomass and allometry: Leaf dry mass per plant	FRED - Fine Root Ecology Database	Colleen	Iversen		
3019265	29512083	22543	Eucalyptus globulus	147.51	-42.82			Plant biomass and allometry: Whole plant aboveground mass	BAAD: a biomass and allometry database for woody plants	Daniel	Falster	University of New South Wales	
3019278	29512536	22543	Eucalyptus globulus	147.51	-42.82			Plant biomass and allometry: Coarse root mass per plant	BAAD: a biomass and allometry database for woody plants	Daniel	Falster	University of New South Wales	
4446335	49654445	22543	Eucalyptus globulus	147.51	-42.82		2000 to 2005	Leaf phenology type	FRED - Fine Root Ecology Database	Colleen	Iversen		
3019232	29510966	22543	Eucalyptus globulus	147.51	-42.82			Leaf area per plant	BAAD: a biomass and allometry database for woody plants	Daniel	Falster	University of New South Wales	
4404877	48143951	22543	Eucalyptus globulus	147.51	-42.82		2000 to 2005	Plant growth form	FRED - Fine Root Ecology Database	Colleen	Iversen		
3019292	29513053	22543	Eucalyptus globulus	147.51	-42.82			Plant functional type (PFT)	BAAD: a biomass and allometry database for woody plants	Daniel	Falster	University of New South Wales	
3019277	29512494	22543	Eucalyptus globulus	147.51	-42.82			Plant functional type (PFT)	BAAD: a biomass and allometry database for woody plants	Daniel	Falster	University of New South Wales	
3019287	29512871	22543	Eucalyptus globulus	147.51	-42.82			Plant biomass and allometry: Coarse root mass per plant	BAAD: a biomass and allometry database for woody plants	Daniel	Falster	University of New South Wales	
1310478	9139916	22543	Eucalyptus globulus	147.6	-42.82		1994-06-21	Leaf photosynthesis pathway	Leaf Physiology Database	Jens	Kattge	Max Planck Institute for Biogeochemistry	
3019269	29512224	22543	Eucalyptus globulus	147.51	-42.82			Plant biomass and allometry: Branch mass per plant	BAAD: a biomass and allometry database for woody plants	Daniel	Falster	University of New South Wales	
3019282	29512677	22543	Eucalyptus globulus	147.51	-42.82			Plant biomass and allometry: Branch mass per plant	BAAD: a biomass and allometry database for woody plants	Daniel	Falster	University of New South Wales	
3019238	29511159	22543	Eucalyptus globulus	147.51	-42.82			Plant biomass and allometry: Stem cross-sectional area at base of the plant	BAAD: a biomass and allometry database for woody plants	Daniel	Falster	University of New South Wales	
1310469	9139654	22543	Eucalyptus globulus	147.6	-42.82		1994-04-14	Leaf phenology type	Leaf Physiology Database	Jens	Kattge	Max Planck Institute for Biogeochemistry	
4404881	48144099	22543	Eucalyptus globulus	147.51	-42.82		2000 to 2005	Plant biomass and allometry: Leaf dry mass per plant	FRED - Fine Root Ecology Database	Colleen	Iversen		
3019228	29510835	22543	Eucalyptus globulus	147.51	-42.82			Leaf area per plant	BAAD: a biomass and allometry database for woody plants	Daniel	Falster	University of New South Wales	
4444736	49600284	22543	Eucalyptus globulus	147.51	-42.82		2000 to 2005	Mycorrhiza type	FRED - Fine Root Ecology Database	Colleen	Iversen		
4444730	49600067	22543	Eucalyptus globulus	147.51	-42.82		2000 to 2005	Leaf type	FRED - Fine Root Ecology Database	Colleen	Iversen		
4404885	48144215	22543	Eucalyptus globulus	147.51	-42.82		2000 to 2005	Mycorrhiza type	FRED - Fine Root Ecology Database	Colleen	Iversen		
3019259	29511873	22543	Eucalyptus globulus	147.51	-42.82			Plant biomass and allometry: Whole plant aboveground mass	BAAD: a biomass and allometry database for woody plants	Daniel	Falster	University of New South Wales	
4446329	49654253	22543	Eucalyptus globulus	147.51	-42.82		2000 to 2005	Leaf phenology type	FRED - Fine Root Ecology Database	Colleen	Iversen		
1310455	9139250	22543	Eucalyptus globulus	147.6	-42.82			Leaf phenology type	Leaf Physiology Database	Jens	Kattge	Max Planck Institute for Biogeochemistry	
3019251	29511601	22543	Eucalyptus globulus	147.51	-42.82			Plant biomass and allometry: Whole plant aboveground mass	BAAD: a biomass and allometry database for woody plants	Daniel	Falster	University of New South Wales	
4444740	49600408	22543	Eucalyptus globulus	147.51	-42.82		2000 to 2005	Plant woodiness	FRED - Fine Root Ecology Database	Colleen	Iversen		
3019292	29513065	22543	Eucalyptus globulus	147.51	-42.82			Plant biomass and allometry: Fine root mass per plant	BAAD: a biomass and allometry database for woody plants	Daniel	Falster	University of New South Wales	
4444733	49600182	22543	Eucalyptus globulus	147.51	-42.82		2000 to 2005	Plant biomass and allometry: Root dry mass per plant	FRED - Fine Root Ecology Database	Colleen	Iversen		
4446332	49654360	22543	Eucalyptus globulus	147.51	-42.82		2000 to 2005	Plant biomass and allometry: Root dry mass per plant	FRED - Fine Root Ecology Database	Colleen	Iversen		
1310461	9139424	22543	Eucalyptus globulus	147.6	-42.82		1993-12-25	Leaf type	Leaf Physiology Database	Jens	Kattge	Max Planck Institute for Biogeochemistry	
3019256	29511767	22543	Eucalyptus globulus	147.51	-42.82			Stem diameter	BAAD: a biomass and allometry database for woody plants	Daniel	Falster	University of New South Wales	
4446326	49654157	22543	Eucalyptus globulus	147.51	-42.82		2000 to 2005	Plant growth form	FRED - Fine Root Ecology Database	Colleen	Iversen		
3019248	29511495	22543	Eucalyptus globulus	147.51	-42.82			Stem diameter	BAAD: a biomass and allometry database for woody plants	Daniel	Falster	University of New South Wales	
3019274	29512389	22543	Eucalyptus globulus	147.51	-42.82			Plant functional type (PFT)	BAAD: a biomass and allometry database for woody plants	Daniel	Falster	University of New South Wales	
3019285	29512792	22543	Eucalyptus globulus	147.51	-42.82			Plant biomass and allometry: Fine root mass per plant	BAAD: a biomass and allometry database for woody plants	Daniel	Falster	University of New South Wales	
3019243	29511327	22543	Eucalyptus globulus	147.51	-42.82			Plant biomass and allometry: Leaf mass (dry or fresh) per plant	BAAD: a biomass and allometry database for woody plants	Daniel	Falster	University of New South Wales	
1310474	9139801	22543	Eucalyptus globulus	147.6	-42.82		1994-06-21	Leaf type	Leaf Physiology Database	Jens	Kattge	Max Planck Institute for Biogeochemistry	
3019266	29512119	22543	Eucalyptus globulus	147.51	-42.82			Plant biomass and allometry: Branch mass per plant	BAAD: a biomass and allometry database for woody plants	Daniel	Falster	University of New South Wales	
3019280	29512597	22543	Eucalyptus globulus	147.51	-42.82			Leaf area per plant	BAAD: a biomass and allometry database for woody plants	Daniel	Falster	University of New South Wales	
4446336	49654478	22543	Eucalyptus globulus	147.51	-42.82		2000 to 2005	Leaf photosynthesis pathway	FRED - Fine Root Ecology Database	Colleen	Iversen		
3019233	29511003	22543	Eucalyptus globulus	147.51	-42.82			Plant biomass and allometry: Leaf mass (dry or fresh) per plant	BAAD: a biomass and allometry database for woody plants	Daniel	Falster	University of New South Wales	
1310465	9139539	22543	Eucalyptus globulus	147.6	-42.82		1993-12-25	Leaf photosynthesis pathway	Leaf Physiology Database	Jens	Kattge	Max Planck Institute for Biogeochemistry	
4404878	48143987	22543	Eucalyptus globulus	147.51	-42.82		2000 to 2005	Plant biomass and allometry: Coarse root dry mass per plant	FRED - Fine Root Ecology Database	Colleen	Iversen		
3019260	29511909	22543	Eucalyptus globulus	147.51	-42.82			Plant biomass and allometry: Branch mass per plant	BAAD: a biomass and allometry database for woody plants	Daniel	Falster	University of New South Wales	
4446330	49654286	22543	Eucalyptus globulus	147.51	-42.82		2000 to 2005	Leaf phenology type	FRED - Fine Root Ecology Database	Colleen	Iversen		
3019225	29510740	22543	Eucalyptus globulus	147.51	-42.82			Plant biomass and allometry: Stem cross-sectional area at base of the plant	BAAD: a biomass and allometry database for woody plants	Daniel	Falster	University of New South Wales	
1310457	9139309	22543	Eucalyptus globulus	147.6	-42.82		1993-11-01	Species occurrence range: climate type	Leaf Physiology Database	Jens	Kattge	Max Planck Institute for Biogeochemistry	
3019253	29511661	22543	Eucalyptus globulus	147.51	-42.82			Plant functional type (PFT)	BAAD: a biomass and allometry database for woody plants	Daniel	Falster	University of New South Wales	
4446323	49654061	22543	Eucalyptus globulus	147.51	-42.82		2000 to 2005	Leaf phenology type	FRED - Fine Root Ecology Database	Colleen	Iversen		
3019288	29512907	22543	Eucalyptus globulus	147.51	-42.82			Plant biomass and allometry: Leaf mass (dry or fresh) per plant	BAAD: a biomass and allometry database for woody plants	Daniel	Falster	University of New South Wales	
3019271	29512284	22543	Eucalyptus globulus	147.51	-42.82			Plant functional type (PFT)	BAAD: a biomass and allometry database for woody plants	Daniel	Falster	University of New South Wales	
3019283	29512713	22543	Eucalyptus globulus	147.51	-42.82			Plant biomass and allometry: Stem mass (including branches) per plant	BAAD: a biomass and allometry database for woody plants	Daniel	Falster	University of New South Wales	
3019239	29511195	22543	Eucalyptus globulus	147.51	-42.82			Plant height vegetative	BAAD: a biomass and allometry database for woody plants	Daniel	Falster	University of New South Wales	
1310470	9139686	22543	Eucalyptus globulus	147.6	-42.82		1994-04-14	Species occurrence range: climate type	Leaf Physiology Database	Jens	Kattge	Max Planck Institute for Biogeochemistry	
4404883	48144142	22543	Eucalyptus globulus	147.51	-42.82		2000 to 2005	Leaf phenology type	FRED - Fine Root Ecology Database	Colleen	Iversen		
3019263	29512014	22543	Eucalyptus globulus	147.51	-42.82			Plant biomass and allometry: Branch mass per plant	BAAD: a biomass and allometry database for woody plants	Daniel	Falster	University of New South Wales	
3019229	29510871	22543	Eucalyptus globulus	147.51	-42.82			Plant biomass and allometry: Stem cross-sectional area at base of the plant	BAAD: a biomass and allometry database for woody plants	Daniel	Falster	University of New South Wales	
3019290	29512986	22543	Eucalyptus globulus	147.51	-42.82			Plant biomass and allometry: Branch mass per plant	BAAD: a biomass and allometry database for woody plants	Daniel	Falster	University of New South Wales	
4444731	49600102	22543	Eucalyptus globulus	147.51	-42.82		2000 to 2005	Leaf type	FRED - Fine Root Ecology Database	Colleen	Iversen		
4404887	48144271	22543	Eucalyptus globulus	147.51	-42.82		2000 to 2005	Leaf type	FRED - Fine Root Ecology Database	Colleen	Iversen		
1310467	9139579	22543	Eucalyptus globulus	147.6	-42.82		1993-12-25	Leaf photosynthesis rate per leaf area	Leaf Physiology Database	Jens	Kattge	Max Planck Institute for Biogeochemistry	
4404880	48144043	22543	Eucalyptus globulus	147.51	-42.82		2000 to 2005	Leaf phenology type	FRED - Fine Root Ecology Database	Colleen	Iversen		
4444734	49600217	22543	Eucalyptus globulus	147.51	-42.82		2000 to 2005	Plant biomass and allometry: Root dry mass per plant	FRED - Fine Root Ecology Database	Colleen	Iversen		
4444727	49599978	22543	Eucalyptus globulus	147.51	-42.82		2000 to 2005	Mycorrhiza type	FRED - Fine Root Ecology Database	Colleen	Iversen		
4446334	49654415	22543	Eucalyptus globulus	147.51	-42.82		2000 to 2005	Leaf type	FRED - Fine Root Ecology Database	Colleen	Iversen		
1310463	9139474	22543	Eucalyptus globulus	147.6	-42.82		1993-12-25	Plant nitrogen(N) fixation capacity	Leaf Physiology Database	Jens	Kattge	Max Planck Institute for Biogeochemistry	
3019257	29511804	22543	Eucalyptus globulus	147.51	-42.82			Plant biomass and allometry: Stem mass (including branches) per plant	BAAD: a biomass and allometry database for woody plants	Daniel	Falster	University of New South Wales	
4446327	49654190	22543	Eucalyptus globulus	147.51	-42.82		2000 to 2005	Plant growth form	FRED - Fine Root Ecology Database	Colleen	Iversen		
3019249	29511532	22543	Eucalyptus globulus	147.51	-42.82			Plant biomass and allometry: Stem mass (including branches) per plant	BAAD: a biomass and allometry database for woody plants	Daniel	Falster	University of New South Wales	
4444738	49600341	22543	Eucalyptus globulus	147.51	-42.82		2000 to 2005	Leaf type	FRED - Fine Root Ecology Database	Colleen	Iversen		
3019275	29512426	22543	Eucalyptus globulus	147.51	-42.82			Leaf area per plant	BAAD: a biomass and allometry database for woody plants	Daniel	Falster	University of New South Wales	
3019286	29512828	22543	Eucalyptus globulus	147.51	-42.82			Plant biomass and allometry: Whole plant aboveground mass	BAAD: a biomass and allometry database for woody plants	Daniel	Falster	University of New South Wales	
3019244	29511363	22543	Eucalyptus globulus	147.51	-42.82			Plant biomass and allometry: Whole plant aboveground mass	BAAD: a biomass and allometry database for woody plants	Daniel	Falster	University of New South Wales	
1310476	9139851	22543	Eucalyptus globulus	147.6	-42.82		1994-06-21	Plant nitrogen(N) fixation capacity	Leaf Physiology Database	Jens	Kattge	Max Planck Institute for Biogeochemistry	
3019268	29512179	22543	Eucalyptus globulus	147.51	-42.82			Plant functional type (PFT)	BAAD: a biomass and allometry database for woody plants	Daniel	Falster	University of New South Wales	
3019281	29512633	22543	Eucalyptus globulus	147.51	-42.82			Plant biomass and allometry: Stem cross-sectional area at base of the plant	BAAD: a biomass and allometry database for woody plants	Daniel	Falster	University of New South Wales	
4446337	49654511	22543	Eucalyptus globulus	147.51	-42.82		2000 to 2005	Plant woodiness	FRED - Fine Root Ecology Database	Colleen	Iversen		
3019235	29511064	22543	Eucalyptus globulus	147.51	-42.82			Plant height vegetative	BAAD: a biomass and allometry database for woody plants	Daniel	Falster	University of New South Wales	
4404888	48144305	22543	Eucalyptus globulus	147.51	-42.82		2000 to 2005	Plant woodiness	FRED - Fine Root Ecology Database	Colleen	Iversen		
3019262	29511969	22543	Eucalyptus globulus	147.51	-42.82			Plant functional type (PFT)	BAAD: a biomass and allometry database for woody plants	Daniel	Falster	University of New South Wales	
4446331	49654319	22543	Eucalyptus globulus	147.51	-42.82		2000 to 2005	Leaf phenology type	FRED - Fine Root Ecology Database	Colleen	Iversen		
1310459	9139363	22543	Eucalyptus globulus	147.6	-42.82		1993-11-01	Plant growth form	Leaf Physiology Database	Jens	Kattge	Max Planck Institute for Biogeochemistry	
3019254	29511698	22543	Eucalyptus globulus	147.51	-42.82			Plant biomass and allometry: Stem cross-sectional area at base of the plant	BAAD: a biomass and allometry database for woody plants	Daniel	Falster	University of New South Wales	
4446324	49654094	22543	Eucalyptus globulus	147.51	-42.82		2000 to 2005	Leaf photosynthesis pathway	FRED - Fine Root Ecology Database	Colleen	Iversen		
3019246	29511426	22543	Eucalyptus globulus	147.51	-42.82			Plant biomass and allometry: Stem cross-sectional area at base of the plant	BAAD: a biomass and allometry database for woody plants	Daniel	Falster	University of New South Wales	
3019289	29512942	22543	Eucalyptus globulus	147.51	-42.82			Plant biomass and allometry: Stem cross-sectional area at breast height	BAAD: a biomass and allometry database for woody plants	Daniel	Falster	University of New South Wales	
3019272	29512321	22543	Eucalyptus globulus	147.51	-42.82			Leaf area per plant	BAAD: a biomass and allometry database for woody plants	Daniel	Falster	University of New South Wales	
3019284	29512748	22543	Eucalyptus globulus	147.51	-42.82			Stem diameter	BAAD: a biomass and allometry database for woody plants	Daniel	Falster	University of New South Wales	
3019241	29511257	22543	Eucalyptus globulus	147.51	-42.82			Leaf area per plant	BAAD: a biomass and allometry database for woody plants	Daniel	Falster	University of New South Wales	
1310472	9139740	22543	Eucalyptus globulus	147.6	-42.82		1994-04-14	Plant growth form	Leaf Physiology Database	Jens	Kattge	Max Planck Institute for Biogeochemistry	
4404884	48144176	22543	Eucalyptus globulus	147.51	-42.82		2000 to 2005	Leaf type	FRED - Fine Root Ecology Database	Colleen	Iversen		
3019265	29512074	22543	Eucalyptus globulus	147.51	-42.82			Plant functional type (PFT)	BAAD: a biomass and allometry database for woody plants	Daniel	Falster	University of New South Wales	
3019231	29510932	22543	Eucalyptus globulus	147.51	-42.82			Plant functional type (PFT)	BAAD: a biomass and allometry database for woody plants	Daniel	Falster	University of New South Wales	
4404876	48143920	22543	Eucalyptus globulus	147.51	-42.82		2000 to 2005	Plant growth form	FRED - Fine Root Ecology Database	Colleen	Iversen		
3019291	29513021	22543	Eucalyptus globulus	147.51	-42.82			Stem diameter	BAAD: a biomass and allometry database for woody plants	Daniel	Falster	University of New South Wales	
4444732	49600137	22543	Eucalyptus globulus	147.51	-42.82		2000 to 2005	Leaf type	FRED - Fine Root Ecology Database	Colleen	Iversen		
3019276	29512462	22543	Eucalyptus globulus	147.51	-42.82			Plant biomass and allometry: Wood (sapwood) cross-sectional area at base	BAAD: a biomass and allometry database for woody plants	Daniel	Falster	University of New South Wales	
3019287	29512863	22543	Eucalyptus globulus	147.51	-42.82			Plant biomass and allometry: Stem cross-sectional area at base of the plant	BAAD: a biomass and allometry database for woody plants	Daniel	Falster	University of New South Wales	
3019246	29511423	22543	Eucalyptus globulus	147.51	-42.82			Plant functional type (PFT)	BAAD: a biomass and allometry database for woody plants	Daniel	Falster	University of New South Wales	
1310477	9139887	22543	Eucalyptus globulus	147.6	-42.82		1994-06-21	Leaf photosynthesis pathway	Leaf Physiology Database	Jens	Kattge	Max Planck Institute for Biogeochemistry	
3019269	29512216	22543	Eucalyptus globulus	147.51	-42.82			Leaf area per plant	BAAD: a biomass and allometry database for woody plants	Daniel	Falster	University of New South Wales	
3019282	29512668	22543	Eucalyptus globulus	147.51	-42.82			Plant functional type (PFT)	BAAD: a biomass and allometry database for woody plants	Daniel	Falster	University of New South Wales	
3019237	29511126	22543	Eucalyptus globulus	147.51	-42.82			Leaf area per plant	BAAD: a biomass and allometry database for woody plants	Daniel	Falster	University of New South Wales	
1310468	9139625	22543	Eucalyptus globulus	147.6	-42.82		1994-04-14	Leaf phenology type	Leaf Physiology Database	Jens	Kattge	Max Planck Institute for Biogeochemistry	
4404881	48144077	22543	Eucalyptus globulus	147.51	-42.82		2000 to 2005	Leaf type	FRED - Fine Root Ecology Database	Colleen	Iversen		
3019227	29510801	22543	Eucalyptus globulus	147.51	-42.82			Plant functional type (PFT)	BAAD: a biomass and allometry database for woody plants	Daniel	Falster	University of New South Wales	
4444735	49600252	22543	Eucalyptus globulus	147.51	-42.82		2000 to 2005	Plant biomass and allometry: Root dry mass per plant	FRED - Fine Root Ecology Database	Colleen	Iversen		
4444729	49600035	22543	Eucalyptus globulus	147.51	-42.82		2000 to 2005	Leaf type	FRED - Fine Root Ecology Database	Colleen	Iversen		
1310464	9139510	22543	Eucalyptus globulus	147.6	-42.82		1993-12-25	Leaf photosynthesis pathway	Leaf Physiology Database	Jens	Kattge	Max Planck Institute for Biogeochemistry	
3019258	29511840	22543	Eucalyptus globulus	147.51	-42.82			Plant biomass and allometry: Branch mass per plant	BAAD: a biomass and allometry database for woody plants	Daniel	Falster	University of New South Wales	
4446328	49654223	22543	Eucalyptus globulus	147.51	-42.82		2000 to 2005	Plant growth form	FRED - Fine Root Ecology Database	Colleen	Iversen		
3019250	29511568	22543	Eucalyptus globulus	147.51	-42.82			Plant biomass and allometry: Branch mass per plant	BAAD: a biomass and allometry database for woody plants	Daniel	Falster	University of New South Wales	
4444739	49600376	22543	Eucalyptus globulus	147.51	-42.82		2000 to 2005	Plant woodiness	FRED - Fine Root Ecology Database	Colleen	Iversen		
4444733	49600172	22543	Eucalyptus globulus	147.51	-42.82		2000 to 2005	Leaf type	FRED - Fine Root Ecology Database	Colleen	Iversen		
4404890	48144363	22543	Eucalyptus globulus	147.51	-42.82		2000 to 2005	Leaf phenology type	FRED - Fine Root Ecology Database	Colleen	Iversen		
4446332	49654352	22543	Eucalyptus globulus	147.51	-42.82		2000 to 2005	Leaf phenology type	FRED - Fine Root Ecology Database	Colleen	Iversen		
1310460	9139395	22543	Eucalyptus globulus	147.6	-42.82		1993-11-01	Leaf type	Leaf Physiology Database	Jens	Kattge	Max Planck Institute for Biogeochemistry	
3019255	29511735	22543	Eucalyptus globulus	147.51	-42.82			Plant biomass and allometry: Leaf mass (dry or fresh) per plant	BAAD: a biomass and allometry database for woody plants	Daniel	Falster	University of New South Wales	
4446325	49654127	22543	Eucalyptus globulus	147.51	-42.82		2000 to 2005	Plant woodiness	FRED - Fine Root Ecology Database	Colleen	Iversen		
3019247	29511463	22543	Eucalyptus globulus	147.51	-42.82			Plant biomass and allometry: Leaf mass (dry or fresh) per plant	BAAD: a biomass and allometry database for woody plants	Daniel	Falster	University of New South Wales	
3019290	29512978	22543	Eucalyptus globulus	147.51	-42.82			Plant biomass and allometry: Wood (sapwood) cross-sectional area at base	BAAD: a biomass and allometry database for woody plants	Daniel	Falster	University of New South Wales	
3019273	29512357	22543	Eucalyptus globulus	147.51	-42.82			Plant biomass and allometry: Wood (sapwood) cross-sectional area at base	BAAD: a biomass and allometry database for woody plants	Daniel	Falster	University of New South Wales	
3019285	29512784	22543	Eucalyptus globulus	147.51	-42.82			Leaf area per plant	BAAD: a biomass and allometry database for woody plants	Daniel	Falster	University of New South Wales	
3019242	29511294	22543	Eucalyptus globulus	147.51	-42.82			Plant biomass and allometry: Stem mass (including branches) per plant	BAAD: a biomass and allometry database for woody plants	Daniel	Falster	University of New South Wales	
1310473	9139772	22543	Eucalyptus globulus	147.6	-42.82		1994-04-14	Leaf type	Leaf Physiology Database	Jens	Kattge	Max Planck Institute for Biogeochemistry	
3019266	29512111	22543	Eucalyptus globulus	147.51	-42.82			Leaf area per plant	BAAD: a biomass and allometry database for woody plants	Daniel	Falster	University of New South Wales	
3019279	29512564	22543	Eucalyptus globulus	147.51	-42.82			Leaf area per plant	BAAD: a biomass and allometry database for woody plants	Daniel	Falster	University of New South Wales	
4446335	49654448	22543	Eucalyptus globulus	147.51	-42.82		2000 to 2005	Plant growth form	FRED - Fine Root Ecology Database	Colleen	Iversen		
3019232	29510969	22543	Eucalyptus globulus	147.51	-42.82			Stem diameter	BAAD: a biomass and allometry database for woody plants	Daniel	Falster	University of New South Wales	
4404877	48143956	22543	Eucalyptus globulus	147.51	-42.82		2000 to 2005	Plant biomass and allometry: Coarse root dry mass per plant	FRED - Fine Root Ecology Database	Colleen	Iversen		
3019292	29513057	22543	Eucalyptus globulus	147.51	-42.82			Plant biomass and allometry: Wood (sapwood) cross-sectional area at breast height	BAAD: a biomass and allometry database for woody plants	Daniel	Falster	University of New South Wales	
4444741	49600436	22543	Eucalyptus globulus	147.51	-42.82		2000 to 2005	Leaf phenology type	FRED - Fine Root Ecology Database	Colleen	Iversen		
3019277	29512498	22543	Eucalyptus globulus	147.51	-42.82			Plant biomass and allometry: Stem cross-sectional area at base of the plant	BAAD: a biomass and allometry database for woody plants	Daniel	Falster	University of New South Wales	
3019288	29512899	22543	Eucalyptus globulus	147.51	-42.82			Leaf area per plant	BAAD: a biomass and allometry database for woody plants	Daniel	Falster	University of New South Wales	
3019270	29512252	22543	Eucalyptus globulus	147.51	-42.82			Plant biomass and allometry: Wood (sapwood) cross-sectional area at base	BAAD: a biomass and allometry database for woody plants	Daniel	Falster	University of New South Wales	
3019282	29512680	22543	Eucalyptus globulus	147.51	-42.82			Plant biomass and allometry: Root mass per plant	BAAD: a biomass and allometry database for woody plants	Daniel	Falster	University of New South Wales	
3019238	29511163	22543	Eucalyptus globulus	147.51	-42.82			Plant biomass and allometry: Leaf mass (dry or fresh) per plant	BAAD: a biomass and allometry database for woody plants	Daniel	Falster	University of New South Wales	
1310469	9139657	22543	Eucalyptus globulus	147.6	-42.82		1994-04-14	Species occurrence range: climate type	Leaf Physiology Database	Jens	Kattge	Max Planck Institute for Biogeochemistry	
4404882	48144111	22543	Eucalyptus globulus	147.51	-42.82		2000 to 2005	Leaf photosynthesis pathway	FRED - Fine Root Ecology Database	Colleen	Iversen		
3019263	29512006	22543	Eucalyptus globulus	147.51	-42.82			Leaf area per plant	BAAD: a biomass and allometry database for woody plants	Daniel	Falster	University of New South Wales	
3019228	29510838	22543	Eucalyptus globulus	147.51	-42.82			Stem diameter	BAAD: a biomass and allometry database for woody plants	Daniel	Falster	University of New South Wales	
4444737	49600309	22543	Eucalyptus globulus	147.51	-42.82		2000 to 2005	Leaf type	FRED - Fine Root Ecology Database	Colleen	Iversen		
4444730	49600070	22543	Eucalyptus globulus	147.51	-42.82		2000 to 2005	Plant woodiness	FRED - Fine Root Ecology Database	Colleen	Iversen		
4404886	48144240	22543	Eucalyptus globulus	147.51	-42.82		2000 to 2005	Leaf type	FRED - Fine Root Ecology Database	Colleen	Iversen		
3019260	29511901	22543	Eucalyptus globulus	147.51	-42.82			Leaf area per plant	BAAD: a biomass and allometry database for woody plants	Daniel	Falster	University of New South Wales	
4446329	49654256	22543	Eucalyptus globulus	147.51	-42.82		2000 to 2005	Plant growth form	FRED - Fine Root Ecology Database	Colleen	Iversen		
1310455	9139253	22543	Eucalyptus globulus	147.6	-42.82			Species occurrence range: climate type	Leaf Physiology Database	Jens	Kattge	Max Planck Institute for Biogeochemistry	
3019252	29511629	22543	Eucalyptus globulus	147.51	-42.82			Leaf area per plant	BAAD: a biomass and allometry database for woody plants	Daniel	Falster	University of New South Wales	
4444734	49600207	22543	Eucalyptus globulus	147.51	-42.82		2000 to 2005	Leaf type	FRED - Fine Root Ecology Database	Colleen	Iversen		
4446333	49654385	22543	Eucalyptus globulus	147.51	-42.82		2000 to 2005	Leaf photosynthesis pathway	FRED - Fine Root Ecology Database	Colleen	Iversen		
1310462	9139445	22543	Eucalyptus globulus	147.6	-42.82		1993-12-25	Plant nitrogen(N) fixation capacity	Leaf Physiology Database	Jens	Kattge	Max Planck Institute for Biogeochemistry	
3019256	29511771	22543	Eucalyptus globulus	147.51	-42.82			Plant biomass and allometry: Whole plant aboveground mass	BAAD: a biomass and allometry database for woody plants	Daniel	Falster	University of New South Wales	
4446326	49654161	22543	Eucalyptus globulus	147.51	-42.82		2000 to 2005	Plant biomass and allometry: Root mass fraction (fraction of root dry mass per whole plant dry mass)	FRED - Fine Root Ecology Database	Colleen	Iversen		
3019248	29511499	22543	Eucalyptus globulus	147.51	-42.82			Plant biomass and allometry: Whole plant aboveground mass	BAAD: a biomass and allometry database for woody plants	Daniel	Falster	University of New South Wales	
3019274	29512393	22543	Eucalyptus globulus	147.51	-42.82			Plant biomass and allometry: Stem cross-sectional area at base of the plant	BAAD: a biomass and allometry database for woody plants	Daniel	Falster	University of New South Wales	
3019285	29512795	22543	Eucalyptus globulus	147.51	-42.82			Plant biomass and allometry: Plant mass	BAAD: a biomass and allometry database for woody plants	Daniel	Falster	University of New South Wales	
3019243	29511330	22543	Eucalyptus globulus	147.51	-42.82			Plant biomass and allometry: Branch mass per plant	BAAD: a biomass and allometry database for woody plants	Daniel	Falster	University of New South Wales	
1310475	9139822	22543	Eucalyptus globulus	147.6	-42.82		1994-06-21	Plant nitrogen(N) fixation capacity	Leaf Physiology Database	Jens	Kattge	Max Planck Institute for Biogeochemistry	
3019267	29512147	22543	Eucalyptus globulus	147.51	-42.82			Plant biomass and allometry: Wood (sapwood) cross-sectional area at base	BAAD: a biomass and allometry database for woody plants	Daniel	Falster	University of New South Wales	
3019280	29512600	22543	Eucalyptus globulus	147.51	-42.82			Stem diameter	BAAD: a biomass and allometry database for woody plants	Daniel	Falster	University of New South Wales	
4446336	49654482	22543	Eucalyptus globulus	147.51	-42.82		2000 to 2005	Mycorrhiza type	FRED - Fine Root Ecology Database	Colleen	Iversen		
3019234	29511031	22543	Eucalyptus globulus	147.51	-42.82			Plant biomass and allometry: Stem cross-sectional area at base of the plant	BAAD: a biomass and allometry database for woody plants	Daniel	Falster	University of New South Wales	
1310466	9139550	22543	Eucalyptus globulus	147.6	-42.82		1993-12-25	Leaf photosynthesis rate per leaf area	Leaf Physiology Database	Jens	Kattge	Max Planck Institute for Biogeochemistry	
4404879	48144012	22543	Eucalyptus globulus	147.51	-42.82		2000 to 2005	Leaf photosynthesis pathway	FRED - Fine Root Ecology Database	Colleen	Iversen		
3019261	29511937	22543	Eucalyptus globulus	147.51	-42.82			Plant biomass and allometry: Wood (sapwood) cross-sectional area at base	BAAD: a biomass and allometry database for woody plants	Daniel	Falster	University of New South Wales	
4446330	49654289	22543	Eucalyptus globulus	147.51	-42.82		2000 to 2005	Plant growth form	FRED - Fine Root Ecology Database	Colleen	Iversen		
1310458	9139334	22543	Eucalyptus globulus	147.6	-42.82		1993-11-01	Plant growth form	Leaf Physiology Database	Jens	Kattge	Max Planck Institute for Biogeochemistry	
3019253	29511665	22543	Eucalyptus globulus	147.51	-42.82			Stem diameter	BAAD: a biomass and allometry database for woody plants	Daniel	Falster	University of New South Wales	
4446323	49654064	22543	Eucalyptus globulus	147.51	-42.82		2000 to 2005	Plant growth form	FRED - Fine Root Ecology Database	Colleen	Iversen		
3019288	29512910	22543	Eucalyptus globulus	147.51	-42.82			Plant biomass and allometry: Coarse root mass per plant	BAAD: a biomass and allometry database for woody plants	Daniel	Falster	University of New South Wales	
3019271	29512288	22543	Eucalyptus globulus	147.51	-42.82			Plant biomass and allometry: Stem cross-sectional area at base of the plant	BAAD: a biomass and allometry database for woody plants	Daniel	Falster	University of New South Wales	
3019283	29512716	22543	Eucalyptus globulus	147.51	-42.82			Plant biomass and allometry: Fine root mass per plant	BAAD: a biomass and allometry database for woody plants	Daniel	Falster	University of New South Wales	
3019240	29511223	22543	Eucalyptus globulus	147.51	-42.82			Plant functional type (PFT)	BAAD: a biomass and allometry database for woody plants	Daniel	Falster	University of New South Wales	
1310471	9139711	22543	Eucalyptus globulus	147.6	-42.82		1994-04-14	Plant growth form	Leaf Physiology Database	Jens	Kattge	Max Planck Institute for Biogeochemistry	
4404883	48144145	22543	Eucalyptus globulus	147.51	-42.82		2000 to 2005	Plant growth form	FRED - Fine Root Ecology Database	Colleen	Iversen		
3019264	29512042	22543	Eucalyptus globulus	147.51	-42.82			Plant biomass and allometry: Wood (sapwood) cross-sectional area at base	BAAD: a biomass and allometry database for woody plants	Daniel	Falster	University of New South Wales	
3019229	29510875	22543	Eucalyptus globulus	147.51	-42.82			Plant biomass and allometry: Leaf mass (dry or fresh) per plant	BAAD: a biomass and allometry database for woody plants	Daniel	Falster	University of New South Wales	
3019290	29512989	22543	Eucalyptus globulus	147.51	-42.82			Plant biomass and allometry: Root mass per plant	BAAD: a biomass and allometry database for woody plants	Daniel	Falster	University of New South Wales	
4444731	49600105	22543	Eucalyptus globulus	147.51	-42.82		2000 to 2005	Plant woodiness	FRED - Fine Root Ecology Database	Colleen	Iversen		
4404887	48144274	22543	Eucalyptus globulus	147.51	-42.82		2000 to 2005	Plant woodiness	FRED - Fine Root Ecology Database	Colleen	Iversen		
3019268	29512183	22543	Eucalyptus globulus	147.51	-42.82			Plant biomass and allometry: Stem cross-sectional area at base of the plant	BAAD: a biomass and allometry database for woody plants	Daniel	Falster	University of New South Wales	
3019281	29512637	22543	Eucalyptus globulus	147.51	-42.82			Plant biomass and allometry: Stem mass (including branches) per plant	BAAD: a biomass and allometry database for woody plants	Daniel	Falster	University of New South Wales	
4446337	49654515	22543	Eucalyptus globulus	147.51	-42.82		2000 to 2005	Plant biomass and allometry: Root dry mass per plant	FRED - Fine Root Ecology Database	Colleen	Iversen		
3019236	29511092	22543	Eucalyptus globulus	147.51	-42.82			Plant functional type (PFT)	BAAD: a biomass and allometry database for woody plants	Daniel	Falster	University of New South Wales	
1310467	9139596	22543	Eucalyptus globulus	147.6	-42.82		1993-12-25	Leaf phenology type	Leaf Physiology Database	Jens	Kattge	Max Planck Institute for Biogeochemistry	
4404880	48144046	22543	Eucalyptus globulus	147.51	-42.82		2000 to 2005	Plant growth form	FRED - Fine Root Ecology Database	Colleen	Iversen		
3019225	29510744	22543	Eucalyptus globulus	147.51	-42.82			Plant biomass and allometry: Leaf mass (dry or fresh) per plant	BAAD: a biomass and allometry database for woody plants	Daniel	Falster	University of New South Wales	
4444735	49600242	22543	Eucalyptus globulus	147.51	-42.82		2000 to 2005	Leaf type	FRED - Fine Root Ecology Database	Colleen	Iversen		
4444728	49600003	22543	Eucalyptus globulus	147.51	-42.82		2000 to 2005	Leaf type	FRED - Fine Root Ecology Database	Colleen	Iversen		
4446334	49654418	22543	Eucalyptus globulus	147.51	-42.82		2000 to 2005	Plant woodiness	FRED - Fine Root Ecology Database	Colleen	Iversen		
1310463	9139481	22543	Eucalyptus globulus	147.6	-42.82		1993-12-25	Leaf photosynthesis pathway	Leaf Physiology Database	Jens	Kattge	Max Planck Institute for Biogeochemistry	
3019258	29511831	22543	Eucalyptus globulus	147.51	-42.82			Plant functional type (PFT)	BAAD: a biomass and allometry database for woody plants	Daniel	Falster	University of New South Wales	
4446327	49654194	22543	Eucalyptus globulus	147.51	-42.82		2000 to 2005	Plant biomass and allometry: Root mass fraction (fraction of root dry mass per whole plant dry mass)	FRED - Fine Root Ecology Database	Colleen	Iversen		
3019250	29511559	22543	Eucalyptus globulus	147.51	-42.82			Plant functional type (PFT)	BAAD: a biomass and allometry database for woody plants	Daniel	Falster	University of New South Wales	
4444738	49600344	22543	Eucalyptus globulus	147.51	-42.82		2000 to 2005	Plant woodiness	FRED - Fine Root Ecology Database	Colleen	Iversen		
3019275	29512429	22543	Eucalyptus globulus	147.51	-42.82			Stem diameter	BAAD: a biomass and allometry database for woody plants	Daniel	Falster	University of New South Wales	
3019286	29512831	22543	Eucalyptus globulus	147.51	-42.82			Plant biomass and allometry: Coarse root mass per plant	BAAD: a biomass and allometry database for woody plants	Daniel	Falster	University of New South Wales	
3019245	29511391	22543	Eucalyptus globulus	147.51	-42.82			Leaf area per plant	BAAD: a biomass and allometry database for woody plants	Daniel	Falster	University of New South Wales	
1310476	9139858	22543	Eucalyptus globulus	147.6	-42.82		1994-06-21	Leaf photosynthesis pathway	Leaf Physiology Database	Jens	Kattge	Max Planck Institute for Biogeochemistry	
4404889	48144332	22543	Eucalyptus globulus	147.51	-42.82		2000 to 2005	Leaf phenology type	FRED - Fine Root Ecology Database	Colleen	Iversen		
3019262	29511973	22543	Eucalyptus globulus	147.51	-42.82			Plant biomass and allometry: Stem cross-sectional area at base of the plant	BAAD: a biomass and allometry database for woody plants	Daniel	Falster	University of New South Wales	
4446331	49654322	22543	Eucalyptus globulus	147.51	-42.82		2000 to 2005	Plant growth form	FRED - Fine Root Ecology Database	Colleen	Iversen		
1310459	9139366	22543	Eucalyptus globulus	147.6	-42.82		1993-11-01	Leaf type	Leaf Physiology Database	Jens	Kattge	Max Planck Institute for Biogeochemistry	
3019254	29511702	22543	Eucalyptus globulus	147.51	-42.82			Plant biomass and allometry: Stem mass (including branches) per plant	BAAD: a biomass and allometry database for woody plants	Daniel	Falster	University of New South Wales	
4446324	49654098	22543	Eucalyptus globulus	147.51	-42.82		2000 to 2005	Mycorrhiza type	FRED - Fine Root Ecology Database	Colleen	Iversen		
3019246	29511430	22543	Eucalyptus globulus	147.51	-42.82			Plant biomass and allometry: Stem mass (including branches) per plant	BAAD: a biomass and allometry database for woody plants	Daniel	Falster	University of New South Wales	
3019289	29512946	22543	Eucalyptus globulus	147.51	-42.82			Plant biomass and allometry: Leaf mass (dry or fresh) per plant	BAAD: a biomass and allometry database for woody plants	Daniel	Falster	University of New South Wales	
3019272	29512324	22543	Eucalyptus globulus	147.51	-42.82			Stem diameter	BAAD: a biomass and allometry database for woody plants	Daniel	Falster	University of New South Wales	
3019284	29512752	22543	Eucalyptus globulus	147.51	-42.82			Plant biomass and allometry: Whole plant aboveground mass	BAAD: a biomass and allometry database for woody plants	Daniel	Falster	University of New South Wales	
3019241	29511260	22543	Eucalyptus globulus	147.51	-42.82			Stem diameter	BAAD: a biomass and allometry database for woody plants	Daniel	Falster	University of New South Wales	
1310472	9139743	22543	Eucalyptus globulus	147.6	-42.82		1994-04-14	Leaf type	Leaf Physiology Database	Jens	Kattge	Max Planck Institute for Biogeochemistry	
4404884	48144179	22543	Eucalyptus globulus	147.51	-42.82		2000 to 2005	Plant woodiness	FRED - Fine Root Ecology Database	Colleen	Iversen		
3019265	29512078	22543	Eucalyptus globulus	147.51	-42.82			Plant biomass and allometry: Stem cross-sectional area at base of the plant	BAAD: a biomass and allometry database for woody plants	Daniel	Falster	University of New South Wales	
3019278	29512531	22543	Eucalyptus globulus	147.51	-42.82			Leaf area per plant	BAAD: a biomass and allometry database for woody plants	Daniel	Falster	University of New South Wales	
3019231	29510936	22543	Eucalyptus globulus	147.51	-42.82			Plant height vegetative	BAAD: a biomass and allometry database for woody plants	Daniel	Falster	University of New South Wales	
4404876	48143925	22543	Eucalyptus globulus	147.51	-42.82		2000 to 2005	Plant biomass and allometry: Coarse root dry mass per plant	FRED - Fine Root Ecology Database	Colleen	Iversen		
3019291	29513025	22543	Eucalyptus globulus	147.51	-42.82			Plant biomass and allometry: Branch mass per plant	BAAD: a biomass and allometry database for woody plants	Daniel	Falster	University of New South Wales	
4444732	49600140	22543	Eucalyptus globulus	147.51	-42.82		2000 to 2005	Plant woodiness	FRED - Fine Root Ecology Database	Colleen	Iversen		
3019276	29512466	22543	Eucalyptus globulus	147.51	-42.82			Plant biomass and allometry: Leaf mass (dry or fresh) per plant	BAAD: a biomass and allometry database for woody plants	Daniel	Falster	University of New South Wales	
3019287	29512866	22543	Eucalyptus globulus	147.51	-42.82			Stem diameter	BAAD: a biomass and allometry database for woody plants	Daniel	Falster	University of New South Wales	
1310478	9139898	22543	Eucalyptus globulus	147.6	-42.82		1994-06-21	Leaf photosynthesis rate per leaf area	Leaf Physiology Database	Jens	Kattge	Max Planck Institute for Biogeochemistry	
3019269	29512219	22543	Eucalyptus globulus	147.51	-42.82			Stem diameter	BAAD: a biomass and allometry database for woody plants	Daniel	Falster	University of New South Wales	
3019282	29512672	22543	Eucalyptus globulus	147.51	-42.82			Stem diameter	BAAD: a biomass and allometry database for woody plants	Daniel	Falster	University of New South Wales	
3019237	29511129	22543	Eucalyptus globulus	147.51	-42.82			Stem diameter	BAAD: a biomass and allometry database for woody plants	Daniel	Falster	University of New South Wales	
1310468	9139628	22543	Eucalyptus globulus	147.6	-42.82		1994-04-14	Species occurrence range: climate type	Leaf Physiology Database	Jens	Kattge	Max Planck Institute for Biogeochemistry	
4404881	48144080	22543	Eucalyptus globulus	147.51	-42.82		2000 to 2005	Plant woodiness	FRED - Fine Root Ecology Database	Colleen	Iversen		
3019227	29510805	22543	Eucalyptus globulus	147.51	-42.82			Plant height vegetative	BAAD: a biomass and allometry database for woody plants	Daniel	Falster	University of New South Wales	
4444736	49600277	22543	Eucalyptus globulus	147.51	-42.82		2000 to 2005	Leaf type	FRED - Fine Root Ecology Database	Colleen	Iversen		
4444729	49600038	22543	Eucalyptus globulus	147.51	-42.82		2000 to 2005	Plant woodiness	FRED - Fine Root Ecology Database	Colleen	Iversen		
1310465	9139521	22543	Eucalyptus globulus	147.6	-42.82		1993-12-25	Leaf photosynthesis rate per leaf area	Leaf Physiology Database	Jens	Kattge	Max Planck Institute for Biogeochemistry	
3019259	29511868	22543	Eucalyptus globulus	147.51	-42.82			Plant biomass and allometry: Stem cross-sectional area at base of the plant	BAAD: a biomass and allometry database for woody plants	Daniel	Falster	University of New South Wales	
4446328	49654227	22543	Eucalyptus globulus	147.51	-42.82		2000 to 2005	Plant biomass and allometry: Root mass fraction (fraction of root dry mass per whole plant dry mass)	FRED - Fine Root Ecology Database	Colleen	Iversen		
3019251	29511596	22543	Eucalyptus globulus	147.51	-42.82			Plant biomass and allometry: Stem cross-sectional area at base of the plant	BAAD: a biomass and allometry database for woody plants	Daniel	Falster	University of New South Wales	
4444740	49600404	22543	Eucalyptus globulus	147.51	-42.82		2000 to 2005	Leaf phenology type	FRED - Fine Root Ecology Database	Colleen	Iversen		
3019292	29513060	22543	Eucalyptus globulus	147.51	-42.82			Stem diameter	BAAD: a biomass and allometry database for woody plants	Daniel	Falster	University of New South Wales	
4444733	49600175	22543	Eucalyptus globulus	147.51	-42.82		2000 to 2005	Plant woodiness	FRED - Fine Root Ecology Database	Colleen	Iversen		
4404890	48144366	22543	Eucalyptus globulus	147.51	-42.82		2000 to 2005	Plant growth form	FRED - Fine Root Ecology Database	Colleen	Iversen		
4446332	49654355	22543	Eucalyptus globulus	147.51	-42.82		2000 to 2005	Plant growth form	FRED - Fine Root Ecology Database	Colleen	Iversen		
1310461	9139416	22543	Eucalyptus globulus	147.6	-42.82		1993-12-25	Plant nitrogen(N) fixation capacity	Leaf Physiology Database	Jens	Kattge	Max Planck Institute for Biogeochemistry	
3019255	29511738	22543	Eucalyptus globulus	147.51	-42.82			Plant biomass and allometry: Branch mass per plant	BAAD: a biomass and allometry database for woody plants	Daniel	Falster	University of New South Wales	
4446325	49654131	22543	Eucalyptus globulus	147.51	-42.82		2000 to 2005	Plant biomass and allometry: Root dry mass per plant	FRED - Fine Root Ecology Database	Colleen	Iversen		
3019247	29511466	22543	Eucalyptus globulus	147.51	-42.82			Plant biomass and allometry: Branch mass per plant	BAAD: a biomass and allometry database for woody plants	Daniel	Falster	University of New South Wales	
3019273	29512361	22543	Eucalyptus globulus	147.51	-42.82			Plant biomass and allometry: Leaf mass (dry or fresh) per plant	BAAD: a biomass and allometry database for woody plants	Daniel	Falster	University of New South Wales	
3019285	29512788	22543	Eucalyptus globulus	147.51	-42.82			Plant biomass and allometry: Leaf mass (dry or fresh) per plant	BAAD: a biomass and allometry database for woody plants	Daniel	Falster	University of New South Wales	
3019243	29511321	22543	Eucalyptus globulus	147.51	-42.82			Plant functional type (PFT)	BAAD: a biomass and allometry database for woody plants	Daniel	Falster	University of New South Wales	
1310474	9139793	22543	Eucalyptus globulus	147.6	-42.82		1994-06-21	Plant nitrogen(N) fixation capacity	Leaf Physiology Database	Jens	Kattge	Max Planck Institute for Biogeochemistry	
3019266	29512114	22543	Eucalyptus globulus	147.51	-42.82			Stem diameter	BAAD: a biomass and allometry database for woody plants	Daniel	Falster	University of New South Wales	
1414968	10321569	22543	Eucalyptus globulus	147.36	-42.49			Stem sapwood cross-sectional area per supported leaf surface area (Huber value)	Global Leaf-Sapwood Area Ratios	Maurizio	Mencuccini		
3019279	29512568	22543	Eucalyptus globulus	147.51	-42.82			Plant biomass and allometry: Fine root mass per plant	BAAD: a biomass and allometry database for woody plants	Daniel	Falster	University of New South Wales	
4446335	49654452	22543	Eucalyptus globulus	147.51	-42.82		2000 to 2005	Coarse root to fine root mass ratio	FRED - Fine Root Ecology Database	Colleen	Iversen		
3019233	29510998	22543	Eucalyptus globulus	147.51	-42.82			Leaf area per plant	BAAD: a biomass and allometry database for woody plants	Daniel	Falster	University of New South Wales	
4404878	48143981	22543	Eucalyptus globulus	147.51	-42.82		2000 to 2005	Leaf photosynthesis pathway	FRED - Fine Root Ecology Database	Colleen	Iversen		
1310457	9139305	22543	Eucalyptus globulus	147.6	-42.82		1993-11-01	Plant growth form	Leaf Physiology Database	Jens	Kattge	Max Planck Institute for Biogeochemistry	
3019252	29511633	22543	Eucalyptus globulus	147.51	-42.82			Plant biomass and allometry: Leaf mass (dry or fresh) per plant	BAAD: a biomass and allometry database for woody plants	Daniel	Falster	University of New South Wales	
4444741	49600439	22543	Eucalyptus globulus	147.51	-42.82		2000 to 2005	Plant growth form	FRED - Fine Root Ecology Database	Colleen	Iversen		
3019277	29512502	22543	Eucalyptus globulus	147.51	-42.82			Plant biomass and allometry: Stem mass (including branches) per plant	BAAD: a biomass and allometry database for woody plants	Daniel	Falster	University of New South Wales	
3019288	29512902	22543	Eucalyptus globulus	147.51	-42.82			Plant biomass and allometry: Stem cross-sectional area at base of the plant	BAAD: a biomass and allometry database for woody plants	Daniel	Falster	University of New South Wales	
3019270	29512256	22543	Eucalyptus globulus	147.51	-42.82			Plant biomass and allometry: Leaf mass (dry or fresh) per plant	BAAD: a biomass and allometry database for woody plants	Daniel	Falster	University of New South Wales	
3019283	29512708	22543	Eucalyptus globulus	147.51	-42.82			Leaf area per plant	BAAD: a biomass and allometry database for woody plants	Daniel	Falster	University of New South Wales	
3019238	29511166	22543	Eucalyptus globulus	147.51	-42.82			Plant biomass and allometry: Branch mass per plant	BAAD: a biomass and allometry database for woody plants	Daniel	Falster	University of New South Wales	
1310470	9139682	22543	Eucalyptus globulus	147.6	-42.82		1994-04-14	Plant growth form	Leaf Physiology Database	Jens	Kattge	Max Planck Institute for Biogeochemistry	
4404882	48144116	22543	Eucalyptus globulus	147.51	-42.82		2000 to 2005	Mycorrhiza type	FRED - Fine Root Ecology Database	Colleen	Iversen		
3019263	29512009	22543	Eucalyptus globulus	147.51	-42.82			Stem diameter	BAAD: a biomass and allometry database for woody plants	Daniel	Falster	University of New South Wales	
3019228	29510842	22543	Eucalyptus globulus	147.51	-42.82			Plant biomass and allometry: Whole plant aboveground mass	BAAD: a biomass and allometry database for woody plants	Daniel	Falster	University of New South Wales	
3019290	29512981	22543	Eucalyptus globulus	147.51	-42.82			Plant biomass and allometry: Stem cross-sectional area at breast height	BAAD: a biomass and allometry database for woody plants	Daniel	Falster	University of New South Wales	
4444730	49600076	22543	Eucalyptus globulus	147.51	-42.82		2000 to 2005	Plant biomass and allometry: Root mass fraction (fraction of root dry mass per whole plant dry mass)	FRED - Fine Root Ecology Database	Colleen	Iversen		
4404886	48144243	22543	Eucalyptus globulus	147.51	-42.82		2000 to 2005	Plant woodiness	FRED - Fine Root Ecology Database	Colleen	Iversen		
3019260	29511904	22543	Eucalyptus globulus	147.51	-42.82			Stem diameter	BAAD: a biomass and allometry database for woody plants	Daniel	Falster	University of New South Wales	
4446329	49654260	22543	Eucalyptus globulus	147.51	-42.82		2000 to 2005	Plant biomass and allometry: Root mass fraction (fraction of root dry mass per whole plant dry mass)	FRED - Fine Root Ecology Database	Colleen	Iversen		
4444734	49600210	22543	Eucalyptus globulus	147.51	-42.82		2000 to 2005	Plant woodiness	FRED - Fine Root Ecology Database	Colleen	Iversen		
4444727	49599971	22543	Eucalyptus globulus	147.51	-42.82		2000 to 2005	Leaf type	FRED - Fine Root Ecology Database	Colleen	Iversen		
4446333	49654389	22543	Eucalyptus globulus	147.51	-42.82		2000 to 2005	Mycorrhiza type	FRED - Fine Root Ecology Database	Colleen	Iversen		
1310462	9139452	22543	Eucalyptus globulus	147.6	-42.82		1993-12-25	Leaf photosynthesis pathway	Leaf Physiology Database	Jens	Kattge	Max Planck Institute for Biogeochemistry	
3019257	29511799	22543	Eucalyptus globulus	147.51	-42.82			Leaf area per plant	BAAD: a biomass and allometry database for woody plants	Daniel	Falster	University of New South Wales	
4446326	49654177	22543	Eucalyptus globulus	147.51	-42.82		2000 to 2005	Plant biomass and allometry: Leaf dry mass per plant	FRED - Fine Root Ecology Database	Colleen	Iversen		
3019249	29511527	22543	Eucalyptus globulus	147.51	-42.82			Leaf area per plant	BAAD: a biomass and allometry database for woody plants	Daniel	Falster	University of New South Wales	
4444737	49600312	22543	Eucalyptus globulus	147.51	-42.82		2000 to 2005	Plant woodiness	FRED - Fine Root Ecology Database	Colleen	Iversen		
3019274	29512397	22543	Eucalyptus globulus	147.51	-42.82			Plant biomass and allometry: Stem mass (including branches) per plant	BAAD: a biomass and allometry database for woody plants	Daniel	Falster	University of New South Wales	
3019286	29512823	22543	Eucalyptus globulus	147.51	-42.82			Plant biomass and allometry: Stem cross-sectional area at breast height	BAAD: a biomass and allometry database for woody plants	Daniel	Falster	University of New South Wales	
3019244	29511358	22543	Eucalyptus globulus	147.51	-42.82			Plant biomass and allometry: Stem cross-sectional area at base of the plant	BAAD: a biomass and allometry database for woody plants	Daniel	Falster	University of New South Wales	
1310475	9139829	22543	Eucalyptus globulus	147.6	-42.82		1994-06-21	Leaf photosynthesis pathway	Leaf Physiology Database	Jens	Kattge	Max Planck Institute for Biogeochemistry	
3019267	29512151	22543	Eucalyptus globulus	147.51	-42.82			Plant biomass and allometry: Leaf mass (dry or fresh) per plant	BAAD: a biomass and allometry database for woody plants	Daniel	Falster	University of New South Wales	
3019280	29512604	22543	Eucalyptus globulus	147.51	-42.82			Plant biomass and allometry: Root mass per plant	BAAD: a biomass and allometry database for woody plants	Daniel	Falster	University of New South Wales	
4446337	49654507	22543	Eucalyptus globulus	147.51	-42.82		2000 to 2005	Leaf phenology type	FRED - Fine Root Ecology Database	Colleen	Iversen		
3019234	29511035	22543	Eucalyptus globulus	147.51	-42.82			Plant biomass and allometry: Leaf mass (dry or fresh) per plant	BAAD: a biomass and allometry database for woody plants	Daniel	Falster	University of New South Wales	
1310466	9139567	22543	Eucalyptus globulus	147.6	-42.82		1993-12-25	Leaf phenology type	Leaf Physiology Database	Jens	Kattge	Max Planck Institute for Biogeochemistry	
4404879	48144017	22543	Eucalyptus globulus	147.51	-42.82		2000 to 2005	Mycorrhiza type	FRED - Fine Root Ecology Database	Colleen	Iversen		
3019261	29511941	22543	Eucalyptus globulus	147.51	-42.82			Plant biomass and allometry: Leaf mass (dry or fresh) per plant	BAAD: a biomass and allometry database for woody plants	Daniel	Falster	University of New South Wales	
4446330	49654293	22543	Eucalyptus globulus	147.51	-42.82		2000 to 2005	Plant biomass and allometry: Root mass fraction (fraction of root dry mass per whole plant dry mass)	FRED - Fine Root Ecology Database	Colleen	Iversen		
1310458	9139337	22543	Eucalyptus globulus	147.6	-42.82		1993-11-01	Leaf type	Leaf Physiology Database	Jens	Kattge	Max Planck Institute for Biogeochemistry	
3019253	29511669	22543	Eucalyptus globulus	147.51	-42.82			Plant biomass and allometry: Whole plant aboveground mass	BAAD: a biomass and allometry database for woody plants	Daniel	Falster	University of New South Wales	
4446323	49654068	22543	Eucalyptus globulus	147.51	-42.82		2000 to 2005	Coarse root to fine root mass ratio	FRED - Fine Root Ecology Database	Colleen	Iversen		
3019289	29512938	22543	Eucalyptus globulus	147.51	-42.82			Leaf area per plant	BAAD: a biomass and allometry database for woody plants	Daniel	Falster	University of New South Wales	
3019271	29512292	22543	Eucalyptus globulus	147.51	-42.82			Plant biomass and allometry: Stem mass (including branches) per plant	BAAD: a biomass and allometry database for woody plants	Daniel	Falster	University of New South Wales	
3019283	29512719	22543	Eucalyptus globulus	147.51	-42.82			Plant biomass and allometry: Plant mass	BAAD: a biomass and allometry database for woody plants	Daniel	Falster	University of New South Wales	
3019240	29511227	22543	Eucalyptus globulus	147.51	-42.82			Plant height vegetative	BAAD: a biomass and allometry database for woody plants	Daniel	Falster	University of New South Wales	
1310471	9139714	22543	Eucalyptus globulus	147.6	-42.82		1994-04-14	Leaf type	Leaf Physiology Database	Jens	Kattge	Max Planck Institute for Biogeochemistry	
4404883	48144150	22543	Eucalyptus globulus	147.51	-42.82		2000 to 2005	Plant biomass and allometry: Coarse root mass fraction (fraction of coarse root dry mass per whole p	FRED - Fine Root Ecology Database	Colleen	Iversen		
3019264	29512046	22543	Eucalyptus globulus	147.51	-42.82			Plant biomass and allometry: Leaf mass (dry or fresh) per plant	BAAD: a biomass and allometry database for woody plants	Daniel	Falster	University of New South Wales	
3019230	29510903	22543	Eucalyptus globulus	147.51	-42.82			Plant biomass and allometry: Stem cross-sectional area at base of the plant	BAAD: a biomass and allometry database for woody plants	Daniel	Falster	University of New South Wales	
3019291	29513017	22543	Eucalyptus globulus	147.51	-42.82			Plant biomass and allometry: Wood (sapwood) cross-sectional area at base	BAAD: a biomass and allometry database for woody plants	Daniel	Falster	University of New South Wales	
4444731	49600111	22543	Eucalyptus globulus	147.51	-42.82		2000 to 2005	Plant biomass and allometry: Root mass fraction (fraction of root dry mass per whole plant dry mass)	FRED - Fine Root Ecology Database	Colleen	Iversen		
4404888	48144301	22543	Eucalyptus globulus	147.51	-42.82		2000 to 2005	Leaf phenology type	FRED - Fine Root Ecology Database	Colleen	Iversen		
3019245	29511395	22543	Eucalyptus globulus	147.51	-42.82			Plant biomass and allometry: Leaf mass (dry or fresh) per plant	BAAD: a biomass and allometry database for woody plants	Daniel	Falster	University of New South Wales	
1310477	9139869	22543	Eucalyptus globulus	147.6	-42.82		1994-06-21	Leaf photosynthesis rate per leaf area	Leaf Physiology Database	Jens	Kattge	Max Planck Institute for Biogeochemistry	
3019268	29512187	22543	Eucalyptus globulus	147.51	-42.82			Plant biomass and allometry: Stem mass (including branches) per plant	BAAD: a biomass and allometry database for woody plants	Daniel	Falster	University of New South Wales	
3019281	29512640	22543	Eucalyptus globulus	147.51	-42.82			Plant biomass and allometry: Fine root mass per plant	BAAD: a biomass and allometry database for woody plants	Daniel	Falster	University of New South Wales	
3019236	29511096	22543	Eucalyptus globulus	147.51	-42.82			Plant height vegetative	BAAD: a biomass and allometry database for woody plants	Daniel	Falster	University of New South Wales	
1310467	9139599	22543	Eucalyptus globulus	147.6	-42.82		1993-12-25	Species occurrence range: climate type	Leaf Physiology Database	Jens	Kattge	Max Planck Institute for Biogeochemistry	
4404880	48144051	22543	Eucalyptus globulus	147.51	-42.82		2000 to 2005	Plant biomass and allometry: Coarse root mass fraction (fraction of coarse root dry mass per whole p	FRED - Fine Root Ecology Database	Colleen	Iversen		
3019226	29510772	22543	Eucalyptus globulus	147.51	-42.82			Plant biomass and allometry: Stem cross-sectional area at base of the plant	BAAD: a biomass and allometry database for woody plants	Daniel	Falster	University of New South Wales	
4444735	49600245	22543	Eucalyptus globulus	147.51	-42.82		2000 to 2005	Plant woodiness	FRED - Fine Root Ecology Database	Colleen	Iversen		
4444728	49600006	22543	Eucalyptus globulus	147.51	-42.82		2000 to 2005	Plant woodiness	FRED - Fine Root Ecology Database	Colleen	Iversen		
1310464	9139492	22543	Eucalyptus globulus	147.6	-42.82		1993-12-25	Leaf photosynthesis rate per leaf area	Leaf Physiology Database	Jens	Kattge	Max Planck Institute for Biogeochemistry	
3019258	29511835	22543	Eucalyptus globulus	147.51	-42.82			Stem diameter	BAAD: a biomass and allometry database for woody plants	Daniel	Falster	University of New South Wales	
4446327	49654210	22543	Eucalyptus globulus	147.51	-42.82		2000 to 2005	Plant biomass and allometry: Leaf dry mass per plant	FRED - Fine Root Ecology Database	Colleen	Iversen		
3019250	29511563	22543	Eucalyptus globulus	147.51	-42.82			Stem diameter	BAAD: a biomass and allometry database for woody plants	Daniel	Falster	University of New South Wales	
4444739	49600372	22543	Eucalyptus globulus	147.51	-42.82		2000 to 2005	Leaf phenology type	FRED - Fine Root Ecology Database	Colleen	Iversen		
3019275	29512433	22543	Eucalyptus globulus	147.51	-42.82			Plant biomass and allometry: Whole plant aboveground mass	BAAD: a biomass and allometry database for woody plants	Daniel	Falster	University of New South Wales	
3019287	29512858	22543	Eucalyptus globulus	147.51	-42.82			Plant functional type (PFT)	BAAD: a biomass and allometry database for woody plants	Daniel	Falster	University of New South Wales	
4444732	49600146	22543	Eucalyptus globulus	147.51	-42.82		2000 to 2005	Plant biomass and allometry: Root mass fraction (fraction of root dry mass per whole plant dry mass)	FRED - Fine Root Ecology Database	Colleen	Iversen		
4404889	48144335	22543	Eucalyptus globulus	147.51	-42.82		2000 to 2005	Plant growth form	FRED - Fine Root Ecology Database	Colleen	Iversen		
3019262	29511977	22543	Eucalyptus globulus	147.51	-42.82			Plant biomass and allometry: Stem mass (including branches) per plant	BAAD: a biomass and allometry database for woody plants	Daniel	Falster	University of New South Wales	
4446331	49654326	22543	Eucalyptus globulus	147.51	-42.82		2000 to 2005	Plant biomass and allometry: Root mass fraction (fraction of root dry mass per whole plant dry mass)	FRED - Fine Root Ecology Database	Colleen	Iversen		
1310460	9139387	22543	Eucalyptus globulus	147.6	-42.82		1993-11-01	Plant nitrogen(N) fixation capacity	Leaf Physiology Database	Jens	Kattge	Max Planck Institute for Biogeochemistry	
3019255	29511729	22543	Eucalyptus globulus	147.51	-42.82			Plant functional type (PFT)	BAAD: a biomass and allometry database for woody plants	Daniel	Falster	University of New South Wales	
4446325	49654123	22543	Eucalyptus globulus	147.51	-42.82		2000 to 2005	Leaf phenology type	FRED - Fine Root Ecology Database	Colleen	Iversen		
3019247	29511457	22543	Eucalyptus globulus	147.51	-42.82			Plant functional type (PFT)	BAAD: a biomass and allometry database for woody plants	Daniel	Falster	University of New South Wales	
3019289	29512949	22543	Eucalyptus globulus	147.51	-42.82			Plant biomass and allometry: Coarse root mass per plant	BAAD: a biomass and allometry database for woody plants	Daniel	Falster	University of New South Wales	
3019272	29512328	22543	Eucalyptus globulus	147.51	-42.82			Plant biomass and allometry: Whole plant aboveground mass	BAAD: a biomass and allometry database for woody plants	Daniel	Falster	University of New South Wales	
3019284	29512755	22543	Eucalyptus globulus	147.51	-42.82			Plant biomass and allometry: Coarse root mass per plant	BAAD: a biomass and allometry database for woody plants	Daniel	Falster	University of New South Wales	
3019242	29511289	22543	Eucalyptus globulus	147.51	-42.82			Leaf area per plant	BAAD: a biomass and allometry database for woody plants	Daniel	Falster	University of New South Wales	
1310473	9139764	22543	Eucalyptus globulus	147.6	-42.82		1994-04-14	Plant nitrogen(N) fixation capacity	Leaf Physiology Database	Jens	Kattge	Max Planck Institute for Biogeochemistry	
4404884	48144184	22543	Eucalyptus globulus	147.51	-42.82		2000 to 2005	Plant biomass and allometry: Coarse root dry mass per plant	FRED - Fine Root Ecology Database	Colleen	Iversen		
3019265	29512082	22543	Eucalyptus globulus	147.51	-42.82			Plant biomass and allometry: Stem mass (including branches) per plant	BAAD: a biomass and allometry database for woody plants	Daniel	Falster	University of New South Wales	
3019278	29512535	22543	Eucalyptus globulus	147.51	-42.82			Plant biomass and allometry: Fine root mass per plant	BAAD: a biomass and allometry database for woody plants	Daniel	Falster	University of New South Wales	
4446334	49654422	22543	Eucalyptus globulus	147.51	-42.82		2000 to 2005	Plant biomass and allometry: Root dry mass per plant	FRED - Fine Root Ecology Database	Colleen	Iversen		
3019232	29510964	22543	Eucalyptus globulus	147.51	-42.82			Plant functional type (PFT)	BAAD: a biomass and allometry database for woody plants	Daniel	Falster	University of New South Wales	
4404877	48143950	22543	Eucalyptus globulus	147.51	-42.82		2000 to 2005	Leaf photosynthesis pathway	FRED - Fine Root Ecology Database	Colleen	Iversen		
3019291	29513028	22543	Eucalyptus globulus	147.51	-42.82			Plant biomass and allometry: Root mass per plant	BAAD: a biomass and allometry database for woody plants	Daniel	Falster	University of New South Wales	
3019276	29512469	22543	Eucalyptus globulus	147.51	-42.82			Plant biomass and allometry: Branch mass per plant	BAAD: a biomass and allometry database for woody plants	Daniel	Falster	University of New South Wales	
3019287	29512870	22543	Eucalyptus globulus	147.51	-42.82			Plant biomass and allometry: Fine root mass per plant	BAAD: a biomass and allometry database for woody plants	Daniel	Falster	University of New South Wales	
1310478	9139915	22543	Eucalyptus globulus	147.6	-42.82		1994-06-21	Leaf phenology type	Leaf Physiology Database	Jens	Kattge	Max Planck Institute for Biogeochemistry	
3019269	29512223	22543	Eucalyptus globulus	147.51	-42.82			Plant biomass and allometry: Whole plant aboveground mass	BAAD: a biomass and allometry database for woody plants	Daniel	Falster	University of New South Wales	
3019282	29512676	22543	Eucalyptus globulus	147.51	-42.82			Plant biomass and allometry: Whole plant aboveground mass	BAAD: a biomass and allometry database for woody plants	Daniel	Falster	University of New South Wales	
3019238	29511158	22543	Eucalyptus globulus	147.51	-42.82			Leaf area per plant	BAAD: a biomass and allometry database for woody plants	Daniel	Falster	University of New South Wales	
1310469	9139653	22543	Eucalyptus globulus	147.6	-42.82		1994-04-14	Plant growth form	Leaf Physiology Database	Jens	Kattge	Max Planck Institute for Biogeochemistry	
4404881	48144085	22543	Eucalyptus globulus	147.51	-42.82		2000 to 2005	Plant biomass and allometry: Coarse root dry mass per plant	FRED - Fine Root Ecology Database	Colleen	Iversen		
3019228	29510833	22543	Eucalyptus globulus	147.51	-42.82			Plant functional type (PFT)	BAAD: a biomass and allometry database for woody plants	Daniel	Falster	University of New South Wales	
4444736	49600280	22543	Eucalyptus globulus	147.51	-42.82		2000 to 2005	Plant woodiness	FRED - Fine Root Ecology Database	Colleen	Iversen		
4444730	49600066	22543	Eucalyptus globulus	147.51	-42.82		2000 to 2005	Leaf phenology type	FRED - Fine Root Ecology Database	Colleen	Iversen		
4404885	48144212	22543	Eucalyptus globulus	147.51	-42.82		2000 to 2005	Plant woodiness	FRED - Fine Root Ecology Database	Colleen	Iversen		
3019259	29511872	22543	Eucalyptus globulus	147.51	-42.82			Plant biomass and allometry: Stem mass (including branches) per plant	BAAD: a biomass and allometry database for woody plants	Daniel	Falster	University of New South Wales	
4446328	49654243	22543	Eucalyptus globulus	147.51	-42.82		2000 to 2005	Plant biomass and allometry: Leaf dry mass per plant	FRED - Fine Root Ecology Database	Colleen	Iversen		
1310455	9139249	22543	Eucalyptus globulus	147.6	-42.82			Plant growth form	Leaf Physiology Database	Jens	Kattge	Max Planck Institute for Biogeochemistry	
3019251	29511600	22543	Eucalyptus globulus	147.51	-42.82			Plant biomass and allometry: Stem mass (including branches) per plant	BAAD: a biomass and allometry database for woody plants	Daniel	Falster	University of New South Wales	
4444740	49600407	22543	Eucalyptus globulus	147.51	-42.82		2000 to 2005	Plant growth form	FRED - Fine Root Ecology Database	Colleen	Iversen		
3019292	29513064	22543	Eucalyptus globulus	147.51	-42.82			Plant biomass and allometry: Branch mass per plant	BAAD: a biomass and allometry database for woody plants	Daniel	Falster	University of New South Wales	
4444733	49600181	22543	Eucalyptus globulus	147.51	-42.82		2000 to 2005	Plant biomass and allometry: Root mass fraction (fraction of root dry mass per whole plant dry mass)	FRED - Fine Root Ecology Database	Colleen	Iversen		
4404890	48144371	22543	Eucalyptus globulus	147.51	-42.82		2000 to 2005	Plant biomass and allometry: Coarse root dry mass per plant	FRED - Fine Root Ecology Database	Colleen	Iversen		
4446332	49654359	22543	Eucalyptus globulus	147.51	-42.82		2000 to 2005	Coarse root to fine root mass ratio	FRED - Fine Root Ecology Database	Colleen	Iversen		
1310461	9139423	22543	Eucalyptus globulus	147.6	-42.82		1993-12-25	Leaf photosynthesis pathway	Leaf Physiology Database	Jens	Kattge	Max Planck Institute for Biogeochemistry	
3019256	29511766	22543	Eucalyptus globulus	147.51	-42.82			Plant biomass and allometry: Stem cross-sectional area at base of the plant	BAAD: a biomass and allometry database for woody plants	Daniel	Falster	University of New South Wales	
4446326	49654156	22543	Eucalyptus globulus	147.51	-42.82		2000 to 2005	Leaf photosynthesis pathway	FRED - Fine Root Ecology Database	Colleen	Iversen		
3019248	29511494	22543	Eucalyptus globulus	147.51	-42.82			Plant biomass and allometry: Stem cross-sectional area at base of the plant	BAAD: a biomass and allometry database for woody plants	Daniel	Falster	University of New South Wales	
3019273	29512364	22543	Eucalyptus globulus	147.51	-42.82			Plant biomass and allometry: Branch mass per plant	BAAD: a biomass and allometry database for woody plants	Daniel	Falster	University of New South Wales	
3019285	29512791	22543	Eucalyptus globulus	147.51	-42.82			Plant biomass and allometry: Branch mass per plant	BAAD: a biomass and allometry database for woody plants	Daniel	Falster	University of New South Wales	
3019243	29511325	22543	Eucalyptus globulus	147.51	-42.82			Stem diameter	BAAD: a biomass and allometry database for woody plants	Daniel	Falster	University of New South Wales	
1310474	9139800	22543	Eucalyptus globulus	147.6	-42.82		1994-06-21	Leaf photosynthesis pathway	Leaf Physiology Database	Jens	Kattge	Max Planck Institute for Biogeochemistry	
3019266	29512118	22543	Eucalyptus globulus	147.51	-42.82			Plant biomass and allometry: Whole plant aboveground mass	BAAD: a biomass and allometry database for woody plants	Daniel	Falster	University of New South Wales	
3019280	29512595	22543	Eucalyptus globulus	147.51	-42.82			Plant functional type (PFT)	BAAD: a biomass and allometry database for woody plants	Daniel	Falster	University of New South Wales	
4446336	49654477	22543	Eucalyptus globulus	147.51	-42.82		2000 to 2005	Leaf type	FRED - Fine Root Ecology Database	Colleen	Iversen		
3019233	29511001	22543	Eucalyptus globulus	147.51	-42.82			Stem diameter	BAAD: a biomass and allometry database for woody plants	Daniel	Falster	University of New South Wales	
1310465	9139538	22543	Eucalyptus globulus	147.6	-42.82		1993-12-25	Leaf phenology type	Leaf Physiology Database	Jens	Kattge	Max Planck Institute for Biogeochemistry	
4404878	48143986	22543	Eucalyptus globulus	147.51	-42.82		2000 to 2005	Mycorrhiza type	FRED - Fine Root Ecology Database	Colleen	Iversen		
3019260	29511908	22543	Eucalyptus globulus	147.51	-42.82			Plant biomass and allometry: Whole plant aboveground mass	BAAD: a biomass and allometry database for woody plants	Daniel	Falster	University of New South Wales	
4446329	49654276	22543	Eucalyptus globulus	147.51	-42.82		2000 to 2005	Plant biomass and allometry: Leaf dry mass per plant	FRED - Fine Root Ecology Database	Colleen	Iversen		
3019225	29510739	22543	Eucalyptus globulus	147.51	-42.82			Leaf area per plant	BAAD: a biomass and allometry database for woody plants	Daniel	Falster	University of New South Wales	
1310457	9139308	22543	Eucalyptus globulus	147.6	-42.82		1993-11-01	Leaf type	Leaf Physiology Database	Jens	Kattge	Max Planck Institute for Biogeochemistry	
3019252	29511636	22543	Eucalyptus globulus	147.51	-42.82			Plant biomass and allometry: Branch mass per plant	BAAD: a biomass and allometry database for woody plants	Daniel	Falster	University of New South Wales	
4444741	49600445	22543	Eucalyptus globulus	147.51	-42.82		2000 to 2005	Plant biomass and allometry: Root dry mass per plant	FRED - Fine Root Ecology Database	Colleen	Iversen		
3019278	29512529	22543	Eucalyptus globulus	147.51	-42.82			Plant functional type (PFT)	BAAD: a biomass and allometry database for woody plants	Daniel	Falster	University of New South Wales	
3019288	29512905	22543	Eucalyptus globulus	147.51	-42.82			Stem diameter	BAAD: a biomass and allometry database for woody plants	Daniel	Falster	University of New South Wales	
3019270	29512259	22543	Eucalyptus globulus	147.51	-42.82			Plant biomass and allometry: Branch mass per plant	BAAD: a biomass and allometry database for woody plants	Daniel	Falster	University of New South Wales	
3019283	29512712	22543	Eucalyptus globulus	147.51	-42.82			Plant biomass and allometry: Leaf mass (dry or fresh) per plant	BAAD: a biomass and allometry database for woody plants	Daniel	Falster	University of New South Wales	
3019239	29511194	22543	Eucalyptus globulus	147.51	-42.82			Plant biomass and allometry: Stem cross-sectional area at base of the plant	BAAD: a biomass and allometry database for woody plants	Daniel	Falster	University of New South Wales	
1310470	9139685	22543	Eucalyptus globulus	147.6	-42.82		1994-04-14	Leaf type	Leaf Physiology Database	Jens	Kattge	Max Planck Institute for Biogeochemistry	
4404882	48144132	22543	Eucalyptus globulus	147.51	-42.82		2000 to 2005	Plant biomass and allometry: Leaf dry mass per plant	FRED - Fine Root Ecology Database	Colleen	Iversen		
3019263	29512013	22543	Eucalyptus globulus	147.51	-42.82			Plant biomass and allometry: Whole plant aboveground mass	BAAD: a biomass and allometry database for woody plants	Daniel	Falster	University of New South Wales	
3019229	29510870	22543	Eucalyptus globulus	147.51	-42.82			Leaf area per plant	BAAD: a biomass and allometry database for woody plants	Daniel	Falster	University of New South Wales	
3019290	29512985	22543	Eucalyptus globulus	147.51	-42.82			Plant biomass and allometry: Leaf mass (dry or fresh) per plant	BAAD: a biomass and allometry database for woody plants	Daniel	Falster	University of New South Wales	
4444731	49600101	22543	Eucalyptus globulus	147.51	-42.82		2000 to 2005	Leaf phenology type	FRED - Fine Root Ecology Database	Colleen	Iversen		
4404887	48144270	22543	Eucalyptus globulus	147.51	-42.82		2000 to 2005	Leaf phenology type	FRED - Fine Root Ecology Database	Colleen	Iversen		
4404879	48144033	22543	Eucalyptus globulus	147.51	-42.82		2000 to 2005	Plant biomass and allometry: Leaf dry mass per plant	FRED - Fine Root Ecology Database	Colleen	Iversen		
4444734	49600216	22543	Eucalyptus globulus	147.51	-42.82		2000 to 2005	Plant biomass and allometry: Root mass fraction (fraction of root dry mass per whole plant dry mass)	FRED - Fine Root Ecology Database	Colleen	Iversen		
4444727	49599974	22543	Eucalyptus globulus	147.51	-42.82		2000 to 2005	Plant woodiness	FRED - Fine Root Ecology Database	Colleen	Iversen		
4446334	49654414	22543	Eucalyptus globulus	147.51	-42.82		2000 to 2005	Leaf phenology type	FRED - Fine Root Ecology Database	Colleen	Iversen		
1310463	9139463	22543	Eucalyptus globulus	147.6	-42.82		1993-12-25	Leaf photosynthesis rate per leaf area	Leaf Physiology Database	Jens	Kattge	Max Planck Institute for Biogeochemistry	
3019257	29511803	22543	Eucalyptus globulus	147.51	-42.82			Plant biomass and allometry: Leaf mass (dry or fresh) per plant	BAAD: a biomass and allometry database for woody plants	Daniel	Falster	University of New South Wales	
4446327	49654189	22543	Eucalyptus globulus	147.51	-42.82		2000 to 2005	Leaf photosynthesis pathway	FRED - Fine Root Ecology Database	Colleen	Iversen		
3019249	29511531	22543	Eucalyptus globulus	147.51	-42.82			Plant biomass and allometry: Leaf mass (dry or fresh) per plant	BAAD: a biomass and allometry database for woody plants	Daniel	Falster	University of New South Wales	
4444738	49600340	22543	Eucalyptus globulus	147.51	-42.82		2000 to 2005	Leaf phenology type	FRED - Fine Root Ecology Database	Colleen	Iversen		
3019275	29512424	22543	Eucalyptus globulus	147.51	-42.82			Plant functional type (PFT)	BAAD: a biomass and allometry database for woody plants	Daniel	Falster	University of New South Wales	
3019286	29512827	22543	Eucalyptus globulus	147.51	-42.82			Plant biomass and allometry: Stem mass (including branches) per plant	BAAD: a biomass and allometry database for woody plants	Daniel	Falster	University of New South Wales	
3019244	29511362	22543	Eucalyptus globulus	147.51	-42.82			Plant biomass and allometry: Stem mass (including branches) per plant	BAAD: a biomass and allometry database for woody plants	Daniel	Falster	University of New South Wales	
1310476	9139840	22543	Eucalyptus globulus	147.6	-42.82		1994-06-21	Leaf photosynthesis rate per leaf area	Leaf Physiology Database	Jens	Kattge	Max Planck Institute for Biogeochemistry	
3019267	29512154	22543	Eucalyptus globulus	147.51	-42.82			Plant biomass and allometry: Branch mass per plant	BAAD: a biomass and allometry database for woody plants	Daniel	Falster	University of New South Wales	
3019281	29512632	22543	Eucalyptus globulus	147.51	-42.82			Plant biomass and allometry: Wood (sapwood) cross-sectional area at base	BAAD: a biomass and allometry database for woody plants	Daniel	Falster	University of New South Wales	
4446337	49654510	22543	Eucalyptus globulus	147.51	-42.82		2000 to 2005	Plant growth form	FRED - Fine Root Ecology Database	Colleen	Iversen		
3019235	29511063	22543	Eucalyptus globulus	147.51	-42.82			Plant biomass and allometry: Stem cross-sectional area at base of the plant	BAAD: a biomass and allometry database for woody plants	Daniel	Falster	University of New South Wales	
1310466	9139570	22543	Eucalyptus globulus	147.6	-42.82		1993-12-25	Species occurrence range: climate type	Leaf Physiology Database	Jens	Kattge	Max Planck Institute for Biogeochemistry	
4404888	48144304	22543	Eucalyptus globulus	147.51	-42.82		2000 to 2005	Plant growth form	FRED - Fine Root Ecology Database	Colleen	Iversen		
3019261	29511944	22543	Eucalyptus globulus	147.51	-42.82			Plant biomass and allometry: Branch mass per plant	BAAD: a biomass and allometry database for woody plants	Daniel	Falster	University of New South Wales	
4446330	49654309	22543	Eucalyptus globulus	147.51	-42.82		2000 to 2005	Plant biomass and allometry: Leaf dry mass per plant	FRED - Fine Root Ecology Database	Colleen	Iversen		
1310459	9139358	22543	Eucalyptus globulus	147.6	-42.82		1993-11-01	Plant nitrogen(N) fixation capacity	Leaf Physiology Database	Jens	Kattge	Max Planck Institute for Biogeochemistry	
3019254	29511697	22543	Eucalyptus globulus	147.51	-42.82			Leaf area per plant	BAAD: a biomass and allometry database for woody plants	Daniel	Falster	University of New South Wales	
4446324	49654093	22543	Eucalyptus globulus	147.51	-42.82		2000 to 2005	Leaf type	FRED - Fine Root Ecology Database	Colleen	Iversen		
3019246	29511425	22543	Eucalyptus globulus	147.51	-42.82			Leaf area per plant	BAAD: a biomass and allometry database for woody plants	Daniel	Falster	University of New South Wales	
3019289	29512941	22543	Eucalyptus globulus	147.51	-42.82			Plant biomass and allometry: Stem cross-sectional area at base of the plant	BAAD: a biomass and allometry database for woody plants	Daniel	Falster	University of New South Wales	
3019272	29512319	22543	Eucalyptus globulus	147.51	-42.82			Plant functional type (PFT)	BAAD: a biomass and allometry database for woody plants	Daniel	Falster	University of New South Wales	
3019284	29512747	22543	Eucalyptus globulus	147.51	-42.82			Plant biomass and allometry: Stem cross-sectional area at breast height	BAAD: a biomass and allometry database for woody plants	Daniel	Falster	University of New South Wales	
3019241	29511255	22543	Eucalyptus globulus	147.51	-42.82			Plant functional type (PFT)	BAAD: a biomass and allometry database for woody plants	Daniel	Falster	University of New South Wales	
1310472	9139735	22543	Eucalyptus globulus	147.6	-42.82		1994-04-14	Plant nitrogen(N) fixation capacity	Leaf Physiology Database	Jens	Kattge	Max Planck Institute for Biogeochemistry	
4404884	48144175	22543	Eucalyptus globulus	147.51	-42.82		2000 to 2005	Leaf phenology type	FRED - Fine Root Ecology Database	Colleen	Iversen		
3019264	29512049	22543	Eucalyptus globulus	147.51	-42.82			Plant biomass and allometry: Branch mass per plant	BAAD: a biomass and allometry database for woody plants	Daniel	Falster	University of New South Wales	
3019230	29510907	22543	Eucalyptus globulus	147.51	-42.82			Plant biomass and allometry: Leaf mass (dry or fresh) per plant	BAAD: a biomass and allometry database for woody plants	Daniel	Falster	University of New South Wales	
4404876	48143919	22543	Eucalyptus globulus	147.51	-42.82		2000 to 2005	Leaf photosynthesis pathway	FRED - Fine Root Ecology Database	Colleen	Iversen		
3019291	29513020	22543	Eucalyptus globulus	147.51	-42.82			Plant biomass and allometry: Stem cross-sectional area at breast height	BAAD: a biomass and allometry database for woody plants	Daniel	Falster	University of New South Wales	
4444732	49600136	22543	Eucalyptus globulus	147.51	-42.82		2000 to 2005	Leaf phenology type	FRED - Fine Root Ecology Database	Colleen	Iversen		
3019276	29512461	22543	Eucalyptus globulus	147.51	-42.82			Leaf area per plant	BAAD: a biomass and allometry database for woody plants	Daniel	Falster	University of New South Wales	
3019287	29512862	22543	Eucalyptus globulus	147.51	-42.82			Plant biomass and allometry: Wood (sapwood) cross-sectional area at breast height	BAAD: a biomass and allometry database for woody plants	Daniel	Falster	University of New South Wales	
3019245	29511398	22543	Eucalyptus globulus	147.51	-42.82			Plant biomass and allometry: Branch mass per plant	BAAD: a biomass and allometry database for woody plants	Daniel	Falster	University of New South Wales	
1310477	9139886	22543	Eucalyptus globulus	147.6	-42.82		1994-06-21	Leaf phenology type	Leaf Physiology Database	Jens	Kattge	Max Planck Institute for Biogeochemistry	
3019269	29512214	22543	Eucalyptus globulus	147.51	-42.82			Plant functional type (PFT)	BAAD: a biomass and allometry database for woody plants	Daniel	Falster	University of New South Wales	
3019281	29512643	22543	Eucalyptus globulus	147.51	-42.82			Plant biomass and allometry: Plant mass	BAAD: a biomass and allometry database for woody plants	Daniel	Falster	University of New South Wales	
3019237	29511124	22543	Eucalyptus globulus	147.51	-42.82			Plant functional type (PFT)	BAAD: a biomass and allometry database for woody plants	Daniel	Falster	University of New South Wales	
1310468	9139624	22543	Eucalyptus globulus	147.6	-42.82		1994-04-14	Plant growth form	Leaf Physiology Database	Jens	Kattge	Max Planck Institute for Biogeochemistry	
4404881	48144076	22543	Eucalyptus globulus	147.51	-42.82		2000 to 2005	Leaf phenology type	FRED - Fine Root Ecology Database	Colleen	Iversen		
3019226	29510776	22543	Eucalyptus globulus	147.51	-42.82			Plant biomass and allometry: Leaf mass (dry or fresh) per plant	BAAD: a biomass and allometry database for woody plants	Daniel	Falster	University of New South Wales	
4444735	49600251	22543	Eucalyptus globulus	147.51	-42.82		2000 to 2005	Plant biomass and allometry: Root mass fraction (fraction of root dry mass per whole plant dry mass)	FRED - Fine Root Ecology Database	Colleen	Iversen		
4444729	49600034	22543	Eucalyptus globulus	147.51	-42.82		2000 to 2005	Leaf phenology type	FRED - Fine Root Ecology Database	Colleen	Iversen		
1310464	9139509	22543	Eucalyptus globulus	147.6	-42.82		1993-12-25	Leaf phenology type	Leaf Physiology Database	Jens	Kattge	Max Planck Institute for Biogeochemistry	
3019258	29511839	22543	Eucalyptus globulus	147.51	-42.82			Plant biomass and allometry: Whole plant aboveground mass	BAAD: a biomass and allometry database for woody plants	Daniel	Falster	University of New South Wales	
4446328	49654222	22543	Eucalyptus globulus	147.51	-42.82		2000 to 2005	Leaf photosynthesis pathway	FRED - Fine Root Ecology Database	Colleen	Iversen		
3019250	29511567	22543	Eucalyptus globulus	147.51	-42.82			Plant biomass and allometry: Whole plant aboveground mass	BAAD: a biomass and allometry database for woody plants	Daniel	Falster	University of New South Wales	
4444739	49600375	22543	Eucalyptus globulus	147.51	-42.82		2000 to 2005	Plant growth form	FRED - Fine Root Ecology Database	Colleen	Iversen		
4444733	49600171	22543	Eucalyptus globulus	147.51	-42.82		2000 to 2005	Leaf phenology type	FRED - Fine Root Ecology Database	Colleen	Iversen		
4404889	48144340	22543	Eucalyptus globulus	147.51	-42.82		2000 to 2005	Plant biomass and allometry: Coarse root dry mass per plant	FRED - Fine Root Ecology Database	Colleen	Iversen		
4446331	49654342	22543	Eucalyptus globulus	147.51	-42.82		2000 to 2005	Plant biomass and allometry: Leaf dry mass per plant	FRED - Fine Root Ecology Database	Colleen	Iversen		
1310460	9139394	22543	Eucalyptus globulus	147.6	-42.82		1993-11-01	Leaf photosynthesis pathway	Leaf Physiology Database	Jens	Kattge	Max Planck Institute for Biogeochemistry	
3019255	29511733	22543	Eucalyptus globulus	147.51	-42.82			Stem diameter	BAAD: a biomass and allometry database for woody plants	Daniel	Falster	University of New South Wales	
4446325	49654126	22543	Eucalyptus globulus	147.51	-42.82		2000 to 2005	Plant growth form	FRED - Fine Root Ecology Database	Colleen	Iversen		
3019247	29511461	22543	Eucalyptus globulus	147.51	-42.82			Stem diameter	BAAD: a biomass and allometry database for woody plants	Daniel	Falster	University of New South Wales	
3019290	29512977	22543	Eucalyptus globulus	147.51	-42.82			Leaf area per plant	BAAD: a biomass and allometry database for woody plants	Daniel	Falster	University of New South Wales	
3019273	29512356	22543	Eucalyptus globulus	147.51	-42.82			Leaf area per plant	BAAD: a biomass and allometry database for woody plants	Daniel	Falster	University of New South Wales	
3019285	29512782	22543	Eucalyptus globulus	147.51	-42.82			Plant functional type (PFT)	BAAD: a biomass and allometry database for woody plants	Daniel	Falster	University of New South Wales	
3019242	29511293	22543	Eucalyptus globulus	147.51	-42.82			Plant biomass and allometry: Leaf mass (dry or fresh) per plant	BAAD: a biomass and allometry database for woody plants	Daniel	Falster	University of New South Wales	
1310473	9139771	22543	Eucalyptus globulus	147.6	-42.82		1994-04-14	Leaf photosynthesis pathway	Leaf Physiology Database	Jens	Kattge	Max Planck Institute for Biogeochemistry	
4404885	48144209	22543	Eucalyptus globulus	147.51	-42.82		2000 to 2005	Leaf type	FRED - Fine Root Ecology Database	Colleen	Iversen		
3019266	29512109	22543	Eucalyptus globulus	147.51	-42.82			Plant functional type (PFT)	BAAD: a biomass and allometry database for woody plants	Daniel	Falster	University of New South Wales	
3019279	29512562	22543	Eucalyptus globulus	147.51	-42.82			Plant functional type (PFT)	BAAD: a biomass and allometry database for woody plants	Daniel	Falster	University of New South Wales	
4446335	49654447	22543	Eucalyptus globulus	147.51	-42.82		2000 to 2005	Leaf photosynthesis pathway	FRED - Fine Root Ecology Database	Colleen	Iversen		
3019232	29510968	22543	Eucalyptus globulus	147.51	-42.82			Plant height vegetative	BAAD: a biomass and allometry database for woody plants	Daniel	Falster	University of New South Wales	
4404877	48143955	22543	Eucalyptus globulus	147.51	-42.82		2000 to 2005	Mycorrhiza type	FRED - Fine Root Ecology Database	Colleen	Iversen		
3019292	29513056	22543	Eucalyptus globulus	147.51	-42.82			Plant biomass and allometry: Wood (sapwood) cross-sectional area at base	BAAD: a biomass and allometry database for woody plants	Daniel	Falster	University of New South Wales	
4444740	49600413	22543	Eucalyptus globulus	147.51	-42.82		2000 to 2005	Plant biomass and allometry: Root dry mass per plant	FRED - Fine Root Ecology Database	Colleen	Iversen		
3019277	29512497	22543	Eucalyptus globulus	147.51	-42.82			Plant biomass and allometry: Wood (sapwood) cross-sectional area at base	BAAD: a biomass and allometry database for woody plants	Daniel	Falster	University of New South Wales	
3019288	29512897	22543	Eucalyptus globulus	147.51	-42.82			Plant functional type (PFT)	BAAD: a biomass and allometry database for woody plants	Daniel	Falster	University of New South Wales	
1310478	9139918	22543	Eucalyptus globulus	147.6	-42.82		1994-06-21	Species occurrence range: climate type	Leaf Physiology Database	Jens	Kattge	Max Planck Institute for Biogeochemistry	
3019270	29512251	22543	Eucalyptus globulus	147.51	-42.82			Leaf area per plant	BAAD: a biomass and allometry database for woody plants	Daniel	Falster	University of New South Wales	
3019282	29512679	22543	Eucalyptus globulus	147.51	-42.82			Plant biomass and allometry: Coarse root mass per plant	BAAD: a biomass and allometry database for woody plants	Daniel	Falster	University of New South Wales	
3019238	29511161	22543	Eucalyptus globulus	147.51	-42.82			Stem diameter	BAAD: a biomass and allometry database for woody plants	Daniel	Falster	University of New South Wales	
1310469	9139656	22543	Eucalyptus globulus	147.6	-42.82		1994-04-14	Leaf type	Leaf Physiology Database	Jens	Kattge	Max Planck Institute for Biogeochemistry	
4404882	48144110	22543	Eucalyptus globulus	147.51	-42.82		2000 to 2005	Leaf type	FRED - Fine Root Ecology Database	Colleen	Iversen		
3019263	29512004	22543	Eucalyptus globulus	147.51	-42.82			Plant functional type (PFT)	BAAD: a biomass and allometry database for woody plants	Daniel	Falster	University of New South Wales	
3019228	29510837	22543	Eucalyptus globulus	147.51	-42.82			Plant height vegetative	BAAD: a biomass and allometry database for woody plants	Daniel	Falster	University of New South Wales	
4444737	49600308	22543	Eucalyptus globulus	147.51	-42.82		2000 to 2005	Leaf phenology type	FRED - Fine Root Ecology Database	Colleen	Iversen		
4444730	49600069	22543	Eucalyptus globulus	147.51	-42.82		2000 to 2005	Plant growth form	FRED - Fine Root Ecology Database	Colleen	Iversen		
4404886	48144239	22543	Eucalyptus globulus	147.51	-42.82		2000 to 2005	Leaf phenology type	FRED - Fine Root Ecology Database	Colleen	Iversen		
3019260	29511899	22543	Eucalyptus globulus	147.51	-42.82			Plant functional type (PFT)	BAAD: a biomass and allometry database for woody plants	Daniel	Falster	University of New South Wales	
4446329	49654255	22543	Eucalyptus globulus	147.51	-42.82		2000 to 2005	Leaf photosynthesis pathway	FRED - Fine Root Ecology Database	Colleen	Iversen		
1310455	9139252	22543	Eucalyptus globulus	147.6	-42.82			Leaf type	Leaf Physiology Database	Jens	Kattge	Max Planck Institute for Biogeochemistry	
3019252	29511627	22543	Eucalyptus globulus	147.51	-42.82			Plant functional type (PFT)	BAAD: a biomass and allometry database for woody plants	Daniel	Falster	University of New South Wales	
3019292	29513067	22543	Eucalyptus globulus	147.51	-42.82			Plant biomass and allometry: Root mass per plant	BAAD: a biomass and allometry database for woody plants	Daniel	Falster	University of New South Wales	
4444734	49600206	22543	Eucalyptus globulus	147.51	-42.82		2000 to 2005	Leaf phenology type	FRED - Fine Root Ecology Database	Colleen	Iversen		
4446333	49654384	22543	Eucalyptus globulus	147.51	-42.82		2000 to 2005	Leaf type	FRED - Fine Root Ecology Database	Colleen	Iversen		
1310462	9139434	22543	Eucalyptus globulus	147.6	-42.82		1993-12-25	Leaf photosynthesis rate per leaf area	Leaf Physiology Database	Jens	Kattge	Max Planck Institute for Biogeochemistry	
3019256	29511770	22543	Eucalyptus globulus	147.51	-42.82			Plant biomass and allometry: Stem mass (including branches) per plant	BAAD: a biomass and allometry database for woody plants	Daniel	Falster	University of New South Wales	
4446326	49654160	22543	Eucalyptus globulus	147.51	-42.82		2000 to 2005	Mycorrhiza type	FRED - Fine Root Ecology Database	Colleen	Iversen		
3019248	29511498	22543	Eucalyptus globulus	147.51	-42.82			Plant biomass and allometry: Stem mass (including branches) per plant	BAAD: a biomass and allometry database for woody plants	Daniel	Falster	University of New South Wales	
3019274	29512392	22543	Eucalyptus globulus	147.51	-42.82			Plant biomass and allometry: Wood (sapwood) cross-sectional area at base	BAAD: a biomass and allometry database for woody plants	Daniel	Falster	University of New South Wales	
3019285	29512794	22543	Eucalyptus globulus	147.51	-42.82			Plant biomass and allometry: Root mass per plant	BAAD: a biomass and allometry database for woody plants	Daniel	Falster	University of New South Wales	
3019243	29511329	22543	Eucalyptus globulus	147.51	-42.82			Plant biomass and allometry: Whole plant aboveground mass	BAAD: a biomass and allometry database for woody plants	Daniel	Falster	University of New South Wales	
1310475	9139811	22543	Eucalyptus globulus	147.6	-42.82		1994-06-21	Leaf photosynthesis rate per leaf area	Leaf Physiology Database	Jens	Kattge	Max Planck Institute for Biogeochemistry	
3019267	29512146	22543	Eucalyptus globulus	147.51	-42.82			Leaf area per plant	BAAD: a biomass and allometry database for woody plants	Daniel	Falster	University of New South Wales	
3019280	29512599	22543	Eucalyptus globulus	147.51	-42.82			Plant biomass and allometry: Stem cross-sectional area at base of the plant	BAAD: a biomass and allometry database for woody plants	Daniel	Falster	University of New South Wales	
4446336	49654480	22543	Eucalyptus globulus	147.51	-42.82		2000 to 2005	Plant woodiness	FRED - Fine Root Ecology Database	Colleen	Iversen		
3019234	29511030	22543	Eucalyptus globulus	147.51	-42.82			Leaf area per plant	BAAD: a biomass and allometry database for woody plants	Daniel	Falster	University of New South Wales	
1310465	9139541	22543	Eucalyptus globulus	147.6	-42.82		1993-12-25	Species occurrence range: climate type	Leaf Physiology Database	Jens	Kattge	Max Planck Institute for Biogeochemistry	
4404879	48144011	22543	Eucalyptus globulus	147.51	-42.82		2000 to 2005	Leaf type	FRED - Fine Root Ecology Database	Colleen	Iversen		
3019261	29511936	22543	Eucalyptus globulus	147.51	-42.82			Leaf area per plant	BAAD: a biomass and allometry database for woody plants	Daniel	Falster	University of New South Wales	
4446330	49654288	22543	Eucalyptus globulus	147.51	-42.82		2000 to 2005	Leaf photosynthesis pathway	FRED - Fine Root Ecology Database	Colleen	Iversen		
1310458	9139329	22543	Eucalyptus globulus	147.6	-42.82		1993-11-01	Plant nitrogen(N) fixation capacity	Leaf Physiology Database	Jens	Kattge	Max Planck Institute for Biogeochemistry	
3019253	29511664	22543	Eucalyptus globulus	147.51	-42.82			Plant biomass and allometry: Stem cross-sectional area at base of the plant	BAAD: a biomass and allometry database for woody plants	Daniel	Falster	University of New South Wales	
4446323	49654063	22543	Eucalyptus globulus	147.51	-42.82		2000 to 2005	Leaf photosynthesis pathway	FRED - Fine Root Ecology Database	Colleen	Iversen		
3019288	29512909	22543	Eucalyptus globulus	147.51	-42.82			Plant biomass and allometry: Fine root mass per plant	BAAD: a biomass and allometry database for woody plants	Daniel	Falster	University of New South Wales	
3019271	29512287	22543	Eucalyptus globulus	147.51	-42.82			Plant biomass and allometry: Wood (sapwood) cross-sectional area at base	BAAD: a biomass and allometry database for woody plants	Daniel	Falster	University of New South Wales	
3019283	29512715	22543	Eucalyptus globulus	147.51	-42.82			Plant biomass and allometry: Branch mass per plant	BAAD: a biomass and allometry database for woody plants	Daniel	Falster	University of New South Wales	
3019239	29511198	22543	Eucalyptus globulus	147.51	-42.82			Plant biomass and allometry: Leaf mass (dry or fresh) per plant	BAAD: a biomass and allometry database for woody plants	Daniel	Falster	University of New South Wales	
1310471	9139706	22543	Eucalyptus globulus	147.6	-42.82		1994-04-14	Plant nitrogen(N) fixation capacity	Leaf Physiology Database	Jens	Kattge	Max Planck Institute for Biogeochemistry	
4404883	48144144	22543	Eucalyptus globulus	147.51	-42.82		2000 to 2005	Leaf photosynthesis pathway	FRED - Fine Root Ecology Database	Colleen	Iversen		
3019264	29512041	22543	Eucalyptus globulus	147.51	-42.82			Leaf area per plant	BAAD: a biomass and allometry database for woody plants	Daniel	Falster	University of New South Wales	
3019229	29510873	22543	Eucalyptus globulus	147.51	-42.82			Stem diameter	BAAD: a biomass and allometry database for woody plants	Daniel	Falster	University of New South Wales	
3019290	29512988	22543	Eucalyptus globulus	147.51	-42.82			Plant biomass and allometry: Coarse root mass per plant	BAAD: a biomass and allometry database for woody plants	Daniel	Falster	University of New South Wales	
4444731	49600104	22543	Eucalyptus globulus	147.51	-42.82		2000 to 2005	Plant growth form	FRED - Fine Root Ecology Database	Colleen	Iversen		
4404887	48144273	22543	Eucalyptus globulus	147.51	-42.82		2000 to 2005	Plant growth form	FRED - Fine Root Ecology Database	Colleen	Iversen		
4446337	49654514	22543	Eucalyptus globulus	147.51	-42.82		2000 to 2005	Coarse root to fine root mass ratio	FRED - Fine Root Ecology Database	Colleen	Iversen		
3019235	29511067	22543	Eucalyptus globulus	147.51	-42.82			Plant biomass and allometry: Leaf mass (dry or fresh) per plant	BAAD: a biomass and allometry database for woody plants	Daniel	Falster	University of New South Wales	
1310467	9139595	22543	Eucalyptus globulus	147.6	-42.82		1993-12-25	Plant growth form	Leaf Physiology Database	Jens	Kattge	Max Planck Institute for Biogeochemistry	
4404880	48144045	22543	Eucalyptus globulus	147.51	-42.82		2000 to 2005	Leaf photosynthesis pathway	FRED - Fine Root Ecology Database	Colleen	Iversen		
3019225	29510742	22543	Eucalyptus globulus	147.51	-42.82			Stem diameter	BAAD: a biomass and allometry database for woody plants	Daniel	Falster	University of New South Wales	
4444735	49600241	22543	Eucalyptus globulus	147.51	-42.82		2000 to 2005	Leaf phenology type	FRED - Fine Root Ecology Database	Colleen	Iversen		
4444728	49600002	22543	Eucalyptus globulus	147.51	-42.82		2000 to 2005	Leaf phenology type	FRED - Fine Root Ecology Database	Colleen	Iversen		
4446334	49654417	22543	Eucalyptus globulus	147.51	-42.82		2000 to 2005	Plant growth form	FRED - Fine Root Ecology Database	Colleen	Iversen		
1310463	9139480	22543	Eucalyptus globulus	147.6	-42.82		1993-12-25	Leaf phenology type	Leaf Physiology Database	Jens	Kattge	Max Planck Institute for Biogeochemistry	
3019257	29511806	22543	Eucalyptus globulus	147.51	-42.82			Plant biomass and allometry: Branch mass per plant	BAAD: a biomass and allometry database for woody plants	Daniel	Falster	University of New South Wales	
4446327	49654193	22543	Eucalyptus globulus	147.51	-42.82		2000 to 2005	Mycorrhiza type	FRED - Fine Root Ecology Database	Colleen	Iversen		
3019249	29511534	22543	Eucalyptus globulus	147.51	-42.82			Plant biomass and allometry: Branch mass per plant	BAAD: a biomass and allometry database for woody plants	Daniel	Falster	University of New South Wales	
4444738	49600343	22543	Eucalyptus globulus	147.51	-42.82		2000 to 2005	Plant growth form	FRED - Fine Root Ecology Database	Colleen	Iversen		
3019275	29512428	22543	Eucalyptus globulus	147.51	-42.82			Plant biomass and allometry: Stem cross-sectional area at base of the plant	BAAD: a biomass and allometry database for woody plants	Daniel	Falster	University of New South Wales	
3019286	29512830	22543	Eucalyptus globulus	147.51	-42.82			Plant biomass and allometry: Fine root mass per plant	BAAD: a biomass and allometry database for woody plants	Daniel	Falster	University of New South Wales	
3019245	29511389	22543	Eucalyptus globulus	147.51	-42.82			Plant functional type (PFT)	BAAD: a biomass and allometry database for woody plants	Daniel	Falster	University of New South Wales	
1310476	9139857	22543	Eucalyptus globulus	147.6	-42.82		1994-06-21	Leaf phenology type	Leaf Physiology Database	Jens	Kattge	Max Planck Institute for Biogeochemistry	
3019268	29512182	22543	Eucalyptus globulus	147.51	-42.82			Plant biomass and allometry: Wood (sapwood) cross-sectional area at base	BAAD: a biomass and allometry database for woody plants	Daniel	Falster	University of New South Wales	
3019281	29512636	22543	Eucalyptus globulus	147.51	-42.82			Plant biomass and allometry: Leaf mass (dry or fresh) per plant	BAAD: a biomass and allometry database for woody plants	Daniel	Falster	University of New South Wales	
4404888	48144309	22543	Eucalyptus globulus	147.51	-42.82		2000 to 2005	Plant biomass and allometry: Coarse root dry mass per plant	FRED - Fine Root Ecology Database	Colleen	Iversen		
3019262	29511972	22543	Eucalyptus globulus	147.51	-42.82			Plant biomass and allometry: Wood (sapwood) cross-sectional area at base	BAAD: a biomass and allometry database for woody plants	Daniel	Falster	University of New South Wales	
4446331	49654321	22543	Eucalyptus globulus	147.51	-42.82		2000 to 2005	Leaf photosynthesis pathway	FRED - Fine Root Ecology Database	Colleen	Iversen		
1310459	9139365	22543	Eucalyptus globulus	147.6	-42.82		1993-11-01	Leaf photosynthesis pathway	Leaf Physiology Database	Jens	Kattge	Max Planck Institute for Biogeochemistry	
3019254	29511701	22543	Eucalyptus globulus	147.51	-42.82			Plant biomass and allometry: Leaf mass (dry or fresh) per plant	BAAD: a biomass and allometry database for woody plants	Daniel	Falster	University of New South Wales	
4446324	49654096	22543	Eucalyptus globulus	147.51	-42.82		2000 to 2005	Plant woodiness	FRED - Fine Root Ecology Database	Colleen	Iversen		
3019246	29511429	22543	Eucalyptus globulus	147.51	-42.82			Plant biomass and allometry: Leaf mass (dry or fresh) per plant	BAAD: a biomass and allometry database for woody plants	Daniel	Falster	University of New South Wales	
3019289	29512944	22543	Eucalyptus globulus	147.51	-42.82			Stem diameter	BAAD: a biomass and allometry database for woody plants	Daniel	Falster	University of New South Wales	
3019272	29512323	22543	Eucalyptus globulus	147.51	-42.82			Plant biomass and allometry: Stem cross-sectional area at base of the plant	BAAD: a biomass and allometry database for woody plants	Daniel	Falster	University of New South Wales	
3019284	29512751	22543	Eucalyptus globulus	147.51	-42.82			Plant biomass and allometry: Stem mass (including branches) per plant	BAAD: a biomass and allometry database for woody plants	Daniel	Falster	University of New South Wales	
3019241	29511259	22543	Eucalyptus globulus	147.51	-42.82			Plant height vegetative	BAAD: a biomass and allometry database for woody plants	Daniel	Falster	University of New South Wales	
1310472	9139742	22543	Eucalyptus globulus	147.6	-42.82		1994-04-14	Leaf photosynthesis pathway	Leaf Physiology Database	Jens	Kattge	Max Planck Institute for Biogeochemistry	
4404884	48144178	22543	Eucalyptus globulus	147.51	-42.82		2000 to 2005	Plant growth form	FRED - Fine Root Ecology Database	Colleen	Iversen		
3019265	29512077	22543	Eucalyptus globulus	147.51	-42.82			Plant biomass and allometry: Wood (sapwood) cross-sectional area at base	BAAD: a biomass and allometry database for woody plants	Daniel	Falster	University of New South Wales	
3019231	29510935	22543	Eucalyptus globulus	147.51	-42.82			Plant biomass and allometry: Stem cross-sectional area at base of the plant	BAAD: a biomass and allometry database for woody plants	Daniel	Falster	University of New South Wales	
4404876	48143924	22543	Eucalyptus globulus	147.51	-42.82		2000 to 2005	Mycorrhiza type	FRED - Fine Root Ecology Database	Colleen	Iversen		
3019291	29513024	22543	Eucalyptus globulus	147.51	-42.82			Plant biomass and allometry: Leaf mass (dry or fresh) per plant	BAAD: a biomass and allometry database for woody plants	Daniel	Falster	University of New South Wales	
4444732	49600139	22543	Eucalyptus globulus	147.51	-42.82		2000 to 2005	Plant growth form	FRED - Fine Root Ecology Database	Colleen	Iversen		
3019276	29512464	22543	Eucalyptus globulus	147.51	-42.82			Stem diameter	BAAD: a biomass and allometry database for woody plants	Daniel	Falster	University of New South Wales	
3019287	29512865	22543	Eucalyptus globulus	147.51	-42.82			Stem diameter	BAAD: a biomass and allometry database for woody plants	Daniel	Falster	University of New South Wales	
1310477	9139889	22543	Eucalyptus globulus	147.6	-42.82		1994-06-21	Species occurrence range: climate type	Leaf Physiology Database	Jens	Kattge	Max Planck Institute for Biogeochemistry	
3019269	29512218	22543	Eucalyptus globulus	147.51	-42.82			Plant biomass and allometry: Stem cross-sectional area at base of the plant	BAAD: a biomass and allometry database for woody plants	Daniel	Falster	University of New South Wales	
3019282	29512671	22543	Eucalyptus globulus	147.51	-42.82			Plant biomass and allometry: Stem cross-sectional area at base of the plant	BAAD: a biomass and allometry database for woody plants	Daniel	Falster	University of New South Wales	
3019237	29511128	22543	Eucalyptus globulus	147.51	-42.82			Plant height vegetative	BAAD: a biomass and allometry database for woody plants	Daniel	Falster	University of New South Wales	
1310468	9139627	22543	Eucalyptus globulus	147.6	-42.82		1994-04-14	Leaf type	Leaf Physiology Database	Jens	Kattge	Max Planck Institute for Biogeochemistry	
4404881	48144079	22543	Eucalyptus globulus	147.51	-42.82		2000 to 2005	Plant growth form	FRED - Fine Root Ecology Database	Colleen	Iversen		
3019227	29510804	22543	Eucalyptus globulus	147.51	-42.82			Plant biomass and allometry: Stem cross-sectional area at base of the plant	BAAD: a biomass and allometry database for woody plants	Daniel	Falster	University of New South Wales	
4444736	49600276	22543	Eucalyptus globulus	147.51	-42.82		2000 to 2005	Leaf phenology type	FRED - Fine Root Ecology Database	Colleen	Iversen		
4444729	49600037	22543	Eucalyptus globulus	147.51	-42.82		2000 to 2005	Plant growth form	FRED - Fine Root Ecology Database	Colleen	Iversen		
1310464	9139512	22543	Eucalyptus globulus	147.6	-42.82		1993-12-25	Species occurrence range: climate type	Leaf Physiology Database	Jens	Kattge	Max Planck Institute for Biogeochemistry	
3019259	29511867	22543	Eucalyptus globulus	147.51	-42.82			Leaf area per plant	BAAD: a biomass and allometry database for woody plants	Daniel	Falster	University of New South Wales	
4446328	49654226	22543	Eucalyptus globulus	147.51	-42.82		2000 to 2005	Mycorrhiza type	FRED - Fine Root Ecology Database	Colleen	Iversen		
3019251	29511595	22543	Eucalyptus globulus	147.51	-42.82			Leaf area per plant	BAAD: a biomass and allometry database for woody plants	Daniel	Falster	University of New South Wales	
4444739	49600381	22543	Eucalyptus globulus	147.51	-42.82		2000 to 2005	Plant biomass and allometry: Root dry mass per plant	FRED - Fine Root Ecology Database	Colleen	Iversen		
4444733	49600174	22543	Eucalyptus globulus	147.51	-42.82		2000 to 2005	Plant growth form	FRED - Fine Root Ecology Database	Colleen	Iversen		
4404890	48144365	22543	Eucalyptus globulus	147.51	-42.82		2000 to 2005	Leaf photosynthesis pathway	FRED - Fine Root Ecology Database	Colleen	Iversen		
4446332	49654354	22543	Eucalyptus globulus	147.51	-42.82		2000 to 2005	Leaf photosynthesis pathway	FRED - Fine Root Ecology Database	Colleen	Iversen		
1310461	9139405	22543	Eucalyptus globulus	147.6	-42.82		1993-12-25	Leaf photosynthesis rate per leaf area	Leaf Physiology Database	Jens	Kattge	Max Planck Institute for Biogeochemistry	
3019255	29511737	22543	Eucalyptus globulus	147.51	-42.82			Plant biomass and allometry: Whole plant aboveground mass	BAAD: a biomass and allometry database for woody plants	Daniel	Falster	University of New South Wales	
4446325	49654130	22543	Eucalyptus globulus	147.51	-42.82		2000 to 2005	Coarse root to fine root mass ratio	FRED - Fine Root Ecology Database	Colleen	Iversen		
3019247	29511465	22543	Eucalyptus globulus	147.51	-42.82			Plant biomass and allometry: Whole plant aboveground mass	BAAD: a biomass and allometry database for woody plants	Daniel	Falster	University of New South Wales	
3019273	29512359	22543	Eucalyptus globulus	147.51	-42.82			Stem diameter	BAAD: a biomass and allometry database for woody plants	Daniel	Falster	University of New South Wales	
3019285	29512786	22543	Eucalyptus globulus	147.51	-42.82			Stem diameter	BAAD: a biomass and allometry database for woody plants	Daniel	Falster	University of New South Wales	
3019242	29511296	22543	Eucalyptus globulus	147.51	-42.82			Plant biomass and allometry: Branch mass per plant	BAAD: a biomass and allometry database for woody plants	Daniel	Falster	University of New South Wales	
1310474	9139782	22543	Eucalyptus globulus	147.6	-42.82		1994-06-21	Leaf photosynthesis rate per leaf area	Leaf Physiology Database	Jens	Kattge	Max Planck Institute for Biogeochemistry	
3019266	29512113	22543	Eucalyptus globulus	147.51	-42.82			Plant biomass and allometry: Stem cross-sectional area at base of the plant	BAAD: a biomass and allometry database for woody plants	Daniel	Falster	University of New South Wales	
3019279	29512566	22543	Eucalyptus globulus	147.51	-42.82			Stem diameter	BAAD: a biomass and allometry database for woody plants	Daniel	Falster	University of New South Wales	
4446335	49654451	22543	Eucalyptus globulus	147.51	-42.82		2000 to 2005	Mycorrhiza type	FRED - Fine Root Ecology Database	Colleen	Iversen		
3019233	29510996	22543	Eucalyptus globulus	147.51	-42.82			Plant functional type (PFT)	BAAD: a biomass and allometry database for woody plants	Daniel	Falster	University of New South Wales	
4404878	48143980	22543	Eucalyptus globulus	147.51	-42.82		2000 to 2005	Leaf type	FRED - Fine Root Ecology Database	Colleen	Iversen		
3019292	29513059	22543	Eucalyptus globulus	147.51	-42.82			Plant biomass and allometry: Stem cross-sectional area at breast height	BAAD: a biomass and allometry database for woody plants	Daniel	Falster	University of New South Wales	
1310457	9139300	22543	Eucalyptus globulus	147.6	-42.82		1993-11-01	Plant nitrogen(N) fixation capacity	Leaf Physiology Database	Jens	Kattge	Max Planck Institute for Biogeochemistry	
3019252	29511631	22543	Eucalyptus globulus	147.51	-42.82			Stem diameter	BAAD: a biomass and allometry database for woody plants	Daniel	Falster	University of New South Wales	
4444741	49600438	22543	Eucalyptus globulus	147.51	-42.82		2000 to 2005	Leaf photosynthesis pathway	FRED - Fine Root Ecology Database	Colleen	Iversen		
3019277	29512501	22543	Eucalyptus globulus	147.51	-42.82			Plant biomass and allometry: Leaf mass (dry or fresh) per plant	BAAD: a biomass and allometry database for woody plants	Daniel	Falster	University of New South Wales	
3019288	29512901	22543	Eucalyptus globulus	147.51	-42.82			Plant biomass and allometry: Wood (sapwood) cross-sectional area at breast height	BAAD: a biomass and allometry database for woody plants	Daniel	Falster	University of New South Wales	
3019270	29512254	22543	Eucalyptus globulus	147.51	-42.82			Stem diameter	BAAD: a biomass and allometry database for woody plants	Daniel	Falster	University of New South Wales	
3019283	29512706	22543	Eucalyptus globulus	147.51	-42.82			Plant functional type (PFT)	BAAD: a biomass and allometry database for woody plants	Daniel	Falster	University of New South Wales	
3019238	29511165	22543	Eucalyptus globulus	147.51	-42.82			Plant biomass and allometry: Whole plant aboveground mass	BAAD: a biomass and allometry database for woody plants	Daniel	Falster	University of New South Wales	
1310470	9139677	22543	Eucalyptus globulus	147.6	-42.82		1994-04-14	Plant nitrogen(N) fixation capacity	Leaf Physiology Database	Jens	Kattge	Max Planck Institute for Biogeochemistry	
4404882	48144113	22543	Eucalyptus globulus	147.51	-42.82		2000 to 2005	Plant woodiness	FRED - Fine Root Ecology Database	Colleen	Iversen		
3019263	29512008	22543	Eucalyptus globulus	147.51	-42.82			Plant biomass and allometry: Stem cross-sectional area at base of the plant	BAAD: a biomass and allometry database for woody plants	Daniel	Falster	University of New South Wales	
3019228	29510841	22543	Eucalyptus globulus	147.51	-42.82			Plant biomass and allometry: Stem mass (including branches) per plant	BAAD: a biomass and allometry database for woody plants	Daniel	Falster	University of New South Wales	
3019290	29512980	22543	Eucalyptus globulus	147.51	-42.82			Plant biomass and allometry: Stem cross-sectional area at base of the plant	BAAD: a biomass and allometry database for woody plants	Daniel	Falster	University of New South Wales	
4444737	49600311	22543	Eucalyptus globulus	147.51	-42.82		2000 to 2005	Plant growth form	FRED - Fine Root Ecology Database	Colleen	Iversen		
4444730	49600075	22543	Eucalyptus globulus	147.51	-42.82		2000 to 2005	Root dry mass to leaf dry mass ratio	FRED - Fine Root Ecology Database	Colleen	Iversen		
4404886	48144242	22543	Eucalyptus globulus	147.51	-42.82		2000 to 2005	Plant growth form	FRED - Fine Root Ecology Database	Colleen	Iversen		
3019260	29511903	22543	Eucalyptus globulus	147.51	-42.82			Plant biomass and allometry: Stem cross-sectional area at base of the plant	BAAD: a biomass and allometry database for woody plants	Daniel	Falster	University of New South Wales	
4446329	49654259	22543	Eucalyptus globulus	147.51	-42.82		2000 to 2005	Mycorrhiza type	FRED - Fine Root Ecology Database	Colleen	Iversen		
4444734	49600209	22543	Eucalyptus globulus	147.51	-42.82		2000 to 2005	Plant growth form	FRED - Fine Root Ecology Database	Colleen	Iversen		
4444727	49599970	22543	Eucalyptus globulus	147.51	-42.82		2000 to 2005	Leaf phenology type	FRED - Fine Root Ecology Database	Colleen	Iversen		
4446333	49654387	22543	Eucalyptus globulus	147.51	-42.82		2000 to 2005	Plant woodiness	FRED - Fine Root Ecology Database	Colleen	Iversen		
1310462	9139451	22543	Eucalyptus globulus	147.6	-42.82		1993-12-25	Leaf phenology type	Leaf Physiology Database	Jens	Kattge	Max Planck Institute for Biogeochemistry	
3019257	29511797	22543	Eucalyptus globulus	147.51	-42.82			Plant functional type (PFT)	BAAD: a biomass and allometry database for woody plants	Daniel	Falster	University of New South Wales	
4446326	49654163	22543	Eucalyptus globulus	147.51	-42.82		2000 to 2005	Plant biomass and allometry: Root dry mass per plant	FRED - Fine Root Ecology Database	Colleen	Iversen		
3019249	29511525	22543	Eucalyptus globulus	147.51	-42.82			Plant functional type (PFT)	BAAD: a biomass and allometry database for woody plants	Daniel	Falster	University of New South Wales	
3019274	29512396	22543	Eucalyptus globulus	147.51	-42.82			Plant biomass and allometry: Leaf mass (dry or fresh) per plant	BAAD: a biomass and allometry database for woody plants	Daniel	Falster	University of New South Wales	
3019286	29512822	22543	Eucalyptus globulus	147.51	-42.82			Leaf area per plant	BAAD: a biomass and allometry database for woody plants	Daniel	Falster	University of New South Wales	
3019244	29511357	22543	Eucalyptus globulus	147.51	-42.82			Leaf area per plant	BAAD: a biomass and allometry database for woody plants	Daniel	Falster	University of New South Wales	
1310475	9139828	22543	Eucalyptus globulus	147.6	-42.82		1994-06-21	Leaf phenology type	Leaf Physiology Database	Jens	Kattge	Max Planck Institute for Biogeochemistry	
3019267	29512149	22543	Eucalyptus globulus	147.51	-42.82			Stem diameter	BAAD: a biomass and allometry database for woody plants	Daniel	Falster	University of New South Wales	
3019280	29512603	22543	Eucalyptus globulus	147.51	-42.82			Plant biomass and allometry: Coarse root mass per plant	BAAD: a biomass and allometry database for woody plants	Daniel	Falster	University of New South Wales	
4446336	49654484	22543	Eucalyptus globulus	147.51	-42.82		2000 to 2005	Plant biomass and allometry: Root dry mass per plant	FRED - Fine Root Ecology Database	Colleen	Iversen		
3019234	29511033	22543	Eucalyptus globulus	147.51	-42.82			Stem diameter	BAAD: a biomass and allometry database for woody plants	Daniel	Falster	University of New South Wales	
1310466	9139566	22543	Eucalyptus globulus	147.6	-42.82		1993-12-25	Plant growth form	Leaf Physiology Database	Jens	Kattge	Max Planck Institute for Biogeochemistry	
4404879	48144014	22543	Eucalyptus globulus	147.51	-42.82		2000 to 2005	Plant woodiness	FRED - Fine Root Ecology Database	Colleen	Iversen		
3019261	29511939	22543	Eucalyptus globulus	147.51	-42.82			Stem diameter	BAAD: a biomass and allometry database for woody plants	Daniel	Falster	University of New South Wales	
4446330	49654292	22543	Eucalyptus globulus	147.51	-42.82		2000 to 2005	Mycorrhiza type	FRED - Fine Root Ecology Database	Colleen	Iversen		
1310458	9139336	22543	Eucalyptus globulus	147.6	-42.82		1993-11-01	Leaf photosynthesis pathway	Leaf Physiology Database	Jens	Kattge	Max Planck Institute for Biogeochemistry	
3019253	29511668	22543	Eucalyptus globulus	147.51	-42.82			Plant biomass and allometry: Stem mass (including branches) per plant	BAAD: a biomass and allometry database for woody plants	Daniel	Falster	University of New South Wales	
4446323	49654067	22543	Eucalyptus globulus	147.51	-42.82		2000 to 2005	Mycorrhiza type	FRED - Fine Root Ecology Database	Colleen	Iversen		
3019289	29512936	22543	Eucalyptus globulus	147.51	-42.82			Plant functional type (PFT)	BAAD: a biomass and allometry database for woody plants	Daniel	Falster	University of New South Wales	
3019271	29512291	22543	Eucalyptus globulus	147.51	-42.82			Plant biomass and allometry: Leaf mass (dry or fresh) per plant	BAAD: a biomass and allometry database for woody plants	Daniel	Falster	University of New South Wales	
3019283	29512718	22543	Eucalyptus globulus	147.51	-42.82			Plant biomass and allometry: Root mass per plant	BAAD: a biomass and allometry database for woody plants	Daniel	Falster	University of New South Wales	
3019240	29511226	22543	Eucalyptus globulus	147.51	-42.82			Plant biomass and allometry: Stem cross-sectional area at base of the plant	BAAD: a biomass and allometry database for woody plants	Daniel	Falster	University of New South Wales	
1310471	9139713	22543	Eucalyptus globulus	147.6	-42.82		1994-04-14	Leaf photosynthesis pathway	Leaf Physiology Database	Jens	Kattge	Max Planck Institute for Biogeochemistry	
4404883	48144149	22543	Eucalyptus globulus	147.51	-42.82		2000 to 2005	Mycorrhiza type	FRED - Fine Root Ecology Database	Colleen	Iversen		
3019264	29512044	22543	Eucalyptus globulus	147.51	-42.82			Stem diameter	BAAD: a biomass and allometry database for woody plants	Daniel	Falster	University of New South Wales	
3019230	29510902	22543	Eucalyptus globulus	147.51	-42.82			Leaf area per plant	BAAD: a biomass and allometry database for woody plants	Daniel	Falster	University of New South Wales	
3019291	29513016	22543	Eucalyptus globulus	147.51	-42.82			Leaf area per plant	BAAD: a biomass and allometry database for woody plants	Daniel	Falster	University of New South Wales	
4444731	49600110	22543	Eucalyptus globulus	147.51	-42.82		2000 to 2005	Root dry mass to leaf dry mass ratio	FRED - Fine Root Ecology Database	Colleen	Iversen		
4404887	48144278	22543	Eucalyptus globulus	147.51	-42.82		2000 to 2005	Plant biomass and allometry: Coarse root dry mass per plant	FRED - Fine Root Ecology Database	Colleen	Iversen		
1310476	9139860	22543	Eucalyptus globulus	147.6	-42.82		1994-06-21	Species occurrence range: climate type	Leaf Physiology Database	Jens	Kattge	Max Planck Institute for Biogeochemistry	
3019268	29512186	22543	Eucalyptus globulus	147.51	-42.82			Plant biomass and allometry: Leaf mass (dry or fresh) per plant	BAAD: a biomass and allometry database for woody plants	Daniel	Falster	University of New South Wales	
3019281	29512639	22543	Eucalyptus globulus	147.51	-42.82			Plant biomass and allometry: Branch mass per plant	BAAD: a biomass and allometry database for woody plants	Daniel	Falster	University of New South Wales	
3019236	29511095	22543	Eucalyptus globulus	147.51	-42.82			Plant biomass and allometry: Stem cross-sectional area at base of the plant	BAAD: a biomass and allometry database for woody plants	Daniel	Falster	University of New South Wales	
1310467	9139598	22543	Eucalyptus globulus	147.6	-42.82		1993-12-25	Leaf type	Leaf Physiology Database	Jens	Kattge	Max Planck Institute for Biogeochemistry	
4404880	48144050	22543	Eucalyptus globulus	147.51	-42.82		2000 to 2005	Mycorrhiza type	FRED - Fine Root Ecology Database	Colleen	Iversen		
3019226	29510771	22543	Eucalyptus globulus	147.51	-42.82			Leaf area per plant	BAAD: a biomass and allometry database for woody plants	Daniel	Falster	University of New South Wales	
4444735	49600244	22543	Eucalyptus globulus	147.51	-42.82		2000 to 2005	Plant growth form	FRED - Fine Root Ecology Database	Colleen	Iversen		
4444728	49600005	22543	Eucalyptus globulus	147.51	-42.82		2000 to 2005	Plant growth form	FRED - Fine Root Ecology Database	Colleen	Iversen		
1310463	9139483	22543	Eucalyptus globulus	147.6	-42.82		1993-12-25	Species occurrence range: climate type	Leaf Physiology Database	Jens	Kattge	Max Planck Institute for Biogeochemistry	
3019258	29511834	22543	Eucalyptus globulus	147.51	-42.82			Plant biomass and allometry: Stem cross-sectional area at base of the plant	BAAD: a biomass and allometry database for woody plants	Daniel	Falster	University of New South Wales	
4446327	49654196	22543	Eucalyptus globulus	147.51	-42.82		2000 to 2005	Plant biomass and allometry: Root dry mass per plant	FRED - Fine Root Ecology Database	Colleen	Iversen		
3019250	29511562	22543	Eucalyptus globulus	147.51	-42.82			Plant biomass and allometry: Stem cross-sectional area at base of the plant	BAAD: a biomass and allometry database for woody plants	Daniel	Falster	University of New South Wales	
4444738	49600349	22543	Eucalyptus globulus	147.51	-42.82		2000 to 2005	Plant biomass and allometry: Root dry mass per plant	FRED - Fine Root Ecology Database	Colleen	Iversen		
3019275	29512432	22543	Eucalyptus globulus	147.51	-42.82			Plant biomass and allometry: Stem mass (including branches) per plant	BAAD: a biomass and allometry database for woody plants	Daniel	Falster	University of New South Wales	
3019286	29512833	22543	Eucalyptus globulus	147.51	-42.82			Plant biomass and allometry: Plant mass	BAAD: a biomass and allometry database for woody plants	Daniel	Falster	University of New South Wales	
3019245	29511393	22543	Eucalyptus globulus	147.51	-42.82			Stem diameter	BAAD: a biomass and allometry database for woody plants	Daniel	Falster	University of New South Wales	
4444732	49600145	22543	Eucalyptus globulus	147.51	-42.82		2000 to 2005	Root dry mass to leaf dry mass ratio	FRED - Fine Root Ecology Database	Colleen	Iversen		
4404889	48144334	22543	Eucalyptus globulus	147.51	-42.82		2000 to 2005	Leaf photosynthesis pathway	FRED - Fine Root Ecology Database	Colleen	Iversen		
3019262	29511976	22543	Eucalyptus globulus	147.51	-42.82			Plant biomass and allometry: Leaf mass (dry or fresh) per plant	BAAD: a biomass and allometry database for woody plants	Daniel	Falster	University of New South Wales	
4446331	49654325	22543	Eucalyptus globulus	147.51	-42.82		2000 to 2005	Mycorrhiza type	FRED - Fine Root Ecology Database	Colleen	Iversen		
1310460	9139376	22543	Eucalyptus globulus	147.6	-42.82		1993-11-01	Leaf photosynthesis rate per leaf area	Leaf Physiology Database	Jens	Kattge	Max Planck Institute for Biogeochemistry	
3019254	29511704	22543	Eucalyptus globulus	147.51	-42.82			Plant biomass and allometry: Branch mass per plant	BAAD: a biomass and allometry database for woody plants	Daniel	Falster	University of New South Wales	
4446324	49654100	22543	Eucalyptus globulus	147.51	-42.82		2000 to 2005	Plant biomass and allometry: Root dry mass per plant	FRED - Fine Root Ecology Database	Colleen	Iversen		
3019246	29511432	22543	Eucalyptus globulus	147.51	-42.82			Plant biomass and allometry: Branch mass per plant	BAAD: a biomass and allometry database for woody plants	Daniel	Falster	University of New South Wales	
3019289	29512948	22543	Eucalyptus globulus	147.51	-42.82			Plant biomass and allometry: Fine root mass per plant	BAAD: a biomass and allometry database for woody plants	Daniel	Falster	University of New South Wales	
3019272	29512327	22543	Eucalyptus globulus	147.51	-42.82			Plant biomass and allometry: Stem mass (including branches) per plant	BAAD: a biomass and allometry database for woody plants	Daniel	Falster	University of New South Wales	
3019284	29512754	22543	Eucalyptus globulus	147.51	-42.82			Plant biomass and allometry: Fine root mass per plant	BAAD: a biomass and allometry database for woody plants	Daniel	Falster	University of New South Wales	
3019242	29511287	22543	Eucalyptus globulus	147.51	-42.82			Plant functional type (PFT)	BAAD: a biomass and allometry database for woody plants	Daniel	Falster	University of New South Wales	
1310473	9139753	22543	Eucalyptus globulus	147.6	-42.82		1994-04-14	Leaf photosynthesis rate per leaf area	Leaf Physiology Database	Jens	Kattge	Max Planck Institute for Biogeochemistry	
4404884	48144183	22543	Eucalyptus globulus	147.51	-42.82		2000 to 2005	Plant biomass and allometry: Coarse root mass fraction (fraction of coarse root dry mass per whole p	FRED - Fine Root Ecology Database	Colleen	Iversen		
3019265	29512081	22543	Eucalyptus globulus	147.51	-42.82			Plant biomass and allometry: Leaf mass (dry or fresh) per plant	BAAD: a biomass and allometry database for woody plants	Daniel	Falster	University of New South Wales	
3019278	29512533	22543	Eucalyptus globulus	147.51	-42.82			Stem diameter	BAAD: a biomass and allometry database for woody plants	Daniel	Falster	University of New South Wales	
4446334	49654421	22543	Eucalyptus globulus	147.51	-42.82		2000 to 2005	Coarse root to fine root mass ratio	FRED - Fine Root Ecology Database	Colleen	Iversen		
3019231	29510939	22543	Eucalyptus globulus	147.51	-42.82			Plant biomass and allometry: Leaf mass (dry or fresh) per plant	BAAD: a biomass and allometry database for woody plants	Daniel	Falster	University of New South Wales	
4404877	48143949	22543	Eucalyptus globulus	147.51	-42.82		2000 to 2005	Leaf type	FRED - Fine Root Ecology Database	Colleen	Iversen		
3019291	29513027	22543	Eucalyptus globulus	147.51	-42.82			Plant biomass and allometry: Coarse root mass per plant	BAAD: a biomass and allometry database for woody plants	Daniel	Falster	University of New South Wales	
3019276	29512468	22543	Eucalyptus globulus	147.51	-42.82			Plant biomass and allometry: Whole plant aboveground mass	BAAD: a biomass and allometry database for woody plants	Daniel	Falster	University of New South Wales	
3019287	29512869	22543	Eucalyptus globulus	147.51	-42.82			Plant biomass and allometry: Branch mass per plant	BAAD: a biomass and allometry database for woody plants	Daniel	Falster	University of New South Wales	
1310478	9139914	22543	Eucalyptus globulus	147.6	-42.82		1994-06-21	Plant growth form	Leaf Physiology Database	Jens	Kattge	Max Planck Institute for Biogeochemistry	
3019269	29512222	22543	Eucalyptus globulus	147.51	-42.82			Plant biomass and allometry: Stem mass (including branches) per plant	BAAD: a biomass and allometry database for woody plants	Daniel	Falster	University of New South Wales	
3019282	29512675	22543	Eucalyptus globulus	147.51	-42.82			Plant biomass and allometry: Stem mass (including branches) per plant	BAAD: a biomass and allometry database for woody plants	Daniel	Falster	University of New South Wales	
3019238	29511156	22543	Eucalyptus globulus	147.51	-42.82			Plant functional type (PFT)	BAAD: a biomass and allometry database for woody plants	Daniel	Falster	University of New South Wales	
1310469	9139648	22543	Eucalyptus globulus	147.6	-42.82		1994-04-14	Plant nitrogen(N) fixation capacity	Leaf Physiology Database	Jens	Kattge	Max Planck Institute for Biogeochemistry	
4404881	48144084	22543	Eucalyptus globulus	147.51	-42.82		2000 to 2005	Plant biomass and allometry: Coarse root mass fraction (fraction of coarse root dry mass per whole p	FRED - Fine Root Ecology Database	Colleen	Iversen		
3019227	29510808	22543	Eucalyptus globulus	147.51	-42.82			Plant biomass and allometry: Leaf mass (dry or fresh) per plant	BAAD: a biomass and allometry database for woody plants	Daniel	Falster	University of New South Wales	
4444736	49600279	22543	Eucalyptus globulus	147.51	-42.82		2000 to 2005	Plant growth form	FRED - Fine Root Ecology Database	Colleen	Iversen		
4444729	49600043	22543	Eucalyptus globulus	147.51	-42.82		2000 to 2005	Plant biomass and allometry: Root dry mass per plant	FRED - Fine Root Ecology Database	Colleen	Iversen		
4404885	48144211	22543	Eucalyptus globulus	147.51	-42.82		2000 to 2005	Plant growth form	FRED - Fine Root Ecology Database	Colleen	Iversen		
3019259	29511871	22543	Eucalyptus globulus	147.51	-42.82			Plant biomass and allometry: Leaf mass (dry or fresh) per plant	BAAD: a biomass and allometry database for woody plants	Daniel	Falster	University of New South Wales	
4446328	49654229	22543	Eucalyptus globulus	147.51	-42.82		2000 to 2005	Plant biomass and allometry: Root dry mass per plant	FRED - Fine Root Ecology Database	Colleen	Iversen		
1310455	9139244	22543	Eucalyptus globulus	147.6	-42.82			Plant nitrogen(N) fixation capacity	Leaf Physiology Database	Jens	Kattge	Max Planck Institute for Biogeochemistry	
3019251	29511599	22543	Eucalyptus globulus	147.51	-42.82			Plant biomass and allometry: Leaf mass (dry or fresh) per plant	BAAD: a biomass and allometry database for woody plants	Daniel	Falster	University of New South Wales	
4444740	49600406	22543	Eucalyptus globulus	147.51	-42.82		2000 to 2005	Leaf photosynthesis pathway	FRED - Fine Root Ecology Database	Colleen	Iversen		
3019292	29513063	22543	Eucalyptus globulus	147.51	-42.82			Plant biomass and allometry: Leaf mass (dry or fresh) per plant	BAAD: a biomass and allometry database for woody plants	Daniel	Falster	University of New South Wales	
4444733	49600180	22543	Eucalyptus globulus	147.51	-42.82		2000 to 2005	Root dry mass to leaf dry mass ratio	FRED - Fine Root Ecology Database	Colleen	Iversen		
4404890	48144370	22543	Eucalyptus globulus	147.51	-42.82		2000 to 2005	Mycorrhiza type	FRED - Fine Root Ecology Database	Colleen	Iversen		
4446332	49654358	22543	Eucalyptus globulus	147.51	-42.82		2000 to 2005	Mycorrhiza type	FRED - Fine Root Ecology Database	Colleen	Iversen		
1310461	9139422	22543	Eucalyptus globulus	147.6	-42.82		1993-12-25	Leaf phenology type	Leaf Physiology Database	Jens	Kattge	Max Planck Institute for Biogeochemistry	
3019256	29511765	22543	Eucalyptus globulus	147.51	-42.82			Leaf area per plant	BAAD: a biomass and allometry database for woody plants	Daniel	Falster	University of New South Wales	
4446326	49654155	22543	Eucalyptus globulus	147.51	-42.82		2000 to 2005	Leaf type	FRED - Fine Root Ecology Database	Colleen	Iversen		
3019248	29511493	22543	Eucalyptus globulus	147.51	-42.82			Leaf area per plant	BAAD: a biomass and allometry database for woody plants	Daniel	Falster	University of New South Wales	
3019273	29512363	22543	Eucalyptus globulus	147.51	-42.82			Plant biomass and allometry: Whole plant aboveground mass	BAAD: a biomass and allometry database for woody plants	Daniel	Falster	University of New South Wales	
3019285	29512790	22543	Eucalyptus globulus	147.51	-42.82			Plant biomass and allometry: Whole plant aboveground mass	BAAD: a biomass and allometry database for woody plants	Daniel	Falster	University of New South Wales	
3019243	29511324	22543	Eucalyptus globulus	147.51	-42.82			Plant biomass and allometry: Stem cross-sectional area at base of the plant	BAAD: a biomass and allometry database for woody plants	Daniel	Falster	University of New South Wales	
1310474	9139799	22543	Eucalyptus globulus	147.6	-42.82		1994-06-21	Leaf phenology type	Leaf Physiology Database	Jens	Kattge	Max Planck Institute for Biogeochemistry	
3019266	29512117	22543	Eucalyptus globulus	147.51	-42.82			Plant biomass and allometry: Stem mass (including branches) per plant	BAAD: a biomass and allometry database for woody plants	Daniel	Falster	University of New South Wales	
3019279	29512570	22543	Eucalyptus globulus	147.51	-42.82			Plant biomass and allometry: Root mass per plant	BAAD: a biomass and allometry database for woody plants	Daniel	Falster	University of New South Wales	
4446336	49654476	22543	Eucalyptus globulus	147.51	-42.82		2000 to 2005	Leaf phenology type	FRED - Fine Root Ecology Database	Colleen	Iversen		
3019233	29511000	22543	Eucalyptus globulus	147.51	-42.82			Plant height vegetative	BAAD: a biomass and allometry database for woody plants	Daniel	Falster	University of New South Wales	
1310465	9139537	22543	Eucalyptus globulus	147.6	-42.82		1993-12-25	Plant growth form	Leaf Physiology Database	Jens	Kattge	Max Planck Institute for Biogeochemistry	
4404878	48143983	22543	Eucalyptus globulus	147.51	-42.82		2000 to 2005	Plant woodiness	FRED - Fine Root Ecology Database	Colleen	Iversen		
4446329	49654262	22543	Eucalyptus globulus	147.51	-42.82		2000 to 2005	Plant biomass and allometry: Root dry mass per plant	FRED - Fine Root Ecology Database	Colleen	Iversen		
3019225	29510737	22543	Eucalyptus globulus	147.51	-42.82			Plant functional type (PFT)	BAAD: a biomass and allometry database for woody plants	Daniel	Falster	University of New South Wales	
1310457	9139307	22543	Eucalyptus globulus	147.6	-42.82		1993-11-01	Leaf photosynthesis pathway	Leaf Physiology Database	Jens	Kattge	Max Planck Institute for Biogeochemistry	
3019252	29511635	22543	Eucalyptus globulus	147.51	-42.82			Plant biomass and allometry: Whole plant aboveground mass	BAAD: a biomass and allometry database for woody plants	Daniel	Falster	University of New South Wales	
4444741	49600444	22543	Eucalyptus globulus	147.51	-42.82		2000 to 2005	Mycorrhiza type	FRED - Fine Root Ecology Database	Colleen	Iversen		
3019277	29512504	22543	Eucalyptus globulus	147.51	-42.82			Plant biomass and allometry: Branch mass per plant	BAAD: a biomass and allometry database for woody plants	Daniel	Falster	University of New South Wales	
3019288	29512904	22543	Eucalyptus globulus	147.51	-42.82			Stem diameter	BAAD: a biomass and allometry database for woody plants	Daniel	Falster	University of New South Wales	
3019270	29512258	22543	Eucalyptus globulus	147.51	-42.82			Plant biomass and allometry: Whole plant aboveground mass	BAAD: a biomass and allometry database for woody plants	Daniel	Falster	University of New South Wales	
3019283	29512710	22543	Eucalyptus globulus	147.51	-42.82			Stem diameter	BAAD: a biomass and allometry database for woody plants	Daniel	Falster	University of New South Wales	
3019239	29511193	22543	Eucalyptus globulus	147.51	-42.82			Leaf area per plant	BAAD: a biomass and allometry database for woody plants	Daniel	Falster	University of New South Wales	
1310470	9139684	22543	Eucalyptus globulus	147.6	-42.82		1994-04-14	Leaf photosynthesis pathway	Leaf Physiology Database	Jens	Kattge	Max Planck Institute for Biogeochemistry	
4404882	48144118	22543	Eucalyptus globulus	147.51	-42.82		2000 to 2005	Plant biomass and allometry: Coarse root dry mass per plant	FRED - Fine Root Ecology Database	Colleen	Iversen		
3019263	29512012	22543	Eucalyptus globulus	147.51	-42.82			Plant biomass and allometry: Stem mass (including branches) per plant	BAAD: a biomass and allometry database for woody plants	Daniel	Falster	University of New South Wales	
3019229	29510868	22543	Eucalyptus globulus	147.51	-42.82			Plant functional type (PFT)	BAAD: a biomass and allometry database for woody plants	Daniel	Falster	University of New South Wales	
3019290	29512983	22543	Eucalyptus globulus	147.51	-42.82			Stem diameter	BAAD: a biomass and allometry database for woody plants	Daniel	Falster	University of New South Wales	
4444730	49600091	22543	Eucalyptus globulus	147.51	-42.82		2000 to 2005	Plant biomass and allometry: Leaf dry mass per plant	FRED - Fine Root Ecology Database	Colleen	Iversen		
4404886	48144247	22543	Eucalyptus globulus	147.51	-42.82		2000 to 2005	Plant biomass and allometry: Coarse root dry mass per plant	FRED - Fine Root Ecology Database	Colleen	Iversen		
3019260	29511907	22543	Eucalyptus globulus	147.51	-42.82			Plant biomass and allometry: Stem mass (including branches) per plant	BAAD: a biomass and allometry database for woody plants	Daniel	Falster	University of New South Wales	
4444734	49600215	22543	Eucalyptus globulus	147.51	-42.82		2000 to 2005	Root dry mass to leaf dry mass ratio	FRED - Fine Root Ecology Database	Colleen	Iversen		
4444727	49599973	22543	Eucalyptus globulus	147.51	-42.82		2000 to 2005	Plant growth form	FRED - Fine Root Ecology Database	Colleen	Iversen		
4446333	49654391	22543	Eucalyptus globulus	147.51	-42.82		2000 to 2005	Plant biomass and allometry: Root dry mass per plant	FRED - Fine Root Ecology Database	Colleen	Iversen		
1310462	9139454	22543	Eucalyptus globulus	147.6	-42.82		1993-12-25	Species occurrence range: climate type	Leaf Physiology Database	Jens	Kattge	Max Planck Institute for Biogeochemistry	
3019257	29511801	22543	Eucalyptus globulus	147.51	-42.82			Stem diameter	BAAD: a biomass and allometry database for woody plants	Daniel	Falster	University of New South Wales	
4446327	49654188	22543	Eucalyptus globulus	147.51	-42.82		2000 to 2005	Leaf type	FRED - Fine Root Ecology Database	Colleen	Iversen		
3019249	29511529	22543	Eucalyptus globulus	147.51	-42.82			Stem diameter	BAAD: a biomass and allometry database for woody plants	Daniel	Falster	University of New South Wales	
4444737	49600317	22543	Eucalyptus globulus	147.51	-42.82		2000 to 2005	Plant biomass and allometry: Root dry mass per plant	FRED - Fine Root Ecology Database	Colleen	Iversen		
3019274	29512399	22543	Eucalyptus globulus	147.51	-42.82			Plant biomass and allometry: Branch mass per plant	BAAD: a biomass and allometry database for woody plants	Daniel	Falster	University of New South Wales	
3019286	29512826	22543	Eucalyptus globulus	147.51	-42.82			Plant biomass and allometry: Leaf mass (dry or fresh) per plant	BAAD: a biomass and allometry database for woody plants	Daniel	Falster	University of New South Wales	
3019244	29511361	22543	Eucalyptus globulus	147.51	-42.82			Plant biomass and allometry: Leaf mass (dry or fresh) per plant	BAAD: a biomass and allometry database for woody plants	Daniel	Falster	University of New South Wales	
1310475	9139831	22543	Eucalyptus globulus	147.6	-42.82		1994-06-21	Species occurrence range: climate type	Leaf Physiology Database	Jens	Kattge	Max Planck Institute for Biogeochemistry	
3019267	29512153	22543	Eucalyptus globulus	147.51	-42.82			Plant biomass and allometry: Whole plant aboveground mass	BAAD: a biomass and allometry database for woody plants	Daniel	Falster	University of New South Wales	
3019281	29512631	22543	Eucalyptus globulus	147.51	-42.82			Leaf area per plant	BAAD: a biomass and allometry database for woody plants	Daniel	Falster	University of New South Wales	
4446337	49654509	22543	Eucalyptus globulus	147.51	-42.82		2000 to 2005	Leaf photosynthesis pathway	FRED - Fine Root Ecology Database	Colleen	Iversen		
3019235	29511062	22543	Eucalyptus globulus	147.51	-42.82			Leaf area per plant	BAAD: a biomass and allometry database for woody plants	Daniel	Falster	University of New South Wales	
1310466	9139569	22543	Eucalyptus globulus	147.6	-42.82		1993-12-25	Leaf type	Leaf Physiology Database	Jens	Kattge	Max Planck Institute for Biogeochemistry	
4404879	48144019	22543	Eucalyptus globulus	147.51	-42.82		2000 to 2005	Plant biomass and allometry: Coarse root dry mass per plant	FRED - Fine Root Ecology Database	Colleen	Iversen		
3019261	29511943	22543	Eucalyptus globulus	147.51	-42.82			Plant biomass and allometry: Whole plant aboveground mass	BAAD: a biomass and allometry database for woody plants	Daniel	Falster	University of New South Wales	
4446330	49654295	22543	Eucalyptus globulus	147.51	-42.82		2000 to 2005	Plant biomass and allometry: Root dry mass per plant	FRED - Fine Root Ecology Database	Colleen	Iversen		
1310459	9139347	22543	Eucalyptus globulus	147.6	-42.82		1993-11-01	Leaf photosynthesis rate per leaf area	Leaf Physiology Database	Jens	Kattge	Max Planck Institute for Biogeochemistry	
3019254	29511695	22543	Eucalyptus globulus	147.51	-42.82			Plant functional type (PFT)	BAAD: a biomass and allometry database for woody plants	Daniel	Falster	University of New South Wales	
4446324	49654092	22543	Eucalyptus globulus	147.51	-42.82		2000 to 2005	Leaf phenology type	FRED - Fine Root Ecology Database	Colleen	Iversen		
3019289	29512940	22543	Eucalyptus globulus	147.51	-42.82			Plant biomass and allometry: Wood (sapwood) cross-sectional area at breast height	BAAD: a biomass and allometry database for woody plants	Daniel	Falster	University of New South Wales	
3019271	29512294	22543	Eucalyptus globulus	147.51	-42.82			Plant biomass and allometry: Branch mass per plant	BAAD: a biomass and allometry database for woody plants	Daniel	Falster	University of New South Wales	
3019284	29512746	22543	Eucalyptus globulus	147.51	-42.82			Leaf area per plant	BAAD: a biomass and allometry database for woody plants	Daniel	Falster	University of New South Wales	
3019240	29511230	22543	Eucalyptus globulus	147.51	-42.82			Plant biomass and allometry: Leaf mass (dry or fresh) per plant	BAAD: a biomass and allometry database for woody plants	Daniel	Falster	University of New South Wales	
1310472	9139724	22543	Eucalyptus globulus	147.6	-42.82		1994-04-14	Leaf photosynthesis rate per leaf area	Leaf Physiology Database	Jens	Kattge	Max Planck Institute for Biogeochemistry	
4404883	48144165	22543	Eucalyptus globulus	147.51	-42.82		2000 to 2005	Plant biomass and allometry: Leaf dry mass per plant	FRED - Fine Root Ecology Database	Colleen	Iversen		
3019264	29512048	22543	Eucalyptus globulus	147.51	-42.82			Plant biomass and allometry: Whole plant aboveground mass	BAAD: a biomass and allometry database for woody plants	Daniel	Falster	University of New South Wales	
3019230	29510905	22543	Eucalyptus globulus	147.51	-42.82			Stem diameter	BAAD: a biomass and allometry database for woody plants	Daniel	Falster	University of New South Wales	
4404876	48143918	22543	Eucalyptus globulus	147.51	-42.82		2000 to 2005	Leaf type	FRED - Fine Root Ecology Database	Colleen	Iversen		
3019291	29513019	22543	Eucalyptus globulus	147.51	-42.82			Plant biomass and allometry: Stem cross-sectional area at base of the plant	BAAD: a biomass and allometry database for woody plants	Daniel	Falster	University of New South Wales	
4444731	49600126	22543	Eucalyptus globulus	147.51	-42.82		2000 to 2005	Plant biomass and allometry: Leaf dry mass per plant	FRED - Fine Root Ecology Database	Colleen	Iversen		
4404888	48144303	22543	Eucalyptus globulus	147.51	-42.82		2000 to 2005	Leaf photosynthesis pathway	FRED - Fine Root Ecology Database	Colleen	Iversen		
3019287	29512861	22543	Eucalyptus globulus	147.51	-42.82			Plant biomass and allometry: Wood (sapwood) cross-sectional area at base	BAAD: a biomass and allometry database for woody plants	Daniel	Falster	University of New South Wales	
3019245	29511397	22543	Eucalyptus globulus	147.51	-42.82			Plant biomass and allometry: Whole plant aboveground mass	BAAD: a biomass and allometry database for woody plants	Daniel	Falster	University of New South Wales	
1310477	9139885	22543	Eucalyptus globulus	147.6	-42.82		1994-06-21	Plant growth form	Leaf Physiology Database	Jens	Kattge	Max Planck Institute for Biogeochemistry	
3019268	29512189	22543	Eucalyptus globulus	147.51	-42.82			Plant biomass and allometry: Branch mass per plant	BAAD: a biomass and allometry database for woody plants	Daniel	Falster	University of New South Wales	
3019281	29512642	22543	Eucalyptus globulus	147.51	-42.82			Plant biomass and allometry: Root mass per plant	BAAD: a biomass and allometry database for woody plants	Daniel	Falster	University of New South Wales	
3019236	29511099	22543	Eucalyptus globulus	147.51	-42.82			Plant biomass and allometry: Leaf mass (dry or fresh) per plant	BAAD: a biomass and allometry database for woody plants	Daniel	Falster	University of New South Wales	
1310468	9139619	22543	Eucalyptus globulus	147.6	-42.82		1994-04-14	Plant nitrogen(N) fixation capacity	Leaf Physiology Database	Jens	Kattge	Max Planck Institute for Biogeochemistry	
4404880	48144066	22543	Eucalyptus globulus	147.51	-42.82		2000 to 2005	Plant biomass and allometry: Leaf dry mass per plant	FRED - Fine Root Ecology Database	Colleen	Iversen		
3019226	29510774	22543	Eucalyptus globulus	147.51	-42.82			Stem diameter	BAAD: a biomass and allometry database for woody plants	Daniel	Falster	University of New South Wales	
4444735	49600250	22543	Eucalyptus globulus	147.51	-42.82		2000 to 2005	Root dry mass to leaf dry mass ratio	FRED - Fine Root Ecology Database	Colleen	Iversen		
4444728	49600011	22543	Eucalyptus globulus	147.51	-42.82		2000 to 2005	Plant biomass and allometry: Root dry mass per plant	FRED - Fine Root Ecology Database	Colleen	Iversen		
1310464	9139508	22543	Eucalyptus globulus	147.6	-42.82		1993-12-25	Plant growth form	Leaf Physiology Database	Jens	Kattge	Max Planck Institute for Biogeochemistry	
3019258	29511838	22543	Eucalyptus globulus	147.51	-42.82			Plant biomass and allometry: Stem mass (including branches) per plant	BAAD: a biomass and allometry database for woody plants	Daniel	Falster	University of New South Wales	
4446328	49654221	22543	Eucalyptus globulus	147.51	-42.82		2000 to 2005	Leaf type	FRED - Fine Root Ecology Database	Colleen	Iversen		
3019250	29511566	22543	Eucalyptus globulus	147.51	-42.82			Plant biomass and allometry: Stem mass (including branches) per plant	BAAD: a biomass and allometry database for woody plants	Daniel	Falster	University of New South Wales	
4444739	49600374	22543	Eucalyptus globulus	147.51	-42.82		2000 to 2005	Leaf photosynthesis pathway	FRED - Fine Root Ecology Database	Colleen	Iversen		
3019276	29512459	22543	Eucalyptus globulus	147.51	-42.82			Plant functional type (PFT)	BAAD: a biomass and allometry database for woody plants	Daniel	Falster	University of New South Wales	
4444732	49600161	22543	Eucalyptus globulus	147.51	-42.82		2000 to 2005	Plant biomass and allometry: Leaf dry mass per plant	FRED - Fine Root Ecology Database	Colleen	Iversen		
4404889	48144339	22543	Eucalyptus globulus	147.51	-42.82		2000 to 2005	Mycorrhiza type	FRED - Fine Root Ecology Database	Colleen	Iversen		
4446331	49654328	22543	Eucalyptus globulus	147.51	-42.82		2000 to 2005	Plant biomass and allometry: Root dry mass per plant	FRED - Fine Root Ecology Database	Colleen	Iversen		
1310460	9139393	22543	Eucalyptus globulus	147.6	-42.82		1993-11-01	Leaf phenology type	Leaf Physiology Database	Jens	Kattge	Max Planck Institute for Biogeochemistry	
3019255	29511732	22543	Eucalyptus globulus	147.51	-42.82			Plant biomass and allometry: Stem cross-sectional area at base of the plant	BAAD: a biomass and allometry database for woody plants	Daniel	Falster	University of New South Wales	
4446325	49654125	22543	Eucalyptus globulus	147.51	-42.82		2000 to 2005	Leaf photosynthesis pathway	FRED - Fine Root Ecology Database	Colleen	Iversen		
3019247	29511460	22543	Eucalyptus globulus	147.51	-42.82			Plant biomass and allometry: Stem cross-sectional area at base of the plant	BAAD: a biomass and allometry database for woody plants	Daniel	Falster	University of New South Wales	
3019290	29512975	22543	Eucalyptus globulus	147.51	-42.82			Plant functional type (PFT)	BAAD: a biomass and allometry database for woody plants	Daniel	Falster	University of New South Wales	
3019273	29512354	22543	Eucalyptus globulus	147.51	-42.82			Plant functional type (PFT)	BAAD: a biomass and allometry database for woody plants	Daniel	Falster	University of New South Wales	
3019284	29512757	22543	Eucalyptus globulus	147.51	-42.82			Plant biomass and allometry: Plant mass	BAAD: a biomass and allometry database for woody plants	Daniel	Falster	University of New South Wales	
3019242	29511291	22543	Eucalyptus globulus	147.51	-42.82			Stem diameter	BAAD: a biomass and allometry database for woody plants	Daniel	Falster	University of New South Wales	
1310473	9139770	22543	Eucalyptus globulus	147.6	-42.82		1994-04-14	Leaf phenology type	Leaf Physiology Database	Jens	Kattge	Max Planck Institute for Biogeochemistry	
4404885	48144208	22543	Eucalyptus globulus	147.51	-42.82		2000 to 2005	Leaf phenology type	FRED - Fine Root Ecology Database	Colleen	Iversen		
3019265	29512084	22543	Eucalyptus globulus	147.51	-42.82			Plant biomass and allometry: Branch mass per plant	BAAD: a biomass and allometry database for woody plants	Daniel	Falster	University of New South Wales	
3019278	29512537	22543	Eucalyptus globulus	147.51	-42.82			Plant biomass and allometry: Root mass per plant	BAAD: a biomass and allometry database for woody plants	Daniel	Falster	University of New South Wales	
4446335	49654446	22543	Eucalyptus globulus	147.51	-42.82		2000 to 2005	Leaf type	FRED - Fine Root Ecology Database	Colleen	Iversen		
3019232	29510967	22543	Eucalyptus globulus	147.51	-42.82			Plant biomass and allometry: Stem cross-sectional area at base of the plant	BAAD: a biomass and allometry database for woody plants	Daniel	Falster	University of New South Wales	
4404877	48143952	22543	Eucalyptus globulus	147.51	-42.82		2000 to 2005	Plant woodiness	FRED - Fine Root Ecology Database	Colleen	Iversen		
3019292	29513055	22543	Eucalyptus globulus	147.51	-42.82			Leaf area per plant	BAAD: a biomass and allometry database for woody plants	Daniel	Falster	University of New South Wales	
3019277	29512496	22543	Eucalyptus globulus	147.51	-42.82			Leaf area per plant	BAAD: a biomass and allometry database for woody plants	Daniel	Falster	University of New South Wales	
3019287	29512872	22543	Eucalyptus globulus	147.51	-42.82			Plant biomass and allometry: Root mass per plant	BAAD: a biomass and allometry database for woody plants	Daniel	Falster	University of New South Wales	
1310478	9139917	22543	Eucalyptus globulus	147.6	-42.82		1994-06-21	Leaf type	Leaf Physiology Database	Jens	Kattge	Max Planck Institute for Biogeochemistry	
3019270	29512249	22543	Eucalyptus globulus	147.51	-42.82			Plant functional type (PFT)	BAAD: a biomass and allometry database for woody plants	Daniel	Falster	University of New South Wales	
3019282	29512678	22543	Eucalyptus globulus	147.51	-42.82			Plant biomass and allometry: Fine root mass per plant	BAAD: a biomass and allometry database for woody plants	Daniel	Falster	University of New South Wales	
3019238	29511160	22543	Eucalyptus globulus	147.51	-42.82			Plant height vegetative	BAAD: a biomass and allometry database for woody plants	Daniel	Falster	University of New South Wales	
1310469	9139655	22543	Eucalyptus globulus	147.6	-42.82		1994-04-14	Leaf photosynthesis pathway	Leaf Physiology Database	Jens	Kattge	Max Planck Institute for Biogeochemistry	
4404882	48144109	22543	Eucalyptus globulus	147.51	-42.82		2000 to 2005	Leaf phenology type	FRED - Fine Root Ecology Database	Colleen	Iversen		
3019262	29511979	22543	Eucalyptus globulus	147.51	-42.82			Plant biomass and allometry: Branch mass per plant	BAAD: a biomass and allometry database for woody plants	Daniel	Falster	University of New South Wales	
3019228	29510836	22543	Eucalyptus globulus	147.51	-42.82			Plant biomass and allometry: Stem cross-sectional area at base of the plant	BAAD: a biomass and allometry database for woody plants	Daniel	Falster	University of New South Wales	
4444736	49600285	22543	Eucalyptus globulus	147.51	-42.82		2000 to 2005	Plant biomass and allometry: Root dry mass per plant	FRED - Fine Root Ecology Database	Colleen	Iversen		
4444730	49600068	22543	Eucalyptus globulus	147.51	-42.82		2000 to 2005	Leaf photosynthesis pathway	FRED - Fine Root Ecology Database	Colleen	Iversen		
4404885	48144216	22543	Eucalyptus globulus	147.51	-42.82		2000 to 2005	Plant biomass and allometry: Coarse root dry mass per plant	FRED - Fine Root Ecology Database	Colleen	Iversen		
3019259	29511874	22543	Eucalyptus globulus	147.51	-42.82			Plant biomass and allometry: Branch mass per plant	BAAD: a biomass and allometry database for woody plants	Daniel	Falster	University of New South Wales	
4446329	49654254	22543	Eucalyptus globulus	147.51	-42.82		2000 to 2005	Leaf type	FRED - Fine Root Ecology Database	Colleen	Iversen		
1310455	9139251	22543	Eucalyptus globulus	147.6	-42.82			Leaf photosynthesis pathway	Leaf Physiology Database	Jens	Kattge	Max Planck Institute for Biogeochemistry	
3019251	29511602	22543	Eucalyptus globulus	147.51	-42.82			Plant biomass and allometry: Branch mass per plant	BAAD: a biomass and allometry database for woody plants	Daniel	Falster	University of New South Wales	
4444740	49600412	22543	Eucalyptus globulus	147.51	-42.82		2000 to 2005	Mycorrhiza type	FRED - Fine Root Ecology Database	Colleen	Iversen		
3019292	29513066	22543	Eucalyptus globulus	147.51	-42.82			Plant biomass and allometry: Coarse root mass per plant	BAAD: a biomass and allometry database for woody plants	Daniel	Falster	University of New South Wales	
4444733	49600196	22543	Eucalyptus globulus	147.51	-42.82		2000 to 2005	Plant biomass and allometry: Leaf dry mass per plant	FRED - Fine Root Ecology Database	Colleen	Iversen		
4446333	49654383	22543	Eucalyptus globulus	147.51	-42.82		2000 to 2005	Leaf phenology type	FRED - Fine Root Ecology Database	Colleen	Iversen		
1310461	9139425	22543	Eucalyptus globulus	147.6	-42.82		1993-12-25	Species occurrence range: climate type	Leaf Physiology Database	Jens	Kattge	Max Planck Institute for Biogeochemistry	
3019256	29511769	22543	Eucalyptus globulus	147.51	-42.82			Plant biomass and allometry: Leaf mass (dry or fresh) per plant	BAAD: a biomass and allometry database for woody plants	Daniel	Falster	University of New South Wales	
4446326	49654158	22543	Eucalyptus globulus	147.51	-42.82		2000 to 2005	Plant woodiness	FRED - Fine Root Ecology Database	Colleen	Iversen		
3019248	29511497	22543	Eucalyptus globulus	147.51	-42.82			Plant biomass and allometry: Leaf mass (dry or fresh) per plant	BAAD: a biomass and allometry database for woody plants	Daniel	Falster	University of New South Wales	
3019274	29512391	22543	Eucalyptus globulus	147.51	-42.82			Leaf area per plant	BAAD: a biomass and allometry database for woody plants	Daniel	Falster	University of New South Wales	
3019285	29512793	22543	Eucalyptus globulus	147.51	-42.82			Plant biomass and allometry: Coarse root mass per plant	BAAD: a biomass and allometry database for woody plants	Daniel	Falster	University of New South Wales	
3019243	29511328	22543	Eucalyptus globulus	147.51	-42.82			Plant biomass and allometry: Stem mass (including branches) per plant	BAAD: a biomass and allometry database for woody plants	Daniel	Falster	University of New South Wales	
1310474	9139802	22543	Eucalyptus globulus	147.6	-42.82		1994-06-21	Species occurrence range: climate type	Leaf Physiology Database	Jens	Kattge	Max Planck Institute for Biogeochemistry	
3019267	29512144	22543	Eucalyptus globulus	147.51	-42.82			Plant functional type (PFT)	BAAD: a biomass and allometry database for woody plants	Daniel	Falster	University of New South Wales	
3019280	29512598	22543	Eucalyptus globulus	147.51	-42.82			Plant biomass and allometry: Wood (sapwood) cross-sectional area at base	BAAD: a biomass and allometry database for woody plants	Daniel	Falster	University of New South Wales	
4446336	49654479	22543	Eucalyptus globulus	147.51	-42.82		2000 to 2005	Plant growth form	FRED - Fine Root Ecology Database	Colleen	Iversen		
3019234	29511028	22543	Eucalyptus globulus	147.51	-42.82			Plant functional type (PFT)	BAAD: a biomass and allometry database for woody plants	Daniel	Falster	University of New South Wales	
1310465	9139540	22543	Eucalyptus globulus	147.6	-42.82		1993-12-25	Leaf type	Leaf Physiology Database	Jens	Kattge	Max Planck Institute for Biogeochemistry	
4404879	48144010	22543	Eucalyptus globulus	147.51	-42.82		2000 to 2005	Leaf phenology type	FRED - Fine Root Ecology Database	Colleen	Iversen		
3019261	29511934	22543	Eucalyptus globulus	147.51	-42.82			Plant functional type (PFT)	BAAD: a biomass and allometry database for woody plants	Daniel	Falster	University of New South Wales	
4446330	49654287	22543	Eucalyptus globulus	147.51	-42.82		2000 to 2005	Leaf type	FRED - Fine Root Ecology Database	Colleen	Iversen		
3019225	29510741	22543	Eucalyptus globulus	147.51	-42.82			Plant height vegetative	BAAD: a biomass and allometry database for woody plants	Daniel	Falster	University of New South Wales	
1310458	9139318	22543	Eucalyptus globulus	147.6	-42.82		1993-11-01	Leaf photosynthesis rate per leaf area	Leaf Physiology Database	Jens	Kattge	Max Planck Institute for Biogeochemistry	
3019253	29511663	22543	Eucalyptus globulus	147.51	-42.82			Leaf area per plant	BAAD: a biomass and allometry database for woody plants	Daniel	Falster	University of New South Wales	
4446323	49654062	22543	Eucalyptus globulus	147.51	-42.82		2000 to 2005	Leaf type	FRED - Fine Root Ecology Database	Colleen	Iversen		
3019288	29512908	22543	Eucalyptus globulus	147.51	-42.82			Plant biomass and allometry: Branch mass per plant	BAAD: a biomass and allometry database for woody plants	Daniel	Falster	University of New South Wales	
3019271	29512286	22543	Eucalyptus globulus	147.51	-42.82			Leaf area per plant	BAAD: a biomass and allometry database for woody plants	Daniel	Falster	University of New South Wales	
3019283	29512714	22543	Eucalyptus globulus	147.51	-42.82			Plant biomass and allometry: Whole plant aboveground mass	BAAD: a biomass and allometry database for woody plants	Daniel	Falster	University of New South Wales	
3019239	29511196	22543	Eucalyptus globulus	147.51	-42.82			Stem diameter	BAAD: a biomass and allometry database for woody plants	Daniel	Falster	University of New South Wales	
1310471	9139695	22543	Eucalyptus globulus	147.6	-42.82		1994-04-14	Leaf photosynthesis rate per leaf area	Leaf Physiology Database	Jens	Kattge	Max Planck Institute for Biogeochemistry	
4404883	48144143	22543	Eucalyptus globulus	147.51	-42.82		2000 to 2005	Leaf type	FRED - Fine Root Ecology Database	Colleen	Iversen		
3019264	29512039	22543	Eucalyptus globulus	147.51	-42.82			Plant functional type (PFT)	BAAD: a biomass and allometry database for woody plants	Daniel	Falster	University of New South Wales	
3019229	29510872	22543	Eucalyptus globulus	147.51	-42.82			Plant height vegetative	BAAD: a biomass and allometry database for woody plants	Daniel	Falster	University of New South Wales	
3019290	29512987	22543	Eucalyptus globulus	147.51	-42.82			Plant biomass and allometry: Fine root mass per plant	BAAD: a biomass and allometry database for woody plants	Daniel	Falster	University of New South Wales	
4444731	49600103	22543	Eucalyptus globulus	147.51	-42.82		2000 to 2005	Leaf photosynthesis pathway	FRED - Fine Root Ecology Database	Colleen	Iversen		
4404887	48144272	22543	Eucalyptus globulus	147.51	-42.82		2000 to 2005	Leaf photosynthesis pathway	FRED - Fine Root Ecology Database	Colleen	Iversen		
3019235	29511065	22543	Eucalyptus globulus	147.51	-42.82			Stem diameter	BAAD: a biomass and allometry database for woody plants	Daniel	Falster	University of New South Wales	
1310467	9139590	22543	Eucalyptus globulus	147.6	-42.82		1993-12-25	Plant nitrogen(N) fixation capacity	Leaf Physiology Database	Jens	Kattge	Max Planck Institute for Biogeochemistry	
4404880	48144044	22543	Eucalyptus globulus	147.51	-42.82		2000 to 2005	Leaf type	FRED - Fine Root Ecology Database	Colleen	Iversen		
4444734	49600231	22543	Eucalyptus globulus	147.51	-42.82		2000 to 2005	Plant biomass and allometry: Leaf dry mass per plant	FRED - Fine Root Ecology Database	Colleen	Iversen		
4444727	49599979	22543	Eucalyptus globulus	147.51	-42.82		2000 to 2005	Plant biomass and allometry: Root dry mass per plant	FRED - Fine Root Ecology Database	Colleen	Iversen		
4446334	49654416	22543	Eucalyptus globulus	147.51	-42.82		2000 to 2005	Leaf photosynthesis pathway	FRED - Fine Root Ecology Database	Colleen	Iversen		
1310463	9139479	22543	Eucalyptus globulus	147.6	-42.82		1993-12-25	Plant growth form	Leaf Physiology Database	Jens	Kattge	Max Planck Institute for Biogeochemistry	
3019257	29511805	22543	Eucalyptus globulus	147.51	-42.82			Plant biomass and allometry: Whole plant aboveground mass	BAAD: a biomass and allometry database for woody plants	Daniel	Falster	University of New South Wales	
4446327	49654191	22543	Eucalyptus globulus	147.51	-42.82		2000 to 2005	Plant woodiness	FRED - Fine Root Ecology Database	Colleen	Iversen		
3019249	29511533	22543	Eucalyptus globulus	147.51	-42.82			Plant biomass and allometry: Whole plant aboveground mass	BAAD: a biomass and allometry database for woody plants	Daniel	Falster	University of New South Wales	
4444738	49600342	22543	Eucalyptus globulus	147.51	-42.82		2000 to 2005	Leaf photosynthesis pathway	FRED - Fine Root Ecology Database	Colleen	Iversen		
3019275	29512427	22543	Eucalyptus globulus	147.51	-42.82			Plant biomass and allometry: Wood (sapwood) cross-sectional area at base	BAAD: a biomass and allometry database for woody plants	Daniel	Falster	University of New South Wales	
3019286	29512829	22543	Eucalyptus globulus	147.51	-42.82			Plant biomass and allometry: Branch mass per plant	BAAD: a biomass and allometry database for woody plants	Daniel	Falster	University of New South Wales	
3019244	29511364	22543	Eucalyptus globulus	147.51	-42.82			Plant biomass and allometry: Branch mass per plant	BAAD: a biomass and allometry database for woody plants	Daniel	Falster	University of New South Wales	
1310476	9139856	22543	Eucalyptus globulus	147.6	-42.82		1994-06-21	Plant growth form	Leaf Physiology Database	Jens	Kattge	Max Planck Institute for Biogeochemistry	
3019268	29512181	22543	Eucalyptus globulus	147.51	-42.82			Leaf area per plant	BAAD: a biomass and allometry database for woody plants	Daniel	Falster	University of New South Wales	
3019281	29512634	22543	Eucalyptus globulus	147.51	-42.82			Stem diameter	BAAD: a biomass and allometry database for woody plants	Daniel	Falster	University of New South Wales	
4446337	49654513	22543	Eucalyptus globulus	147.51	-42.82		2000 to 2005	Mycorrhiza type	FRED - Fine Root Ecology Database	Colleen	Iversen		
4404888	48144308	22543	Eucalyptus globulus	147.51	-42.82		2000 to 2005	Mycorrhiza type	FRED - Fine Root Ecology Database	Colleen	Iversen		
3019262	29511971	22543	Eucalyptus globulus	147.51	-42.82			Leaf area per plant	BAAD: a biomass and allometry database for woody plants	Daniel	Falster	University of New South Wales	
4446331	49654320	22543	Eucalyptus globulus	147.51	-42.82		2000 to 2005	Leaf type	FRED - Fine Root Ecology Database	Colleen	Iversen		
1310459	9139364	22543	Eucalyptus globulus	147.6	-42.82		1993-11-01	Leaf phenology type	Leaf Physiology Database	Jens	Kattge	Max Planck Institute for Biogeochemistry	
3019254	29511699	22543	Eucalyptus globulus	147.51	-42.82			Stem diameter	BAAD: a biomass and allometry database for woody plants	Daniel	Falster	University of New South Wales	
4446324	49654095	22543	Eucalyptus globulus	147.51	-42.82		2000 to 2005	Plant growth form	FRED - Fine Root Ecology Database	Colleen	Iversen		
3019246	29511427	22543	Eucalyptus globulus	147.51	-42.82			Stem diameter	BAAD: a biomass and allometry database for woody plants	Daniel	Falster	University of New South Wales	
3019289	29512943	22543	Eucalyptus globulus	147.51	-42.82			Stem diameter	BAAD: a biomass and allometry database for woody plants	Daniel	Falster	University of New South Wales	
3019272	29512322	22543	Eucalyptus globulus	147.51	-42.82			Plant biomass and allometry: Wood (sapwood) cross-sectional area at base	BAAD: a biomass and allometry database for woody plants	Daniel	Falster	University of New South Wales	
3019284	29512750	22543	Eucalyptus globulus	147.51	-42.82			Plant biomass and allometry: Leaf mass (dry or fresh) per plant	BAAD: a biomass and allometry database for woody plants	Daniel	Falster	University of New South Wales	
3019241	29511258	22543	Eucalyptus globulus	147.51	-42.82			Plant biomass and allometry: Stem cross-sectional area at base of the plant	BAAD: a biomass and allometry database for woody plants	Daniel	Falster	University of New South Wales	
1310472	9139741	22543	Eucalyptus globulus	147.6	-42.82		1994-04-14	Leaf phenology type	Leaf Physiology Database	Jens	Kattge	Max Planck Institute for Biogeochemistry	
4404884	48144177	22543	Eucalyptus globulus	147.51	-42.82		2000 to 2005	Leaf photosynthesis pathway	FRED - Fine Root Ecology Database	Colleen	Iversen		
3019265	29512076	22543	Eucalyptus globulus	147.51	-42.82			Leaf area per plant	BAAD: a biomass and allometry database for woody plants	Daniel	Falster	University of New South Wales	
3019231	29510934	22543	Eucalyptus globulus	147.51	-42.82			Leaf area per plant	BAAD: a biomass and allometry database for woody plants	Daniel	Falster	University of New South Wales	
4404876	48143921	22543	Eucalyptus globulus	147.51	-42.82		2000 to 2005	Plant woodiness	FRED - Fine Root Ecology Database	Colleen	Iversen		
3019291	29513022	22543	Eucalyptus globulus	147.51	-42.82			Stem diameter	BAAD: a biomass and allometry database for woody plants	Daniel	Falster	University of New South Wales	
4444732	49600138	22543	Eucalyptus globulus	147.51	-42.82		2000 to 2005	Leaf photosynthesis pathway	FRED - Fine Root Ecology Database	Colleen	Iversen		
3019276	29512463	22543	Eucalyptus globulus	147.51	-42.82			Plant biomass and allometry: Stem cross-sectional area at base of the plant	BAAD: a biomass and allometry database for woody plants	Daniel	Falster	University of New South Wales	
3019287	29512864	22543	Eucalyptus globulus	147.51	-42.82			Plant biomass and allometry: Stem cross-sectional area at breast height	BAAD: a biomass and allometry database for woody plants	Daniel	Falster	University of New South Wales	
1310477	9139888	22543	Eucalyptus globulus	147.6	-42.82		1994-06-21	Leaf type	Leaf Physiology Database	Jens	Kattge	Max Planck Institute for Biogeochemistry	
3019269	29512217	22543	Eucalyptus globulus	147.51	-42.82			Plant biomass and allometry: Wood (sapwood) cross-sectional area at base	BAAD: a biomass and allometry database for woody plants	Daniel	Falster	University of New South Wales	
3019282	29512670	22543	Eucalyptus globulus	147.51	-42.82			Leaf area per plant	BAAD: a biomass and allometry database for woody plants	Daniel	Falster	University of New South Wales	
3019237	29511127	22543	Eucalyptus globulus	147.51	-42.82			Plant biomass and allometry: Stem cross-sectional area at base of the plant	BAAD: a biomass and allometry database for woody plants	Daniel	Falster	University of New South Wales	
1310468	9139626	22543	Eucalyptus globulus	147.6	-42.82		1994-04-14	Leaf photosynthesis pathway	Leaf Physiology Database	Jens	Kattge	Max Planck Institute for Biogeochemistry	
4404881	48144078	22543	Eucalyptus globulus	147.51	-42.82		2000 to 2005	Leaf photosynthesis pathway	FRED - Fine Root Ecology Database	Colleen	Iversen		
3019227	29510803	22543	Eucalyptus globulus	147.51	-42.82			Leaf area per plant	BAAD: a biomass and allometry database for woody plants	Daniel	Falster	University of New South Wales	
4444735	49600266	22543	Eucalyptus globulus	147.51	-42.82		2000 to 2005	Plant biomass and allometry: Leaf dry mass per plant	FRED - Fine Root Ecology Database	Colleen	Iversen		
4444729	49600036	22543	Eucalyptus globulus	147.51	-42.82		2000 to 2005	Leaf photosynthesis pathway	FRED - Fine Root Ecology Database	Colleen	Iversen		
1310464	9139511	22543	Eucalyptus globulus	147.6	-42.82		1993-12-25	Leaf type	Leaf Physiology Database	Jens	Kattge	Max Planck Institute for Biogeochemistry	
3019259	29511865	22543	Eucalyptus globulus	147.51	-42.82			Plant functional type (PFT)	BAAD: a biomass and allometry database for woody plants	Daniel	Falster	University of New South Wales	
4446328	49654224	22543	Eucalyptus globulus	147.51	-42.82		2000 to 2005	Plant woodiness	FRED - Fine Root Ecology Database	Colleen	Iversen		
3019251	29511593	22543	Eucalyptus globulus	147.51	-42.82			Plant functional type (PFT)	BAAD: a biomass and allometry database for woody plants	Daniel	Falster	University of New South Wales	
4444739	49600380	22543	Eucalyptus globulus	147.51	-42.82		2000 to 2005	Mycorrhiza type	FRED - Fine Root Ecology Database	Colleen	Iversen		
4444733	49600173	22543	Eucalyptus globulus	147.51	-42.82		2000 to 2005	Leaf photosynthesis pathway	FRED - Fine Root Ecology Database	Colleen	Iversen		
4404890	48144364	22543	Eucalyptus globulus	147.51	-42.82		2000 to 2005	Leaf type	FRED - Fine Root Ecology Database	Colleen	Iversen		
4446332	49654353	22543	Eucalyptus globulus	147.51	-42.82		2000 to 2005	Leaf type	FRED - Fine Root Ecology Database	Colleen	Iversen		
1310460	9139396	22543	Eucalyptus globulus	147.6	-42.82		1993-11-01	Species occurrence range: climate type	Leaf Physiology Database	Jens	Kattge	Max Planck Institute for Biogeochemistry	
3019255	29511736	22543	Eucalyptus globulus	147.51	-42.82			Plant biomass and allometry: Stem mass (including branches) per plant	BAAD: a biomass and allometry database for woody plants	Daniel	Falster	University of New South Wales	
4446325	49654129	22543	Eucalyptus globulus	147.51	-42.82		2000 to 2005	Mycorrhiza type	FRED - Fine Root Ecology Database	Colleen	Iversen		
3019247	29511464	22543	Eucalyptus globulus	147.51	-42.82			Plant biomass and allometry: Stem mass (including branches) per plant	BAAD: a biomass and allometry database for woody plants	Daniel	Falster	University of New South Wales	
3019290	29512979	22543	Eucalyptus globulus	147.51	-42.82			Plant biomass and allometry: Wood (sapwood) cross-sectional area at breast height	BAAD: a biomass and allometry database for woody plants	Daniel	Falster	University of New South Wales	
3019273	29512358	22543	Eucalyptus globulus	147.51	-42.82			Plant biomass and allometry: Stem cross-sectional area at base of the plant	BAAD: a biomass and allometry database for woody plants	Daniel	Falster	University of New South Wales	
3019285	29512785	22543	Eucalyptus globulus	147.51	-42.82			Plant biomass and allometry: Stem cross-sectional area at breast height	BAAD: a biomass and allometry database for woody plants	Daniel	Falster	University of New South Wales	
3019242	29511295	22543	Eucalyptus globulus	147.51	-42.82			Plant biomass and allometry: Whole plant aboveground mass	BAAD: a biomass and allometry database for woody plants	Daniel	Falster	University of New South Wales	
1310473	9139773	22543	Eucalyptus globulus	147.6	-42.82		1994-04-14	Species occurrence range: climate type	Leaf Physiology Database	Jens	Kattge	Max Planck Institute for Biogeochemistry	
3019266	29512112	22543	Eucalyptus globulus	147.51	-42.82			Plant biomass and allometry: Wood (sapwood) cross-sectional area at base	BAAD: a biomass and allometry database for woody plants	Daniel	Falster	University of New South Wales	
3019279	29512565	22543	Eucalyptus globulus	147.51	-42.82			Plant biomass and allometry: Stem cross-sectional area at base of the plant	BAAD: a biomass and allometry database for woody plants	Daniel	Falster	University of New South Wales	
4446335	49654449	22543	Eucalyptus globulus	147.51	-42.82		2000 to 2005	Plant woodiness	FRED - Fine Root Ecology Database	Colleen	Iversen		
3019232	29510971	22543	Eucalyptus globulus	147.51	-42.82			Plant biomass and allometry: Leaf mass (dry or fresh) per plant	BAAD: a biomass and allometry database for woody plants	Daniel	Falster	University of New South Wales	
4404878	48143979	22543	Eucalyptus globulus	147.51	-42.82		2000 to 2005	Leaf phenology type	FRED - Fine Root Ecology Database	Colleen	Iversen		
3019292	29513058	22543	Eucalyptus globulus	147.51	-42.82			Plant biomass and allometry: Stem cross-sectional area at base of the plant	BAAD: a biomass and allometry database for woody plants	Daniel	Falster	University of New South Wales	
3019252	29511630	22543	Eucalyptus globulus	147.51	-42.82			Plant biomass and allometry: Stem cross-sectional area at base of the plant	BAAD: a biomass and allometry database for woody plants	Daniel	Falster	University of New South Wales	
4444741	49600437	22543	Eucalyptus globulus	147.51	-42.82		2000 to 2005	Leaf type	FRED - Fine Root Ecology Database	Colleen	Iversen		
3019277	29512499	22543	Eucalyptus globulus	147.51	-42.82			Stem diameter	BAAD: a biomass and allometry database for woody plants	Daniel	Falster	University of New South Wales	
3019288	29512900	22543	Eucalyptus globulus	147.51	-42.82			Plant biomass and allometry: Wood (sapwood) cross-sectional area at base	BAAD: a biomass and allometry database for woody plants	Daniel	Falster	University of New South Wales	
3019270	29512253	22543	Eucalyptus globulus	147.51	-42.82			Plant biomass and allometry: Stem cross-sectional area at base of the plant	BAAD: a biomass and allometry database for woody plants	Daniel	Falster	University of New South Wales	
3019282	29512681	22543	Eucalyptus globulus	147.51	-42.82			Plant biomass and allometry: Plant mass	BAAD: a biomass and allometry database for woody plants	Daniel	Falster	University of New South Wales	
3019238	29511164	22543	Eucalyptus globulus	147.51	-42.82			Plant biomass and allometry: Stem mass (including branches) per plant	BAAD: a biomass and allometry database for woody plants	Daniel	Falster	University of New South Wales	
1310470	9139666	22543	Eucalyptus globulus	147.6	-42.82		1994-04-14	Leaf photosynthesis rate per leaf area	Leaf Physiology Database	Jens	Kattge	Max Planck Institute for Biogeochemistry	
4404882	48144112	22543	Eucalyptus globulus	147.51	-42.82		2000 to 2005	Plant growth form	FRED - Fine Root Ecology Database	Colleen	Iversen		
3019263	29512007	22543	Eucalyptus globulus	147.51	-42.82			Plant biomass and allometry: Wood (sapwood) cross-sectional area at base	BAAD: a biomass and allometry database for woody plants	Daniel	Falster	University of New South Wales	
3019228	29510840	22543	Eucalyptus globulus	147.51	-42.82			Plant biomass and allometry: Leaf mass (dry or fresh) per plant	BAAD: a biomass and allometry database for woody plants	Daniel	Falster	University of New South Wales	
4444737	49600310	22543	Eucalyptus globulus	147.51	-42.82		2000 to 2005	Leaf photosynthesis pathway	FRED - Fine Root Ecology Database	Colleen	Iversen		
4444730	49600074	22543	Eucalyptus globulus	147.51	-42.82		2000 to 2005	Mycorrhiza type	FRED - Fine Root Ecology Database	Colleen	Iversen		
4404886	48144241	22543	Eucalyptus globulus	147.51	-42.82		2000 to 2005	Leaf photosynthesis pathway	FRED - Fine Root Ecology Database	Colleen	Iversen		
3019260	29511902	22543	Eucalyptus globulus	147.51	-42.82			Plant biomass and allometry: Wood (sapwood) cross-sectional area at base	BAAD: a biomass and allometry database for woody plants	Daniel	Falster	University of New South Wales	
4446329	49654257	22543	Eucalyptus globulus	147.51	-42.82		2000 to 2005	Plant woodiness	FRED - Fine Root Ecology Database	Colleen	Iversen		
1310457	9139289	22543	Eucalyptus globulus	147.6	-42.82		1993-11-01	Leaf photosynthesis rate per leaf area	Leaf Physiology Database	Jens	Kattge	Max Planck Institute for Biogeochemistry	
4444734	49600208	22543	Eucalyptus globulus	147.51	-42.82		2000 to 2005	Leaf photosynthesis pathway	FRED - Fine Root Ecology Database	Colleen	Iversen		
4446333	49654386	22543	Eucalyptus globulus	147.51	-42.82		2000 to 2005	Plant growth form	FRED - Fine Root Ecology Database	Colleen	Iversen		
1310462	9139450	22543	Eucalyptus globulus	147.6	-42.82		1993-12-25	Plant growth form	Leaf Physiology Database	Jens	Kattge	Max Planck Institute for Biogeochemistry	
3019256	29511772	22543	Eucalyptus globulus	147.51	-42.82			Plant biomass and allometry: Branch mass per plant	BAAD: a biomass and allometry database for woody plants	Daniel	Falster	University of New South Wales	
4446326	49654162	22543	Eucalyptus globulus	147.51	-42.82		2000 to 2005	Coarse root to fine root mass ratio	FRED - Fine Root Ecology Database	Colleen	Iversen		
3019248	29511500	22543	Eucalyptus globulus	147.51	-42.82			Plant biomass and allometry: Branch mass per plant	BAAD: a biomass and allometry database for woody plants	Daniel	Falster	University of New South Wales	
3019274	29512394	22543	Eucalyptus globulus	147.51	-42.82			Stem diameter	BAAD: a biomass and allometry database for woody plants	Daniel	Falster	University of New South Wales	
3019286	29512820	22543	Eucalyptus globulus	147.51	-42.82			Plant functional type (PFT)	BAAD: a biomass and allometry database for woody plants	Daniel	Falster	University of New South Wales	
3019244	29511355	22543	Eucalyptus globulus	147.51	-42.82			Plant functional type (PFT)	BAAD: a biomass and allometry database for woody plants	Daniel	Falster	University of New South Wales	
1310475	9139827	22543	Eucalyptus globulus	147.6	-42.82		1994-06-21	Plant growth form	Leaf Physiology Database	Jens	Kattge	Max Planck Institute for Biogeochemistry	
3019267	29512148	22543	Eucalyptus globulus	147.51	-42.82			Plant biomass and allometry: Stem cross-sectional area at base of the plant	BAAD: a biomass and allometry database for woody plants	Daniel	Falster	University of New South Wales	
3019280	29512602	22543	Eucalyptus globulus	147.51	-42.82			Plant biomass and allometry: Fine root mass per plant	BAAD: a biomass and allometry database for woody plants	Daniel	Falster	University of New South Wales	
4446336	49654483	22543	Eucalyptus globulus	147.51	-42.82		2000 to 2005	Coarse root to fine root mass ratio	FRED - Fine Root Ecology Database	Colleen	Iversen		
3019234	29511032	22543	Eucalyptus globulus	147.51	-42.82			Plant height vegetative	BAAD: a biomass and allometry database for woody plants	Daniel	Falster	University of New South Wales	
1310466	9139561	22543	Eucalyptus globulus	147.6	-42.82		1993-12-25	Plant nitrogen(N) fixation capacity	Leaf Physiology Database	Jens	Kattge	Max Planck Institute for Biogeochemistry	
4404879	48144013	22543	Eucalyptus globulus	147.51	-42.82		2000 to 2005	Plant growth form	FRED - Fine Root Ecology Database	Colleen	Iversen		
3019261	29511938	22543	Eucalyptus globulus	147.51	-42.82			Plant biomass and allometry: Stem cross-sectional area at base of the plant	BAAD: a biomass and allometry database for woody plants	Daniel	Falster	University of New South Wales	
4446330	49654290	22543	Eucalyptus globulus	147.51	-42.82		2000 to 2005	Plant woodiness	FRED - Fine Root Ecology Database	Colleen	Iversen		
1310458	9139335	22543	Eucalyptus globulus	147.6	-42.82		1993-11-01	Leaf phenology type	Leaf Physiology Database	Jens	Kattge	Max Planck Institute for Biogeochemistry	
3019253	29511667	22543	Eucalyptus globulus	147.51	-42.82			Plant biomass and allometry: Leaf mass (dry or fresh) per plant	BAAD: a biomass and allometry database for woody plants	Daniel	Falster	University of New South Wales	
4446323	49654065	22543	Eucalyptus globulus	147.51	-42.82		2000 to 2005	Plant woodiness	FRED - Fine Root Ecology Database	Colleen	Iversen		
3019288	29512911	22543	Eucalyptus globulus	147.51	-42.82			Plant biomass and allometry: Root mass per plant	BAAD: a biomass and allometry database for woody plants	Daniel	Falster	University of New South Wales	
3019271	29512289	22543	Eucalyptus globulus	147.51	-42.82			Stem diameter	BAAD: a biomass and allometry database for woody plants	Daniel	Falster	University of New South Wales	
3019283	29512717	22543	Eucalyptus globulus	147.51	-42.82			Plant biomass and allometry: Coarse root mass per plant	BAAD: a biomass and allometry database for woody plants	Daniel	Falster	University of New South Wales	
3019240	29511225	22543	Eucalyptus globulus	147.51	-42.82			Leaf area per plant	BAAD: a biomass and allometry database for woody plants	Daniel	Falster	University of New South Wales	
1310471	9139712	22543	Eucalyptus globulus	147.6	-42.82		1994-04-14	Leaf phenology type	Leaf Physiology Database	Jens	Kattge	Max Planck Institute for Biogeochemistry	
4404883	48144146	22543	Eucalyptus globulus	147.51	-42.82		2000 to 2005	Plant woodiness	FRED - Fine Root Ecology Database	Colleen	Iversen		
3019264	29512043	22543	Eucalyptus globulus	147.51	-42.82			Plant biomass and allometry: Stem cross-sectional area at base of the plant	BAAD: a biomass and allometry database for woody plants	Daniel	Falster	University of New South Wales	
3019230	29510900	22543	Eucalyptus globulus	147.51	-42.82			Plant functional type (PFT)	BAAD: a biomass and allometry database for woody plants	Daniel	Falster	University of New South Wales	
3019291	29513014	22543	Eucalyptus globulus	147.51	-42.82			Plant functional type (PFT)	BAAD: a biomass and allometry database for woody plants	Daniel	Falster	University of New South Wales	
4444731	49600109	22543	Eucalyptus globulus	147.51	-42.82		2000 to 2005	Mycorrhiza type	FRED - Fine Root Ecology Database	Colleen	Iversen		
4404887	48144277	22543	Eucalyptus globulus	147.51	-42.82		2000 to 2005	Mycorrhiza type	FRED - Fine Root Ecology Database	Colleen	Iversen		
3009585	29176892	22674	Eucalyptus nitens	146.9	-43.35			Plant height vegetative	BAAD: a biomass and allometry database for woody plants	Daniel	Falster	University of New South Wales	
3009581	29176728	22674	Eucalyptus nitens	146.9	-43.35			Plant height vegetative	BAAD: a biomass and allometry database for woody plants	Daniel	Falster	University of New South Wales	
3009595	29177297	22674	Eucalyptus nitens	147.6	-43.3			Plant biomass and allometry: Wood (heartwood) cross-sectional area at breast height	BAAD: a biomass and allometry database for woody plants	Daniel	Falster	University of New South Wales	
3009591	29177133	22674	Eucalyptus nitens	146.9	-43.35			Plant biomass and allometry: Wood (heartwood) cross-sectional area at breast height	BAAD: a biomass and allometry database for woody plants	Daniel	Falster	University of New South Wales	
1310500	9140554	22674	Eucalyptus nitens	147.6	-42.82		1994-06-13	Leaf photosynthesis pathway	Leaf Physiology Database	Jens	Kattge	Max Planck Institute for Biogeochemistry	
1310491	9140292	22674	Eucalyptus nitens	147.6	-42.82		1994-03-18	Leaf phenology type	Leaf Physiology Database	Jens	Kattge	Max Planck Institute for Biogeochemistry	
3009578	29176604	22674	Eucalyptus nitens	146.9	-43.35			Plant biomass and allometry: Stem cross-sectional area at base of the crown	BAAD: a biomass and allometry database for woody plants	Daniel	Falster	University of New South Wales	
3009605	29177714	22674	Eucalyptus nitens	147.583333333333	-42.8166666666667			Stem diameter	BAAD: a biomass and allometry database for woody plants	Daniel	Falster	University of New South Wales	
3009601	29177550	22674	Eucalyptus nitens	147.583333333333	-42.8166666666667			Stem diameter	BAAD: a biomass and allometry database for woody plants	Daniel	Falster	University of New South Wales	
1310504	9140669	22674	Eucalyptus nitens	147.6	-42.82		1994-06-13	Leaf phenology type	Leaf Physiology Database	Jens	Kattge	Max Planck Institute for Biogeochemistry	
3009589	29177056	22674	Eucalyptus nitens	146.9	-43.35			Plant height vegetative	BAAD: a biomass and allometry database for woody plants	Daniel	Falster	University of New South Wales	
1310496	9140439	22674	Eucalyptus nitens	147.6	-42.82		1994-05-09	Leaf type	Leaf Physiology Database	Jens	Kattge	Max Planck Institute for Biogeochemistry	
3009580	29176692	22674	Eucalyptus nitens	146.9	-43.35			Crown (canopy) height (base to top)	BAAD: a biomass and allometry database for woody plants	Daniel	Falster	University of New South Wales	
1310487	9140177	22674	Eucalyptus nitens	147.6	-42.82		1994-03-18	Leaf photosynthesis pathway	Leaf Physiology Database	Jens	Kattge	Max Planck Institute for Biogeochemistry	
3009604	29177659	22674	Eucalyptus nitens	147.583333333333	-42.8166666666667			Plant functional type (PFT)	BAAD: a biomass and allometry database for woody plants	Daniel	Falster	University of New South Wales	
3009600	29177495	22674	Eucalyptus nitens	147.6	-43.3			Plant functional type (PFT)	BAAD: a biomass and allometry database for woody plants	Daniel	Falster	University of New South Wales	
1310482	9140014	22674	Eucalyptus nitens	147.6	-42.82		1994-02-14	Leaf photosynthesis rate per leaf area	Leaf Physiology Database	Jens	Kattge	Max Planck Institute for Biogeochemistry	
3009587	29176980	22674	Eucalyptus nitens	146.9	-43.35			Plant biomass and allometry: Leaf mass (dry or fresh) per plant	BAAD: a biomass and allometry database for woody plants	Daniel	Falster	University of New South Wales	
3009583	29176816	22674	Eucalyptus nitens	146.9	-43.35			Plant biomass and allometry: Leaf mass (dry or fresh) per plant	BAAD: a biomass and allometry database for woody plants	Daniel	Falster	University of New South Wales	
3009597	29177384	22674	Eucalyptus nitens	147.6	-43.3			Plant height vegetative	BAAD: a biomass and allometry database for woody plants	Daniel	Falster	University of New South Wales	
3009593	29177220	22674	Eucalyptus nitens	146.9	-43.35			Plant height vegetative	BAAD: a biomass and allometry database for woody plants	Daniel	Falster	University of New South Wales	
1310505	9140701	22674	Eucalyptus nitens	147.6	-42.82		1994-06-13	Species occurrence range: climate type	Leaf Physiology Database	Jens	Kattge	Max Planck Institute for Biogeochemistry	
3009586	29176927	22674	Eucalyptus nitens	146.9	-43.35			Plant biomass and allometry: Wood (sapwood) cross-sectional area at base of crown	BAAD: a biomass and allometry database for woody plants	Daniel	Falster	University of New South Wales	
3009582	29176763	22674	Eucalyptus nitens	146.9	-43.35			Plant biomass and allometry: Wood (sapwood) cross-sectional area at base of crown	BAAD: a biomass and allometry database for woody plants	Daniel	Falster	University of New South Wales	
3009595	29177308	22674	Eucalyptus nitens	147.6	-43.3			Plant biomass and allometry: Leaf mass (dry or fresh) per plant	BAAD: a biomass and allometry database for woody plants	Daniel	Falster	University of New South Wales	
3009591	29177144	22674	Eucalyptus nitens	146.9	-43.35			Plant biomass and allometry: Leaf mass (dry or fresh) per plant	BAAD: a biomass and allometry database for woody plants	Daniel	Falster	University of New South Wales	
1310502	9140594	22674	Eucalyptus nitens	147.6	-42.82		1994-06-13	Leaf photosynthesis rate per leaf area	Leaf Physiology Database	Jens	Kattge	Max Planck Institute for Biogeochemistry	
1310492	9140324	22674	Eucalyptus nitens	147.6	-42.82		1994-03-18	Species occurrence range: climate type	Leaf Physiology Database	Jens	Kattge	Max Planck Institute for Biogeochemistry	
3009579	29176639	22674	Eucalyptus nitens	146.9	-43.35			Plant biomass and allometry: Wood (sapwood) cross-sectional area at breast height	BAAD: a biomass and allometry database for woody plants	Daniel	Falster	University of New South Wales	
3009606	29177749	22674	Eucalyptus nitens	147.583333333333	-42.8166666666667			Plant biomass and allometry: Wood (heartwood) cross-sectional area at base of crown	BAAD: a biomass and allometry database for woody plants	Daniel	Falster	University of New South Wales	
3009602	29177585	22674	Eucalyptus nitens	147.583333333333	-42.8166666666667			Plant biomass and allometry: Wood (heartwood) cross-sectional area at base of crown	BAAD: a biomass and allometry database for woody plants	Daniel	Falster	University of New South Wales	
3009594	29177255	22674	Eucalyptus nitens	146.9	-43.35			Plant biomass and allometry: Wood (sapwood) cross-sectional area at base of crown	BAAD: a biomass and allometry database for woody plants	Daniel	Falster	University of New South Wales	
3009590	29177091	22674	Eucalyptus nitens	146.9	-43.35			Plant biomass and allometry: Wood (sapwood) cross-sectional area at base of crown	BAAD: a biomass and allometry database for woody plants	Daniel	Falster	University of New South Wales	
1310498	9140489	22674	Eucalyptus nitens	147.6	-42.82		1994-05-09	Plant nitrogen(N) fixation capacity	Leaf Physiology Database	Jens	Kattge	Max Planck Institute for Biogeochemistry	
3009581	29176726	22674	Eucalyptus nitens	146.9	-43.35			Plant biomass and allometry: Stem cross-sectional area at breast height	BAAD: a biomass and allometry database for woody plants	Daniel	Falster	University of New South Wales	
1310489	9140217	22674	Eucalyptus nitens	147.6	-42.82		1994-03-18	Leaf photosynthesis rate per leaf area	Leaf Physiology Database	Jens	Kattge	Max Planck Institute for Biogeochemistry	
3009577	29176562	22674	Eucalyptus nitens	146.9	-43.35			Plant biomass and allometry: Stem cross-sectional area at breast height	BAAD: a biomass and allometry database for woody plants	Daniel	Falster	University of New South Wales	
3009604	29177672	22674	Eucalyptus nitens	147.583333333333	-42.8166666666667			Plant height of lowest branch	BAAD: a biomass and allometry database for woody plants	Daniel	Falster	University of New South Wales	
3009600	29177508	22674	Eucalyptus nitens	147.6	-43.3			Plant height of lowest branch	BAAD: a biomass and allometry database for woody plants	Daniel	Falster	University of New South Wales	
1310483	9140060	22674	Eucalyptus nitens	147.6	-42.82		1994-02-14	Leaf phenology type	Leaf Physiology Database	Jens	Kattge	Max Planck Institute for Biogeochemistry	
3009588	29177014	22674	Eucalyptus nitens	146.9	-43.35			Plant biomass and allometry: Stem cross-sectional area at base of the crown	BAAD: a biomass and allometry database for woody plants	Daniel	Falster	University of New South Wales	
3009584	29176850	22674	Eucalyptus nitens	146.9	-43.35			Plant biomass and allometry: Stem cross-sectional area at base of the crown	BAAD: a biomass and allometry database for woody plants	Daniel	Falster	University of New South Wales	
3009598	29177419	22674	Eucalyptus nitens	147.6	-43.3			Plant biomass and allometry: Wood (sapwood) cross-sectional area at base of crown	BAAD: a biomass and allometry database for woody plants	Daniel	Falster	University of New South Wales	
3009606	29177774	22674	Eucalyptus nitens	147.583333333333	-42.8166666666667			Leaf area per leaf dry mass (specific leaf area, SLA or 1/LMA): undefined if petiole is in- or exclu	BAAD: a biomass and allometry database for woody plants	Daniel	Falster	University of New South Wales	
3009602	29177610	22674	Eucalyptus nitens	147.583333333333	-42.8166666666667			Leaf area per leaf dry mass (specific leaf area, SLA or 1/LMA): undefined if petiole is in- or exclu	BAAD: a biomass and allometry database for woody plants	Daniel	Falster	University of New South Wales	
3009598	29177446	22674	Eucalyptus nitens	147.6	-43.3			Leaf area per leaf dry mass (specific leaf area, SLA or 1/LMA): undefined if petiole is in- or exclu	BAAD: a biomass and allometry database for woody plants	Daniel	Falster	University of New South Wales	
1310479	9139945	22674	Eucalyptus nitens	147.6	-42.82		1994-06-21	Leaf photosynthesis pathway	Leaf Physiology Database	Jens	Kattge	Max Planck Institute for Biogeochemistry	
3009586	29176938	22674	Eucalyptus nitens	146.9	-43.35			Crown (canopy) height (base to top)	BAAD: a biomass and allometry database for woody plants	Daniel	Falster	University of New South Wales	
3009582	29176774	22674	Eucalyptus nitens	146.9	-43.35			Crown (canopy) height (base to top)	BAAD: a biomass and allometry database for woody plants	Daniel	Falster	University of New South Wales	
3009596	29177342	22674	Eucalyptus nitens	147.6	-43.3			Plant biomass and allometry: Stem cross-sectional area at base of the crown	BAAD: a biomass and allometry database for woody plants	Daniel	Falster	University of New South Wales	
3009592	29177178	22674	Eucalyptus nitens	146.9	-43.35			Plant biomass and allometry: Stem cross-sectional area at base of the crown	BAAD: a biomass and allometry database for woody plants	Daniel	Falster	University of New South Wales	
1310503	9140640	22674	Eucalyptus nitens	147.6	-42.82		1994-06-13	Leaf phenology type	Leaf Physiology Database	Jens	Kattge	Max Planck Institute for Biogeochemistry	
1310494	9140378	22674	Eucalyptus nitens	147.6	-42.82		1994-05-09	Plant growth form	Leaf Physiology Database	Jens	Kattge	Max Planck Institute for Biogeochemistry	
3009579	29176649	22674	Eucalyptus nitens	146.9	-43.35			Stem diameter	BAAD: a biomass and allometry database for woody plants	Daniel	Falster	University of New South Wales	
1310485	9140112	22674	Eucalyptus nitens	147.6	-42.82		1994-02-14	Plant nitrogen(N) fixation capacity	Leaf Physiology Database	Jens	Kattge	Max Planck Institute for Biogeochemistry	
3009594	29177266	22674	Eucalyptus nitens	146.9	-43.35			Crown (canopy) height (base to top)	BAAD: a biomass and allometry database for woody plants	Daniel	Falster	University of New South Wales	
3009590	29177102	22674	Eucalyptus nitens	146.9	-43.35			Crown (canopy) height (base to top)	BAAD: a biomass and allometry database for woody plants	Daniel	Falster	University of New South Wales	
1310499	9140525	22674	Eucalyptus nitens	147.6	-42.82		1994-05-09	Leaf photosynthesis pathway	Leaf Physiology Database	Jens	Kattge	Max Planck Institute for Biogeochemistry	
1310490	9140263	22674	Eucalyptus nitens	147.6	-42.82		1994-03-18	Leaf phenology type	Leaf Physiology Database	Jens	Kattge	Max Planck Institute for Biogeochemistry	
3009578	29176597	22674	Eucalyptus nitens	146.9	-43.35			Leaf area per plant	BAAD: a biomass and allometry database for woody plants	Daniel	Falster	University of New South Wales	
3009605	29177707	22674	Eucalyptus nitens	147.583333333333	-42.8166666666667			Plant biomass and allometry: Wood (heartwood) cross-sectional area at breast height	BAAD: a biomass and allometry database for woody plants	Daniel	Falster	University of New South Wales	
3009601	29177543	22674	Eucalyptus nitens	147.583333333333	-42.8166666666667			Plant biomass and allometry: Wood (heartwood) cross-sectional area at breast height	BAAD: a biomass and allometry database for woody plants	Daniel	Falster	University of New South Wales	
3009589	29177049	22674	Eucalyptus nitens	146.9	-43.35			Plant biomass and allometry: Wood (sapwood) cross-sectional area at breast height	BAAD: a biomass and allometry database for woody plants	Daniel	Falster	University of New South Wales	
3009585	29176885	22674	Eucalyptus nitens	146.9	-43.35			Plant biomass and allometry: Wood (sapwood) cross-sectional area at breast height	BAAD: a biomass and allometry database for woody plants	Daniel	Falster	University of New South Wales	
1310495	9140410	22674	Eucalyptus nitens	147.6	-42.82		1994-05-09	Leaf type	Leaf Physiology Database	Jens	Kattge	Max Planck Institute for Biogeochemistry	
3009580	29176684	22674	Eucalyptus nitens	146.9	-43.35			Plant biomass and allometry: Stem cross-sectional area at base of the plant	BAAD: a biomass and allometry database for woody plants	Daniel	Falster	University of New South Wales	
1310486	9140148	22674	Eucalyptus nitens	147.6	-42.82		1994-03-18	Leaf photosynthesis pathway	Leaf Physiology Database	Jens	Kattge	Max Planck Institute for Biogeochemistry	
3009603	29177630	22674	Eucalyptus nitens	147.583333333333	-42.8166666666667			Plant height vegetative	BAAD: a biomass and allometry database for woody plants	Daniel	Falster	University of New South Wales	
3009599	29177466	22674	Eucalyptus nitens	147.6	-43.3			Plant height vegetative	BAAD: a biomass and allometry database for woody plants	Daniel	Falster	University of New South Wales	
1310481	9139985	22674	Eucalyptus nitens	147.6	-42.82		1994-02-14	Leaf photosynthesis rate per leaf area	Leaf Physiology Database	Jens	Kattge	Max Planck Institute for Biogeochemistry	
3009587	29176972	22674	Eucalyptus nitens	146.9	-43.35			Plant biomass and allometry: Stem cross-sectional area at breast height	BAAD: a biomass and allometry database for woody plants	Daniel	Falster	University of New South Wales	
3009583	29176808	22674	Eucalyptus nitens	146.9	-43.35			Plant biomass and allometry: Stem cross-sectional area at breast height	BAAD: a biomass and allometry database for woody plants	Daniel	Falster	University of New South Wales	
3009597	29177377	22674	Eucalyptus nitens	147.6	-43.3			Plant biomass and allometry: Wood (sapwood) cross-sectional area at breast height	BAAD: a biomass and allometry database for woody plants	Daniel	Falster	University of New South Wales	
3009593	29177213	22674	Eucalyptus nitens	146.9	-43.35			Plant biomass and allometry: Wood (sapwood) cross-sectional area at breast height	BAAD: a biomass and allometry database for woody plants	Daniel	Falster	University of New South Wales	
3009589	29177059	22674	Eucalyptus nitens	146.9	-43.35			Stem diameter	BAAD: a biomass and allometry database for woody plants	Daniel	Falster	University of New South Wales	
3009585	29176895	22674	Eucalyptus nitens	146.9	-43.35			Stem diameter	BAAD: a biomass and allometry database for woody plants	Daniel	Falster	University of New South Wales	
3009581	29176731	22674	Eucalyptus nitens	146.9	-43.35			Stem diameter	BAAD: a biomass and allometry database for woody plants	Daniel	Falster	University of New South Wales	
3009595	29177300	22674	Eucalyptus nitens	147.6	-43.3			Plant biomass and allometry: Stem cross-sectional area at breast height	BAAD: a biomass and allometry database for woody plants	Daniel	Falster	University of New South Wales	
3009591	29177136	22674	Eucalyptus nitens	146.9	-43.35			Plant biomass and allometry: Stem cross-sectional area at breast height	BAAD: a biomass and allometry database for woody plants	Daniel	Falster	University of New South Wales	
1310501	9140565	22674	Eucalyptus nitens	147.6	-42.82		1994-06-13	Leaf photosynthesis rate per leaf area	Leaf Physiology Database	Jens	Kattge	Max Planck Institute for Biogeochemistry	
1310491	9140295	22674	Eucalyptus nitens	147.6	-42.82		1994-03-18	Species occurrence range: climate type	Leaf Physiology Database	Jens	Kattge	Max Planck Institute for Biogeochemistry	
3009578	29176607	22674	Eucalyptus nitens	146.9	-43.35			Stem diameter	BAAD: a biomass and allometry database for woody plants	Daniel	Falster	University of New South Wales	
3009605	29177718	22674	Eucalyptus nitens	147.583333333333	-42.8166666666667			Plant biomass and allometry: Leaf mass (dry or fresh) per plant	BAAD: a biomass and allometry database for woody plants	Daniel	Falster	University of New South Wales	
3009601	29177554	22674	Eucalyptus nitens	147.583333333333	-42.8166666666667			Plant biomass and allometry: Leaf mass (dry or fresh) per plant	BAAD: a biomass and allometry database for woody plants	Daniel	Falster	University of New South Wales	
1310504	9140672	22674	Eucalyptus nitens	147.6	-42.82		1994-06-13	Species occurrence range: climate type	Leaf Physiology Database	Jens	Kattge	Max Planck Institute for Biogeochemistry	
1310497	9140460	22674	Eucalyptus nitens	147.6	-42.82		1994-05-09	Plant nitrogen(N) fixation capacity	Leaf Physiology Database	Jens	Kattge	Max Planck Institute for Biogeochemistry	
3009581	29176716	22674	Eucalyptus nitens	146.9	-43.35			Plant functional type (PFT)	BAAD: a biomass and allometry database for woody plants	Daniel	Falster	University of New South Wales	
1310488	9140188	22674	Eucalyptus nitens	147.6	-42.82		1994-03-18	Leaf photosynthesis rate per leaf area	Leaf Physiology Database	Jens	Kattge	Max Planck Institute for Biogeochemistry	
3009577	29176552	22674	Eucalyptus nitens	146.9	-43.35			Plant functional type (PFT)	BAAD: a biomass and allometry database for woody plants	Daniel	Falster	University of New South Wales	
3009604	29177665	22674	Eucalyptus nitens	147.583333333333	-42.8166666666667			Plant biomass and allometry: Wood (sapwood) cross-sectional area at base of crown	BAAD: a biomass and allometry database for woody plants	Daniel	Falster	University of New South Wales	
3009600	29177501	22674	Eucalyptus nitens	147.6	-43.3			Plant biomass and allometry: Wood (sapwood) cross-sectional area at base of crown	BAAD: a biomass and allometry database for woody plants	Daniel	Falster	University of New South Wales	
1310482	9140031	22674	Eucalyptus nitens	147.6	-42.82		1994-02-14	Leaf phenology type	Leaf Physiology Database	Jens	Kattge	Max Planck Institute for Biogeochemistry	
3009588	29177007	22674	Eucalyptus nitens	146.9	-43.35			Leaf area per plant	BAAD: a biomass and allometry database for woody plants	Daniel	Falster	University of New South Wales	
3009584	29176843	22674	Eucalyptus nitens	146.9	-43.35			Leaf area per plant	BAAD: a biomass and allometry database for woody plants	Daniel	Falster	University of New South Wales	
3009597	29177387	22674	Eucalyptus nitens	147.6	-43.3			Stem diameter	BAAD: a biomass and allometry database for woody plants	Daniel	Falster	University of New South Wales	
3009593	29177223	22674	Eucalyptus nitens	146.9	-43.35			Stem diameter	BAAD: a biomass and allometry database for woody plants	Daniel	Falster	University of New South Wales	
1310506	9140726	22674	Eucalyptus nitens	147.6	-42.82		1994-06-13	Plant growth form	Leaf Physiology Database	Jens	Kattge	Max Planck Institute for Biogeochemistry	
3009586	29176930	22674	Eucalyptus nitens	146.9	-43.35			Plant biomass and allometry: Stem cross-sectional area at base of the plant	BAAD: a biomass and allometry database for woody plants	Daniel	Falster	University of New South Wales	
3009582	29176766	22674	Eucalyptus nitens	146.9	-43.35			Plant biomass and allometry: Stem cross-sectional area at base of the plant	BAAD: a biomass and allometry database for woody plants	Daniel	Falster	University of New South Wales	
3009596	29177335	22674	Eucalyptus nitens	147.6	-43.3			Leaf area per plant	BAAD: a biomass and allometry database for woody plants	Daniel	Falster	University of New South Wales	
3009592	29177171	22674	Eucalyptus nitens	146.9	-43.35			Leaf area per plant	BAAD: a biomass and allometry database for woody plants	Daniel	Falster	University of New South Wales	
1310502	9140611	22674	Eucalyptus nitens	147.6	-42.82		1994-06-13	Leaf phenology type	Leaf Physiology Database	Jens	Kattge	Max Planck Institute for Biogeochemistry	
1310493	9140349	22674	Eucalyptus nitens	147.6	-42.82		1994-05-09	Plant growth form	Leaf Physiology Database	Jens	Kattge	Max Planck Institute for Biogeochemistry	
3009579	29176642	22674	Eucalyptus nitens	146.9	-43.35			Plant biomass and allometry: Wood (heartwood) cross-sectional area at base of crown	BAAD: a biomass and allometry database for woody plants	Daniel	Falster	University of New South Wales	
3009606	29177752	22674	Eucalyptus nitens	147.583333333333	-42.8166666666667			Plant biomass and allometry: Stem cross-sectional area at base of the crown	BAAD: a biomass and allometry database for woody plants	Daniel	Falster	University of New South Wales	
3009602	29177588	22674	Eucalyptus nitens	147.583333333333	-42.8166666666667			Plant biomass and allometry: Stem cross-sectional area at base of the crown	BAAD: a biomass and allometry database for woody plants	Daniel	Falster	University of New South Wales	
3009598	29177422	22674	Eucalyptus nitens	147.6	-43.3			Plant biomass and allometry: Stem cross-sectional area at base of the plant	BAAD: a biomass and allometry database for woody plants	Daniel	Falster	University of New South Wales	
3009594	29177258	22674	Eucalyptus nitens	146.9	-43.35			Plant biomass and allometry: Stem cross-sectional area at base of the plant	BAAD: a biomass and allometry database for woody plants	Daniel	Falster	University of New South Wales	
3009590	29177094	22674	Eucalyptus nitens	146.9	-43.35			Plant biomass and allometry: Stem cross-sectional area at base of the plant	BAAD: a biomass and allometry database for woody plants	Daniel	Falster	University of New South Wales	
1310498	9140496	22674	Eucalyptus nitens	147.6	-42.82		1994-05-09	Leaf photosynthesis pathway	Leaf Physiology Database	Jens	Kattge	Max Planck Institute for Biogeochemistry	
1310489	9140234	22674	Eucalyptus nitens	147.6	-42.82		1994-03-18	Leaf phenology type	Leaf Physiology Database	Jens	Kattge	Max Planck Institute for Biogeochemistry	
3009577	29176565	22674	Eucalyptus nitens	146.9	-43.35			Plant height of lowest branch	BAAD: a biomass and allometry database for woody plants	Daniel	Falster	University of New South Wales	
3009604	29177676	22674	Eucalyptus nitens	147.583333333333	-42.8166666666667			Crown (canopy) height (base to top)	BAAD: a biomass and allometry database for woody plants	Daniel	Falster	University of New South Wales	
3009600	29177512	22674	Eucalyptus nitens	147.6	-43.3			Crown (canopy) height (base to top)	BAAD: a biomass and allometry database for woody plants	Daniel	Falster	University of New South Wales	
1310483	9140063	22674	Eucalyptus nitens	147.6	-42.82		1994-02-14	Species occurrence range: climate type	Leaf Physiology Database	Jens	Kattge	Max Planck Institute for Biogeochemistry	
3009588	29177017	22674	Eucalyptus nitens	146.9	-43.35			Stem diameter	BAAD: a biomass and allometry database for woody plants	Daniel	Falster	University of New South Wales	
3009584	29176853	22674	Eucalyptus nitens	146.9	-43.35			Stem diameter	BAAD: a biomass and allometry database for woody plants	Daniel	Falster	University of New South Wales	
3009579	29176667	22674	Eucalyptus nitens	146.9	-43.35			Leaf area per leaf dry mass (specific leaf area, SLA or 1/LMA): undefined if petiole is in- or exclu	BAAD: a biomass and allometry database for woody plants	Daniel	Falster	University of New South Wales	
1310485	9140119	22674	Eucalyptus nitens	147.6	-42.82		1994-02-14	Leaf photosynthesis pathway	Leaf Physiology Database	Jens	Kattge	Max Planck Institute for Biogeochemistry	
3009603	29177623	22674	Eucalyptus nitens	147.583333333333	-42.8166666666667			Plant biomass and allometry: Wood (sapwood) cross-sectional area at breast height	BAAD: a biomass and allometry database for woody plants	Daniel	Falster	University of New South Wales	
3009599	29177459	22674	Eucalyptus nitens	147.6	-43.3			Plant biomass and allometry: Wood (sapwood) cross-sectional area at breast height	BAAD: a biomass and allometry database for woody plants	Daniel	Falster	University of New South Wales	
1310480	9139956	22674	Eucalyptus nitens	147.6	-42.82		1994-02-14	Leaf photosynthesis rate per leaf area	Leaf Physiology Database	Jens	Kattge	Max Planck Institute for Biogeochemistry	
3009587	29176962	22674	Eucalyptus nitens	146.9	-43.35			Plant functional type (PFT)	BAAD: a biomass and allometry database for woody plants	Daniel	Falster	University of New South Wales	
3009583	29176798	22674	Eucalyptus nitens	146.9	-43.35			Plant functional type (PFT)	BAAD: a biomass and allometry database for woody plants	Daniel	Falster	University of New South Wales	
3009596	29177345	22674	Eucalyptus nitens	147.6	-43.3			Stem diameter	BAAD: a biomass and allometry database for woody plants	Daniel	Falster	University of New South Wales	
3009592	29177181	22674	Eucalyptus nitens	146.9	-43.35			Stem diameter	BAAD: a biomass and allometry database for woody plants	Daniel	Falster	University of New South Wales	
1310503	9140643	22674	Eucalyptus nitens	147.6	-42.82		1994-06-13	Species occurrence range: climate type	Leaf Physiology Database	Jens	Kattge	Max Planck Institute for Biogeochemistry	
1310494	9140381	22674	Eucalyptus nitens	147.6	-42.82		1994-05-09	Leaf type	Leaf Physiology Database	Jens	Kattge	Max Planck Institute for Biogeochemistry	
3009595	29177290	22674	Eucalyptus nitens	147.6	-43.3			Plant functional type (PFT)	BAAD: a biomass and allometry database for woody plants	Daniel	Falster	University of New South Wales	
3009591	29177126	22674	Eucalyptus nitens	146.9	-43.35			Plant functional type (PFT)	BAAD: a biomass and allometry database for woody plants	Daniel	Falster	University of New South Wales	
1310500	9140536	22674	Eucalyptus nitens	147.6	-42.82		1994-06-13	Leaf photosynthesis rate per leaf area	Leaf Physiology Database	Jens	Kattge	Max Planck Institute for Biogeochemistry	
1310490	9140266	22674	Eucalyptus nitens	147.6	-42.82		1994-03-18	Species occurrence range: climate type	Leaf Physiology Database	Jens	Kattge	Max Planck Institute for Biogeochemistry	
3009578	29176600	22674	Eucalyptus nitens	146.9	-43.35			Plant biomass and allometry: Wood (heartwood) cross-sectional area at breast height	BAAD: a biomass and allometry database for woody plants	Daniel	Falster	University of New South Wales	
3009605	29177710	22674	Eucalyptus nitens	147.583333333333	-42.8166666666667			Plant biomass and allometry: Stem cross-sectional area at breast height	BAAD: a biomass and allometry database for woody plants	Daniel	Falster	University of New South Wales	
3009601	29177546	22674	Eucalyptus nitens	147.583333333333	-42.8166666666667			Plant biomass and allometry: Stem cross-sectional area at breast height	BAAD: a biomass and allometry database for woody plants	Daniel	Falster	University of New South Wales	
3009589	29177052	22674	Eucalyptus nitens	146.9	-43.35			Plant biomass and allometry: Wood (heartwood) cross-sectional area at base of crown	BAAD: a biomass and allometry database for woody plants	Daniel	Falster	University of New South Wales	
3009585	29176888	22674	Eucalyptus nitens	146.9	-43.35			Plant biomass and allometry: Wood (heartwood) cross-sectional area at base of crown	BAAD: a biomass and allometry database for woody plants	Daniel	Falster	University of New South Wales	
1310496	9140431	22674	Eucalyptus nitens	147.6	-42.82		1994-05-09	Plant nitrogen(N) fixation capacity	Leaf Physiology Database	Jens	Kattge	Max Planck Institute for Biogeochemistry	
3009580	29176687	22674	Eucalyptus nitens	146.9	-43.35			Plant height vegetative	BAAD: a biomass and allometry database for woody plants	Daniel	Falster	University of New South Wales	
1310487	9140159	22674	Eucalyptus nitens	147.6	-42.82		1994-03-18	Leaf photosynthesis rate per leaf area	Leaf Physiology Database	Jens	Kattge	Max Planck Institute for Biogeochemistry	
3009603	29177633	22674	Eucalyptus nitens	147.583333333333	-42.8166666666667			Stem diameter	BAAD: a biomass and allometry database for woody plants	Daniel	Falster	University of New South Wales	
3009599	29177469	22674	Eucalyptus nitens	147.6	-43.3			Stem diameter	BAAD: a biomass and allometry database for woody plants	Daniel	Falster	University of New South Wales	
1310481	9140002	22674	Eucalyptus nitens	147.6	-42.82		1994-02-14	Leaf phenology type	Leaf Physiology Database	Jens	Kattge	Max Planck Institute for Biogeochemistry	
3009587	29176975	22674	Eucalyptus nitens	146.9	-43.35			Plant height of lowest branch	BAAD: a biomass and allometry database for woody plants	Daniel	Falster	University of New South Wales	
3009583	29176811	22674	Eucalyptus nitens	146.9	-43.35			Plant height of lowest branch	BAAD: a biomass and allometry database for woody plants	Daniel	Falster	University of New South Wales	
3009597	29177380	22674	Eucalyptus nitens	147.6	-43.3			Plant biomass and allometry: Wood (heartwood) cross-sectional area at base of crown	BAAD: a biomass and allometry database for woody plants	Daniel	Falster	University of New South Wales	
3009593	29177216	22674	Eucalyptus nitens	146.9	-43.35			Plant biomass and allometry: Wood (heartwood) cross-sectional area at base of crown	BAAD: a biomass and allometry database for woody plants	Daniel	Falster	University of New South Wales	
1310505	9140697	22674	Eucalyptus nitens	147.6	-42.82		1994-06-13	Plant growth form	Leaf Physiology Database	Jens	Kattge	Max Planck Institute for Biogeochemistry	
3009589	29177077	22674	Eucalyptus nitens	146.9	-43.35			Leaf area per leaf dry mass (specific leaf area, SLA or 1/LMA): undefined if petiole is in- or exclu	BAAD: a biomass and allometry database for woody plants	Daniel	Falster	University of New South Wales	
3009585	29176913	22674	Eucalyptus nitens	146.9	-43.35			Leaf area per leaf dry mass (specific leaf area, SLA or 1/LMA): undefined if petiole is in- or exclu	BAAD: a biomass and allometry database for woody plants	Daniel	Falster	University of New South Wales	
3009581	29176749	22674	Eucalyptus nitens	146.9	-43.35			Leaf area per leaf dry mass (specific leaf area, SLA or 1/LMA): undefined if petiole is in- or exclu	BAAD: a biomass and allometry database for woody plants	Daniel	Falster	University of New South Wales	
3009595	29177303	22674	Eucalyptus nitens	147.6	-43.3			Plant height of lowest branch	BAAD: a biomass and allometry database for woody plants	Daniel	Falster	University of New South Wales	
3009591	29177139	22674	Eucalyptus nitens	146.9	-43.35			Plant height of lowest branch	BAAD: a biomass and allometry database for woody plants	Daniel	Falster	University of New South Wales	
1310501	9140582	22674	Eucalyptus nitens	147.6	-42.82		1994-06-13	Leaf phenology type	Leaf Physiology Database	Jens	Kattge	Max Planck Institute for Biogeochemistry	
1310492	9140320	22674	Eucalyptus nitens	147.6	-42.82		1994-03-18	Plant growth form	Leaf Physiology Database	Jens	Kattge	Max Planck Institute for Biogeochemistry	
3009578	29176611	22674	Eucalyptus nitens	146.9	-43.35			Plant biomass and allometry: Leaf mass (dry or fresh) per plant	BAAD: a biomass and allometry database for woody plants	Daniel	Falster	University of New South Wales	
3009606	29177745	22674	Eucalyptus nitens	147.583333333333	-42.8166666666667			Leaf area per plant	BAAD: a biomass and allometry database for woody plants	Daniel	Falster	University of New South Wales	
3009602	29177581	22674	Eucalyptus nitens	147.583333333333	-42.8166666666667			Leaf area per plant	BAAD: a biomass and allometry database for woody plants	Daniel	Falster	University of New South Wales	
1310497	9140467	22674	Eucalyptus nitens	147.6	-42.82		1994-05-09	Leaf photosynthesis pathway	Leaf Physiology Database	Jens	Kattge	Max Planck Institute for Biogeochemistry	
3009581	29176722	22674	Eucalyptus nitens	146.9	-43.35			Plant biomass and allometry: Wood (sapwood) cross-sectional area at base of crown	BAAD: a biomass and allometry database for woody plants	Daniel	Falster	University of New South Wales	
1310488	9140205	22674	Eucalyptus nitens	147.6	-42.82		1994-03-18	Leaf phenology type	Leaf Physiology Database	Jens	Kattge	Max Planck Institute for Biogeochemistry	
3009577	29176558	22674	Eucalyptus nitens	146.9	-43.35			Plant biomass and allometry: Wood (sapwood) cross-sectional area at base of crown	BAAD: a biomass and allometry database for woody plants	Daniel	Falster	University of New South Wales	
3009604	29177668	22674	Eucalyptus nitens	147.583333333333	-42.8166666666667			Plant biomass and allometry: Stem cross-sectional area at base of the plant	BAAD: a biomass and allometry database for woody plants	Daniel	Falster	University of New South Wales	
3009600	29177504	22674	Eucalyptus nitens	147.6	-43.3			Plant biomass and allometry: Stem cross-sectional area at base of the plant	BAAD: a biomass and allometry database for woody plants	Daniel	Falster	University of New South Wales	
1310482	9140034	22674	Eucalyptus nitens	147.6	-42.82		1994-02-14	Species occurrence range: climate type	Leaf Physiology Database	Jens	Kattge	Max Planck Institute for Biogeochemistry	
3009588	29177010	22674	Eucalyptus nitens	146.9	-43.35			Plant biomass and allometry: Wood (heartwood) cross-sectional area at breast height	BAAD: a biomass and allometry database for woody plants	Daniel	Falster	University of New South Wales	
3009584	29176846	22674	Eucalyptus nitens	146.9	-43.35			Plant biomass and allometry: Wood (heartwood) cross-sectional area at breast height	BAAD: a biomass and allometry database for woody plants	Daniel	Falster	University of New South Wales	
3009597	29177405	22674	Eucalyptus nitens	147.6	-43.3			Leaf area per leaf dry mass (specific leaf area, SLA or 1/LMA): undefined if petiole is in- or exclu	BAAD: a biomass and allometry database for woody plants	Daniel	Falster	University of New South Wales	
3009593	29177241	22674	Eucalyptus nitens	146.9	-43.35			Leaf area per leaf dry mass (specific leaf area, SLA or 1/LMA): undefined if petiole is in- or exclu	BAAD: a biomass and allometry database for woody plants	Daniel	Falster	University of New South Wales	
3009602	29177591	22674	Eucalyptus nitens	147.583333333333	-42.8166666666667			Stem diameter	BAAD: a biomass and allometry database for woody plants	Daniel	Falster	University of New South Wales	
3009598	29177427	22674	Eucalyptus nitens	147.6	-43.3			Stem diameter	BAAD: a biomass and allometry database for woody plants	Daniel	Falster	University of New South Wales	
1310506	9140729	22674	Eucalyptus nitens	147.6	-42.82		1994-06-13	Leaf type	Leaf Physiology Database	Jens	Kattge	Max Planck Institute for Biogeochemistry	
1310479	9139927	22674	Eucalyptus nitens	147.6	-42.82		1994-06-21	Leaf photosynthesis rate per leaf area	Leaf Physiology Database	Jens	Kattge	Max Planck Institute for Biogeochemistry	
3009586	29176933	22674	Eucalyptus nitens	146.9	-43.35			Plant height vegetative	BAAD: a biomass and allometry database for woody plants	Daniel	Falster	University of New South Wales	
3009582	29176769	22674	Eucalyptus nitens	146.9	-43.35			Plant height vegetative	BAAD: a biomass and allometry database for woody plants	Daniel	Falster	University of New South Wales	
3009596	29177338	22674	Eucalyptus nitens	147.6	-43.3			Plant biomass and allometry: Wood (heartwood) cross-sectional area at breast height	BAAD: a biomass and allometry database for woody plants	Daniel	Falster	University of New South Wales	
3009592	29177174	22674	Eucalyptus nitens	146.9	-43.35			Plant biomass and allometry: Wood (heartwood) cross-sectional area at breast height	BAAD: a biomass and allometry database for woody plants	Daniel	Falster	University of New South Wales	
1310502	9140614	22674	Eucalyptus nitens	147.6	-42.82		1994-06-13	Species occurrence range: climate type	Leaf Physiology Database	Jens	Kattge	Max Planck Institute for Biogeochemistry	
1310493	9140352	22674	Eucalyptus nitens	147.6	-42.82		1994-05-09	Leaf type	Leaf Physiology Database	Jens	Kattge	Max Planck Institute for Biogeochemistry	
3009579	29176645	22674	Eucalyptus nitens	146.9	-43.35			Plant biomass and allometry: Stem cross-sectional area at base of the crown	BAAD: a biomass and allometry database for woody plants	Daniel	Falster	University of New South Wales	
3009606	29177755	22674	Eucalyptus nitens	147.583333333333	-42.8166666666667			Stem diameter	BAAD: a biomass and allometry database for woody plants	Daniel	Falster	University of New South Wales	
3009598	29177425	22674	Eucalyptus nitens	147.6	-43.3			Plant height vegetative	BAAD: a biomass and allometry database for woody plants	Daniel	Falster	University of New South Wales	
3009594	29177261	22674	Eucalyptus nitens	146.9	-43.35			Plant height vegetative	BAAD: a biomass and allometry database for woody plants	Daniel	Falster	University of New South Wales	
3009590	29177097	22674	Eucalyptus nitens	146.9	-43.35			Plant height vegetative	BAAD: a biomass and allometry database for woody plants	Daniel	Falster	University of New South Wales	
1310499	9140507	22674	Eucalyptus nitens	147.6	-42.82		1994-05-09	Leaf photosynthesis rate per leaf area	Leaf Physiology Database	Jens	Kattge	Max Planck Institute for Biogeochemistry	
1310489	9140237	22674	Eucalyptus nitens	147.6	-42.82		1994-03-18	Species occurrence range: climate type	Leaf Physiology Database	Jens	Kattge	Max Planck Institute for Biogeochemistry	
3009577	29176569	22674	Eucalyptus nitens	146.9	-43.35			Crown (canopy) height (base to top)	BAAD: a biomass and allometry database for woody plants	Daniel	Falster	University of New South Wales	
3009605	29177700	22674	Eucalyptus nitens	147.583333333333	-42.8166666666667			Plant functional type (PFT)	BAAD: a biomass and allometry database for woody plants	Daniel	Falster	University of New South Wales	
3009601	29177536	22674	Eucalyptus nitens	147.583333333333	-42.8166666666667			Plant functional type (PFT)	BAAD: a biomass and allometry database for woody plants	Daniel	Falster	University of New South Wales	
1310484	9140088	22674	Eucalyptus nitens	147.6	-42.82		1994-02-14	Plant growth form	Leaf Physiology Database	Jens	Kattge	Max Planck Institute for Biogeochemistry	
3009588	29177021	22674	Eucalyptus nitens	146.9	-43.35			Plant biomass and allometry: Leaf mass (dry or fresh) per plant	BAAD: a biomass and allometry database for woody plants	Daniel	Falster	University of New South Wales	
3009584	29176857	22674	Eucalyptus nitens	146.9	-43.35			Plant biomass and allometry: Leaf mass (dry or fresh) per plant	BAAD: a biomass and allometry database for woody plants	Daniel	Falster	University of New South Wales	
3009580	29176680	22674	Eucalyptus nitens	146.9	-43.35			Plant biomass and allometry: Wood (sapwood) cross-sectional area at breast height	BAAD: a biomass and allometry database for woody plants	Daniel	Falster	University of New South Wales	
1310486	9140130	22674	Eucalyptus nitens	147.6	-42.82		1994-03-18	Leaf photosynthesis rate per leaf area	Leaf Physiology Database	Jens	Kattge	Max Planck Institute for Biogeochemistry	
3009603	29177626	22674	Eucalyptus nitens	147.583333333333	-42.8166666666667			Plant biomass and allometry: Wood (heartwood) cross-sectional area at base of crown	BAAD: a biomass and allometry database for woody plants	Daniel	Falster	University of New South Wales	
3009599	29177462	22674	Eucalyptus nitens	147.6	-43.3			Plant biomass and allometry: Wood (heartwood) cross-sectional area at base of crown	BAAD: a biomass and allometry database for woody plants	Daniel	Falster	University of New South Wales	
1310480	9139973	22674	Eucalyptus nitens	147.6	-42.82		1994-02-14	Leaf phenology type	Leaf Physiology Database	Jens	Kattge	Max Planck Institute for Biogeochemistry	
3009587	29176968	22674	Eucalyptus nitens	146.9	-43.35			Plant biomass and allometry: Wood (sapwood) cross-sectional area at base of crown	BAAD: a biomass and allometry database for woody plants	Daniel	Falster	University of New South Wales	
3009583	29176804	22674	Eucalyptus nitens	146.9	-43.35			Plant biomass and allometry: Wood (sapwood) cross-sectional area at base of crown	BAAD: a biomass and allometry database for woody plants	Daniel	Falster	University of New South Wales	
3009596	29177349	22674	Eucalyptus nitens	147.6	-43.3			Plant biomass and allometry: Leaf mass (dry or fresh) per plant	BAAD: a biomass and allometry database for woody plants	Daniel	Falster	University of New South Wales	
3009592	29177185	22674	Eucalyptus nitens	146.9	-43.35			Plant biomass and allometry: Leaf mass (dry or fresh) per plant	BAAD: a biomass and allometry database for woody plants	Daniel	Falster	University of New South Wales	
1310504	9140668	22674	Eucalyptus nitens	147.6	-42.82		1994-06-13	Plant growth form	Leaf Physiology Database	Jens	Kattge	Max Planck Institute for Biogeochemistry	
1310495	9140402	22674	Eucalyptus nitens	147.6	-42.82		1994-05-09	Plant nitrogen(N) fixation capacity	Leaf Physiology Database	Jens	Kattge	Max Planck Institute for Biogeochemistry	
3009585	29176891	22674	Eucalyptus nitens	146.9	-43.35			Plant biomass and allometry: Stem cross-sectional area at base of the crown	BAAD: a biomass and allometry database for woody plants	Daniel	Falster	University of New South Wales	
3009595	29177296	22674	Eucalyptus nitens	147.6	-43.3			Plant biomass and allometry: Wood (sapwood) cross-sectional area at base of crown	BAAD: a biomass and allometry database for woody plants	Daniel	Falster	University of New South Wales	
3009591	29177132	22674	Eucalyptus nitens	146.9	-43.35			Plant biomass and allometry: Wood (sapwood) cross-sectional area at base of crown	BAAD: a biomass and allometry database for woody plants	Daniel	Falster	University of New South Wales	
1310500	9140553	22674	Eucalyptus nitens	147.6	-42.82		1994-06-13	Leaf phenology type	Leaf Physiology Database	Jens	Kattge	Max Planck Institute for Biogeochemistry	
1310491	9140291	22674	Eucalyptus nitens	147.6	-42.82		1994-03-18	Plant growth form	Leaf Physiology Database	Jens	Kattge	Max Planck Institute for Biogeochemistry	
3009578	29176603	22674	Eucalyptus nitens	146.9	-43.35			Plant biomass and allometry: Stem cross-sectional area at breast height	BAAD: a biomass and allometry database for woody plants	Daniel	Falster	University of New South Wales	
3009605	29177713	22674	Eucalyptus nitens	147.583333333333	-42.8166666666667			Plant height of lowest branch	BAAD: a biomass and allometry database for woody plants	Daniel	Falster	University of New South Wales	
3009601	29177549	22674	Eucalyptus nitens	147.583333333333	-42.8166666666667			Plant height of lowest branch	BAAD: a biomass and allometry database for woody plants	Daniel	Falster	University of New South Wales	
3009589	29177055	22674	Eucalyptus nitens	146.9	-43.35			Plant biomass and allometry: Stem cross-sectional area at base of the crown	BAAD: a biomass and allometry database for woody plants	Daniel	Falster	University of New South Wales	
1310496	9140438	22674	Eucalyptus nitens	147.6	-42.82		1994-05-09	Leaf photosynthesis pathway	Leaf Physiology Database	Jens	Kattge	Max Planck Institute for Biogeochemistry	
3009580	29176690	22674	Eucalyptus nitens	146.9	-43.35			Stem diameter	BAAD: a biomass and allometry database for woody plants	Daniel	Falster	University of New South Wales	
1310487	9140176	22674	Eucalyptus nitens	147.6	-42.82		1994-03-18	Leaf phenology type	Leaf Physiology Database	Jens	Kattge	Max Planck Institute for Biogeochemistry	
3009603	29177651	22674	Eucalyptus nitens	147.583333333333	-42.8166666666667			Leaf area per leaf dry mass (specific leaf area, SLA or 1/LMA): undefined if petiole is in- or exclu	BAAD: a biomass and allometry database for woody plants	Daniel	Falster	University of New South Wales	
3009599	29177487	22674	Eucalyptus nitens	147.6	-43.3			Leaf area per leaf dry mass (specific leaf area, SLA or 1/LMA): undefined if petiole is in- or exclu	BAAD: a biomass and allometry database for woody plants	Daniel	Falster	University of New South Wales	
1310481	9140005	22674	Eucalyptus nitens	147.6	-42.82		1994-02-14	Species occurrence range: climate type	Leaf Physiology Database	Jens	Kattge	Max Planck Institute for Biogeochemistry	
3009587	29176979	22674	Eucalyptus nitens	146.9	-43.35			Crown (canopy) height (base to top)	BAAD: a biomass and allometry database for woody plants	Daniel	Falster	University of New South Wales	
3009583	29176815	22674	Eucalyptus nitens	146.9	-43.35			Crown (canopy) height (base to top)	BAAD: a biomass and allometry database for woody plants	Daniel	Falster	University of New South Wales	
3009597	29177383	22674	Eucalyptus nitens	147.6	-43.3			Plant biomass and allometry: Stem cross-sectional area at base of the crown	BAAD: a biomass and allometry database for woody plants	Daniel	Falster	University of New South Wales	
3009593	29177219	22674	Eucalyptus nitens	146.9	-43.35			Plant biomass and allometry: Stem cross-sectional area at base of the crown	BAAD: a biomass and allometry database for woody plants	Daniel	Falster	University of New South Wales	
1310505	9140700	22674	Eucalyptus nitens	147.6	-42.82		1994-06-13	Leaf type	Leaf Physiology Database	Jens	Kattge	Max Planck Institute for Biogeochemistry	
3009586	29176926	22674	Eucalyptus nitens	146.9	-43.35			Plant biomass and allometry: Wood (sapwood) cross-sectional area at breast height	BAAD: a biomass and allometry database for woody plants	Daniel	Falster	University of New South Wales	
3009582	29176762	22674	Eucalyptus nitens	146.9	-43.35			Plant biomass and allometry: Wood (sapwood) cross-sectional area at breast height	BAAD: a biomass and allometry database for woody plants	Daniel	Falster	University of New South Wales	
3009595	29177307	22674	Eucalyptus nitens	147.6	-43.3			Crown (canopy) height (base to top)	BAAD: a biomass and allometry database for woody plants	Daniel	Falster	University of New South Wales	
3009591	29177143	22674	Eucalyptus nitens	146.9	-43.35			Crown (canopy) height (base to top)	BAAD: a biomass and allometry database for woody plants	Daniel	Falster	University of New South Wales	
1310501	9140585	22674	Eucalyptus nitens	147.6	-42.82		1994-06-13	Species occurrence range: climate type	Leaf Physiology Database	Jens	Kattge	Max Planck Institute for Biogeochemistry	
1310492	9140323	22674	Eucalyptus nitens	147.6	-42.82		1994-03-18	Leaf type	Leaf Physiology Database	Jens	Kattge	Max Planck Institute for Biogeochemistry	
3009579	29176638	22674	Eucalyptus nitens	146.9	-43.35			Leaf area per plant	BAAD: a biomass and allometry database for woody plants	Daniel	Falster	University of New South Wales	
3009606	29177748	22674	Eucalyptus nitens	147.583333333333	-42.8166666666667			Plant biomass and allometry: Wood (heartwood) cross-sectional area at breast height	BAAD: a biomass and allometry database for woody plants	Daniel	Falster	University of New South Wales	
3009602	29177584	22674	Eucalyptus nitens	147.583333333333	-42.8166666666667			Plant biomass and allometry: Wood (heartwood) cross-sectional area at breast height	BAAD: a biomass and allometry database for woody plants	Daniel	Falster	University of New South Wales	
3009594	29177254	22674	Eucalyptus nitens	146.9	-43.35			Plant biomass and allometry: Wood (sapwood) cross-sectional area at breast height	BAAD: a biomass and allometry database for woody plants	Daniel	Falster	University of New South Wales	
3009590	29177090	22674	Eucalyptus nitens	146.9	-43.35			Plant biomass and allometry: Wood (sapwood) cross-sectional area at breast height	BAAD: a biomass and allometry database for woody plants	Daniel	Falster	University of New South Wales	
1310498	9140478	22674	Eucalyptus nitens	147.6	-42.82		1994-05-09	Leaf photosynthesis rate per leaf area	Leaf Physiology Database	Jens	Kattge	Max Planck Institute for Biogeochemistry	
3009581	29176725	22674	Eucalyptus nitens	146.9	-43.35			Plant biomass and allometry: Stem cross-sectional area at base of the plant	BAAD: a biomass and allometry database for woody plants	Daniel	Falster	University of New South Wales	
1310488	9140208	22674	Eucalyptus nitens	147.6	-42.82		1994-03-18	Species occurrence range: climate type	Leaf Physiology Database	Jens	Kattge	Max Planck Institute for Biogeochemistry	
3009577	29176561	22674	Eucalyptus nitens	146.9	-43.35			Plant biomass and allometry: Stem cross-sectional area at base of the plant	BAAD: a biomass and allometry database for woody plants	Daniel	Falster	University of New South Wales	
3009604	29177671	22674	Eucalyptus nitens	147.583333333333	-42.8166666666667			Plant height vegetative	BAAD: a biomass and allometry database for woody plants	Daniel	Falster	University of New South Wales	
3009600	29177507	22674	Eucalyptus nitens	147.6	-43.3			Plant height vegetative	BAAD: a biomass and allometry database for woody plants	Daniel	Falster	University of New South Wales	
1310483	9140059	22674	Eucalyptus nitens	147.6	-42.82		1994-02-14	Plant growth form	Leaf Physiology Database	Jens	Kattge	Max Planck Institute for Biogeochemistry	
3009588	29177013	22674	Eucalyptus nitens	146.9	-43.35			Plant biomass and allometry: Stem cross-sectional area at breast height	BAAD: a biomass and allometry database for woody plants	Daniel	Falster	University of New South Wales	
3009584	29176849	22674	Eucalyptus nitens	146.9	-43.35			Plant biomass and allometry: Stem cross-sectional area at breast height	BAAD: a biomass and allometry database for woody plants	Daniel	Falster	University of New South Wales	
3009598	29177418	22674	Eucalyptus nitens	147.6	-43.3			Plant biomass and allometry: Wood (sapwood) cross-sectional area at breast height	BAAD: a biomass and allometry database for woody plants	Daniel	Falster	University of New South Wales	
3009606	29177759	22674	Eucalyptus nitens	147.583333333333	-42.8166666666667			Plant biomass and allometry: Leaf mass (dry or fresh) per plant	BAAD: a biomass and allometry database for woody plants	Daniel	Falster	University of New South Wales	
3009602	29177595	22674	Eucalyptus nitens	147.583333333333	-42.8166666666667			Plant biomass and allometry: Leaf mass (dry or fresh) per plant	BAAD: a biomass and allometry database for woody plants	Daniel	Falster	University of New South Wales	
3009598	29177431	22674	Eucalyptus nitens	147.6	-43.3			Plant biomass and allometry: Leaf mass (dry or fresh) per plant	BAAD: a biomass and allometry database for woody plants	Daniel	Falster	University of New South Wales	
1310479	9139944	22674	Eucalyptus nitens	147.6	-42.82		1994-06-21	Leaf phenology type	Leaf Physiology Database	Jens	Kattge	Max Planck Institute for Biogeochemistry	
3009586	29176936	22674	Eucalyptus nitens	146.9	-43.35			Stem diameter	BAAD: a biomass and allometry database for woody plants	Daniel	Falster	University of New South Wales	
3009582	29176772	22674	Eucalyptus nitens	146.9	-43.35			Stem diameter	BAAD: a biomass and allometry database for woody plants	Daniel	Falster	University of New South Wales	
3009596	29177341	22674	Eucalyptus nitens	147.6	-43.3			Plant biomass and allometry: Stem cross-sectional area at breast height	BAAD: a biomass and allometry database for woody plants	Daniel	Falster	University of New South Wales	
3009592	29177177	22674	Eucalyptus nitens	146.9	-43.35			Plant biomass and allometry: Stem cross-sectional area at breast height	BAAD: a biomass and allometry database for woody plants	Daniel	Falster	University of New South Wales	
1310503	9140639	22674	Eucalyptus nitens	147.6	-42.82		1994-06-13	Plant growth form	Leaf Physiology Database	Jens	Kattge	Max Planck Institute for Biogeochemistry	
1310494	9140373	22674	Eucalyptus nitens	147.6	-42.82		1994-05-09	Plant nitrogen(N) fixation capacity	Leaf Physiology Database	Jens	Kattge	Max Planck Institute for Biogeochemistry	
3009579	29176648	22674	Eucalyptus nitens	146.9	-43.35			Stem diameter	BAAD: a biomass and allometry database for woody plants	Daniel	Falster	University of New South Wales	
1310485	9140101	22674	Eucalyptus nitens	147.6	-42.82		1994-02-14	Leaf photosynthesis rate per leaf area	Leaf Physiology Database	Jens	Kattge	Max Planck Institute for Biogeochemistry	
3009594	29177264	22674	Eucalyptus nitens	146.9	-43.35			Stem diameter	BAAD: a biomass and allometry database for woody plants	Daniel	Falster	University of New South Wales	
3009590	29177100	22674	Eucalyptus nitens	146.9	-43.35			Stem diameter	BAAD: a biomass and allometry database for woody plants	Daniel	Falster	University of New South Wales	
1310499	9140524	22674	Eucalyptus nitens	147.6	-42.82		1994-05-09	Leaf phenology type	Leaf Physiology Database	Jens	Kattge	Max Planck Institute for Biogeochemistry	
1310490	9140262	22674	Eucalyptus nitens	147.6	-42.82		1994-03-18	Plant growth form	Leaf Physiology Database	Jens	Kattge	Max Planck Institute for Biogeochemistry	
3009578	29176593	22674	Eucalyptus nitens	146.9	-43.35			Plant functional type (PFT)	BAAD: a biomass and allometry database for woody plants	Daniel	Falster	University of New South Wales	
3009605	29177706	22674	Eucalyptus nitens	147.583333333333	-42.8166666666667			Plant biomass and allometry: Wood (sapwood) cross-sectional area at base of crown	BAAD: a biomass and allometry database for woody plants	Daniel	Falster	University of New South Wales	
3009601	29177542	22674	Eucalyptus nitens	147.583333333333	-42.8166666666667			Plant biomass and allometry: Wood (sapwood) cross-sectional area at base of crown	BAAD: a biomass and allometry database for woody plants	Daniel	Falster	University of New South Wales	
1310484	9140091	22674	Eucalyptus nitens	147.6	-42.82		1994-02-14	Leaf type	Leaf Physiology Database	Jens	Kattge	Max Planck Institute for Biogeochemistry	
3009589	29177048	22674	Eucalyptus nitens	146.9	-43.35			Leaf area per plant	BAAD: a biomass and allometry database for woody plants	Daniel	Falster	University of New South Wales	
3009585	29176884	22674	Eucalyptus nitens	146.9	-43.35			Leaf area per plant	BAAD: a biomass and allometry database for woody plants	Daniel	Falster	University of New South Wales	
1310495	9140409	22674	Eucalyptus nitens	147.6	-42.82		1994-05-09	Leaf photosynthesis pathway	Leaf Physiology Database	Jens	Kattge	Max Planck Institute for Biogeochemistry	
3009580	29176683	22674	Eucalyptus nitens	146.9	-43.35			Plant biomass and allometry: Wood (heartwood) cross-sectional area at base of crown	BAAD: a biomass and allometry database for woody plants	Daniel	Falster	University of New South Wales	
1310486	9140147	22674	Eucalyptus nitens	147.6	-42.82		1994-03-18	Leaf phenology type	Leaf Physiology Database	Jens	Kattge	Max Planck Institute for Biogeochemistry	
3009603	29177629	22674	Eucalyptus nitens	147.583333333333	-42.8166666666667			Plant biomass and allometry: Stem cross-sectional area at base of the crown	BAAD: a biomass and allometry database for woody plants	Daniel	Falster	University of New South Wales	
3009599	29177465	22674	Eucalyptus nitens	147.6	-43.3			Plant biomass and allometry: Stem cross-sectional area at base of the crown	BAAD: a biomass and allometry database for woody plants	Daniel	Falster	University of New South Wales	
1310480	9139976	22674	Eucalyptus nitens	147.6	-42.82		1994-02-14	Species occurrence range: climate type	Leaf Physiology Database	Jens	Kattge	Max Planck Institute for Biogeochemistry	
3009587	29176971	22674	Eucalyptus nitens	146.9	-43.35			Plant biomass and allometry: Stem cross-sectional area at base of the plant	BAAD: a biomass and allometry database for woody plants	Daniel	Falster	University of New South Wales	
3009583	29176807	22674	Eucalyptus nitens	146.9	-43.35			Plant biomass and allometry: Stem cross-sectional area at base of the plant	BAAD: a biomass and allometry database for woody plants	Daniel	Falster	University of New South Wales	
3009597	29177376	22674	Eucalyptus nitens	147.6	-43.3			Leaf area per plant	BAAD: a biomass and allometry database for woody plants	Daniel	Falster	University of New South Wales	
3009593	29177212	22674	Eucalyptus nitens	146.9	-43.35			Leaf area per plant	BAAD: a biomass and allometry database for woody plants	Daniel	Falster	University of New South Wales	
3009589	29177058	22674	Eucalyptus nitens	146.9	-43.35			Stem diameter	BAAD: a biomass and allometry database for woody plants	Daniel	Falster	University of New South Wales	
3009585	29176894	22674	Eucalyptus nitens	146.9	-43.35			Stem diameter	BAAD: a biomass and allometry database for woody plants	Daniel	Falster	University of New South Wales	
3009581	29176730	22674	Eucalyptus nitens	146.9	-43.35			Stem diameter	BAAD: a biomass and allometry database for woody plants	Daniel	Falster	University of New South Wales	
3009595	29177299	22674	Eucalyptus nitens	147.6	-43.3			Plant biomass and allometry: Stem cross-sectional area at base of the plant	BAAD: a biomass and allometry database for woody plants	Daniel	Falster	University of New South Wales	
3009591	29177135	22674	Eucalyptus nitens	146.9	-43.35			Plant biomass and allometry: Stem cross-sectional area at base of the plant	BAAD: a biomass and allometry database for woody plants	Daniel	Falster	University of New South Wales	
1310500	9140556	22674	Eucalyptus nitens	147.6	-42.82		1994-06-13	Species occurrence range: climate type	Leaf Physiology Database	Jens	Kattge	Max Planck Institute for Biogeochemistry	
1310491	9140294	22674	Eucalyptus nitens	147.6	-42.82		1994-03-18	Leaf type	Leaf Physiology Database	Jens	Kattge	Max Planck Institute for Biogeochemistry	
3009578	29176606	22674	Eucalyptus nitens	146.9	-43.35			Plant height of lowest branch	BAAD: a biomass and allometry database for woody plants	Daniel	Falster	University of New South Wales	
3009605	29177717	22674	Eucalyptus nitens	147.583333333333	-42.8166666666667			Crown (canopy) height (base to top)	BAAD: a biomass and allometry database for woody plants	Daniel	Falster	University of New South Wales	
3009601	29177553	22674	Eucalyptus nitens	147.583333333333	-42.8166666666667			Crown (canopy) height (base to top)	BAAD: a biomass and allometry database for woody plants	Daniel	Falster	University of New South Wales	
1310504	9140671	22674	Eucalyptus nitens	147.6	-42.82		1994-06-13	Leaf type	Leaf Physiology Database	Jens	Kattge	Max Planck Institute for Biogeochemistry	
1310497	9140449	22674	Eucalyptus nitens	147.6	-42.82		1994-05-09	Leaf photosynthesis rate per leaf area	Leaf Physiology Database	Jens	Kattge	Max Planck Institute for Biogeochemistry	
3009580	29176708	22674	Eucalyptus nitens	146.9	-43.35			Leaf area per leaf dry mass (specific leaf area, SLA or 1/LMA): undefined if petiole is in- or exclu	BAAD: a biomass and allometry database for woody plants	Daniel	Falster	University of New South Wales	
1310487	9140179	22674	Eucalyptus nitens	147.6	-42.82		1994-03-18	Species occurrence range: climate type	Leaf Physiology Database	Jens	Kattge	Max Planck Institute for Biogeochemistry	
3009604	29177664	22674	Eucalyptus nitens	147.583333333333	-42.8166666666667			Plant biomass and allometry: Wood (sapwood) cross-sectional area at breast height	BAAD: a biomass and allometry database for woody plants	Daniel	Falster	University of New South Wales	
3009600	29177500	22674	Eucalyptus nitens	147.6	-43.3			Plant biomass and allometry: Wood (sapwood) cross-sectional area at breast height	BAAD: a biomass and allometry database for woody plants	Daniel	Falster	University of New South Wales	
1310482	9140030	22674	Eucalyptus nitens	147.6	-42.82		1994-02-14	Plant growth form	Leaf Physiology Database	Jens	Kattge	Max Planck Institute for Biogeochemistry	
3009588	29177003	22674	Eucalyptus nitens	146.9	-43.35			Plant functional type (PFT)	BAAD: a biomass and allometry database for woody plants	Daniel	Falster	University of New South Wales	
3009584	29176839	22674	Eucalyptus nitens	146.9	-43.35			Plant functional type (PFT)	BAAD: a biomass and allometry database for woody plants	Daniel	Falster	University of New South Wales	
3009597	29177386	22674	Eucalyptus nitens	147.6	-43.3			Stem diameter	BAAD: a biomass and allometry database for woody plants	Daniel	Falster	University of New South Wales	
3009593	29177222	22674	Eucalyptus nitens	146.9	-43.35			Stem diameter	BAAD: a biomass and allometry database for woody plants	Daniel	Falster	University of New South Wales	
1310506	9140721	22674	Eucalyptus nitens	147.6	-42.82		1994-06-13	Plant nitrogen(N) fixation capacity	Leaf Physiology Database	Jens	Kattge	Max Planck Institute for Biogeochemistry	
3009586	29176929	22674	Eucalyptus nitens	146.9	-43.35			Plant biomass and allometry: Wood (heartwood) cross-sectional area at base of crown	BAAD: a biomass and allometry database for woody plants	Daniel	Falster	University of New South Wales	
3009582	29176765	22674	Eucalyptus nitens	146.9	-43.35			Plant biomass and allometry: Wood (heartwood) cross-sectional area at base of crown	BAAD: a biomass and allometry database for woody plants	Daniel	Falster	University of New South Wales	
3009596	29177331	22674	Eucalyptus nitens	147.6	-43.3			Plant functional type (PFT)	BAAD: a biomass and allometry database for woody plants	Daniel	Falster	University of New South Wales	
3009592	29177167	22674	Eucalyptus nitens	146.9	-43.35			Plant functional type (PFT)	BAAD: a biomass and allometry database for woody plants	Daniel	Falster	University of New South Wales	
1310502	9140610	22674	Eucalyptus nitens	147.6	-42.82		1994-06-13	Plant growth form	Leaf Physiology Database	Jens	Kattge	Max Planck Institute for Biogeochemistry	
1310493	9140344	22674	Eucalyptus nitens	147.6	-42.82		1994-05-09	Plant nitrogen(N) fixation capacity	Leaf Physiology Database	Jens	Kattge	Max Planck Institute for Biogeochemistry	
3009579	29176641	22674	Eucalyptus nitens	146.9	-43.35			Plant biomass and allometry: Wood (heartwood) cross-sectional area at breast height	BAAD: a biomass and allometry database for woody plants	Daniel	Falster	University of New South Wales	
3009606	29177751	22674	Eucalyptus nitens	147.583333333333	-42.8166666666667			Plant biomass and allometry: Stem cross-sectional area at breast height	BAAD: a biomass and allometry database for woody plants	Daniel	Falster	University of New South Wales	
3009602	29177587	22674	Eucalyptus nitens	147.583333333333	-42.8166666666667			Plant biomass and allometry: Stem cross-sectional area at breast height	BAAD: a biomass and allometry database for woody plants	Daniel	Falster	University of New South Wales	
3009598	29177421	22674	Eucalyptus nitens	147.6	-43.3			Plant biomass and allometry: Wood (heartwood) cross-sectional area at base of crown	BAAD: a biomass and allometry database for woody plants	Daniel	Falster	University of New South Wales	
3009594	29177257	22674	Eucalyptus nitens	146.9	-43.35			Plant biomass and allometry: Wood (heartwood) cross-sectional area at base of crown	BAAD: a biomass and allometry database for woody plants	Daniel	Falster	University of New South Wales	
3009590	29177093	22674	Eucalyptus nitens	146.9	-43.35			Plant biomass and allometry: Wood (heartwood) cross-sectional area at base of crown	BAAD: a biomass and allometry database for woody plants	Daniel	Falster	University of New South Wales	
1310498	9140495	22674	Eucalyptus nitens	147.6	-42.82		1994-05-09	Leaf phenology type	Leaf Physiology Database	Jens	Kattge	Max Planck Institute for Biogeochemistry	
1310489	9140233	22674	Eucalyptus nitens	147.6	-42.82		1994-03-18	Plant growth form	Leaf Physiology Database	Jens	Kattge	Max Planck Institute for Biogeochemistry	
3009577	29176564	22674	Eucalyptus nitens	146.9	-43.35			Plant height vegetative	BAAD: a biomass and allometry database for woody plants	Daniel	Falster	University of New South Wales	
3009604	29177674	22674	Eucalyptus nitens	147.583333333333	-42.8166666666667			Stem diameter	BAAD: a biomass and allometry database for woody plants	Daniel	Falster	University of New South Wales	
3009600	29177510	22674	Eucalyptus nitens	147.6	-43.3			Stem diameter	BAAD: a biomass and allometry database for woody plants	Daniel	Falster	University of New South Wales	
1310483	9140062	22674	Eucalyptus nitens	147.6	-42.82		1994-02-14	Leaf type	Leaf Physiology Database	Jens	Kattge	Max Planck Institute for Biogeochemistry	
3009588	29177016	22674	Eucalyptus nitens	146.9	-43.35			Plant height of lowest branch	BAAD: a biomass and allometry database for woody plants	Daniel	Falster	University of New South Wales	
1414982	10321638	22674	Eucalyptus nitens	147.36	-42.49			Stem sapwood cross-sectional area per supported leaf surface area (Huber value)	Global Leaf-Sapwood Area Ratios	Maurizio	Mencuccini		
3009584	29176852	22674	Eucalyptus nitens	146.9	-43.35			Plant height of lowest branch	BAAD: a biomass and allometry database for woody plants	Daniel	Falster	University of New South Wales	
3009603	29177622	22674	Eucalyptus nitens	147.583333333333	-42.8166666666667			Leaf area per plant	BAAD: a biomass and allometry database for woody plants	Daniel	Falster	University of New South Wales	
3009599	29177458	22674	Eucalyptus nitens	147.6	-43.3			Leaf area per plant	BAAD: a biomass and allometry database for woody plants	Daniel	Falster	University of New South Wales	
1310479	9139947	22674	Eucalyptus nitens	147.6	-42.82		1994-06-21	Species occurrence range: climate type	Leaf Physiology Database	Jens	Kattge	Max Planck Institute for Biogeochemistry	
3009586	29176954	22674	Eucalyptus nitens	146.9	-43.35			Leaf area per leaf dry mass (specific leaf area, SLA or 1/LMA): undefined if petiole is in- or exclu	BAAD: a biomass and allometry database for woody plants	Daniel	Falster	University of New South Wales	
3009582	29176790	22674	Eucalyptus nitens	146.9	-43.35			Leaf area per leaf dry mass (specific leaf area, SLA or 1/LMA): undefined if petiole is in- or exclu	BAAD: a biomass and allometry database for woody plants	Daniel	Falster	University of New South Wales	
3009596	29177344	22674	Eucalyptus nitens	147.6	-43.3			Plant height of lowest branch	BAAD: a biomass and allometry database for woody plants	Daniel	Falster	University of New South Wales	
3009592	29177180	22674	Eucalyptus nitens	146.9	-43.35			Plant height of lowest branch	BAAD: a biomass and allometry database for woody plants	Daniel	Falster	University of New South Wales	
1310503	9140642	22674	Eucalyptus nitens	147.6	-42.82		1994-06-13	Leaf type	Leaf Physiology Database	Jens	Kattge	Max Planck Institute for Biogeochemistry	
1310494	9140380	22674	Eucalyptus nitens	147.6	-42.82		1994-05-09	Leaf photosynthesis pathway	Leaf Physiology Database	Jens	Kattge	Max Planck Institute for Biogeochemistry	
3009579	29176652	22674	Eucalyptus nitens	146.9	-43.35			Plant biomass and allometry: Leaf mass (dry or fresh) per plant	BAAD: a biomass and allometry database for woody plants	Daniel	Falster	University of New South Wales	
1310485	9140118	22674	Eucalyptus nitens	147.6	-42.82		1994-02-14	Leaf phenology type	Leaf Physiology Database	Jens	Kattge	Max Planck Institute for Biogeochemistry	
3009594	29177282	22674	Eucalyptus nitens	146.9	-43.35			Leaf area per leaf dry mass (specific leaf area, SLA or 1/LMA): undefined if petiole is in- or exclu	BAAD: a biomass and allometry database for woody plants	Daniel	Falster	University of New South Wales	
3009590	29177118	22674	Eucalyptus nitens	146.9	-43.35			Leaf area per leaf dry mass (specific leaf area, SLA or 1/LMA): undefined if petiole is in- or exclu	BAAD: a biomass and allometry database for woody plants	Daniel	Falster	University of New South Wales	
1310499	9140527	22674	Eucalyptus nitens	147.6	-42.82		1994-05-09	Species occurrence range: climate type	Leaf Physiology Database	Jens	Kattge	Max Planck Institute for Biogeochemistry	
1310490	9140265	22674	Eucalyptus nitens	147.6	-42.82		1994-03-18	Leaf type	Leaf Physiology Database	Jens	Kattge	Max Planck Institute for Biogeochemistry	
3009578	29176599	22674	Eucalyptus nitens	146.9	-43.35			Plant biomass and allometry: Wood (sapwood) cross-sectional area at base of crown	BAAD: a biomass and allometry database for woody plants	Daniel	Falster	University of New South Wales	
3009605	29177709	22674	Eucalyptus nitens	147.583333333333	-42.8166666666667			Plant biomass and allometry: Stem cross-sectional area at base of the plant	BAAD: a biomass and allometry database for woody plants	Daniel	Falster	University of New South Wales	
3009601	29177545	22674	Eucalyptus nitens	147.583333333333	-42.8166666666667			Plant biomass and allometry: Stem cross-sectional area at base of the plant	BAAD: a biomass and allometry database for woody plants	Daniel	Falster	University of New South Wales	
3009589	29177051	22674	Eucalyptus nitens	146.9	-43.35			Plant biomass and allometry: Wood (heartwood) cross-sectional area at breast height	BAAD: a biomass and allometry database for woody plants	Daniel	Falster	University of New South Wales	
3009585	29176887	22674	Eucalyptus nitens	146.9	-43.35			Plant biomass and allometry: Wood (heartwood) cross-sectional area at breast height	BAAD: a biomass and allometry database for woody plants	Daniel	Falster	University of New South Wales	
1310496	9140420	22674	Eucalyptus nitens	147.6	-42.82		1994-05-09	Leaf photosynthesis rate per leaf area	Leaf Physiology Database	Jens	Kattge	Max Planck Institute for Biogeochemistry	
3009580	29176686	22674	Eucalyptus nitens	146.9	-43.35			Plant biomass and allometry: Stem cross-sectional area at base of the crown	BAAD: a biomass and allometry database for woody plants	Daniel	Falster	University of New South Wales	
1310486	9140150	22674	Eucalyptus nitens	147.6	-42.82		1994-03-18	Species occurrence range: climate type	Leaf Physiology Database	Jens	Kattge	Max Planck Institute for Biogeochemistry	
3009603	29177632	22674	Eucalyptus nitens	147.583333333333	-42.8166666666667			Stem diameter	BAAD: a biomass and allometry database for woody plants	Daniel	Falster	University of New South Wales	
3009599	29177468	22674	Eucalyptus nitens	147.6	-43.3			Stem diameter	BAAD: a biomass and allometry database for woody plants	Daniel	Falster	University of New South Wales	
1310481	9140001	22674	Eucalyptus nitens	147.6	-42.82		1994-02-14	Plant growth form	Leaf Physiology Database	Jens	Kattge	Max Planck Institute for Biogeochemistry	
3009587	29176974	22674	Eucalyptus nitens	146.9	-43.35			Plant height vegetative	BAAD: a biomass and allometry database for woody plants	Daniel	Falster	University of New South Wales	
3009583	29176810	22674	Eucalyptus nitens	146.9	-43.35			Plant height vegetative	BAAD: a biomass and allometry database for woody plants	Daniel	Falster	University of New South Wales	
3009597	29177379	22674	Eucalyptus nitens	147.6	-43.3			Plant biomass and allometry: Wood (heartwood) cross-sectional area at breast height	BAAD: a biomass and allometry database for woody plants	Daniel	Falster	University of New South Wales	
3009593	29177215	22674	Eucalyptus nitens	146.9	-43.35			Plant biomass and allometry: Wood (heartwood) cross-sectional area at breast height	BAAD: a biomass and allometry database for woody plants	Daniel	Falster	University of New South Wales	
3009589	29177062	22674	Eucalyptus nitens	146.9	-43.35			Plant biomass and allometry: Leaf mass (dry or fresh) per plant	BAAD: a biomass and allometry database for woody plants	Daniel	Falster	University of New South Wales	
3009585	29176898	22674	Eucalyptus nitens	146.9	-43.35			Plant biomass and allometry: Leaf mass (dry or fresh) per plant	BAAD: a biomass and allometry database for woody plants	Daniel	Falster	University of New South Wales	
3009581	29176734	22674	Eucalyptus nitens	146.9	-43.35			Plant biomass and allometry: Leaf mass (dry or fresh) per plant	BAAD: a biomass and allometry database for woody plants	Daniel	Falster	University of New South Wales	
3009595	29177302	22674	Eucalyptus nitens	147.6	-43.3			Plant height vegetative	BAAD: a biomass and allometry database for woody plants	Daniel	Falster	University of New South Wales	
3009591	29177138	22674	Eucalyptus nitens	146.9	-43.35			Plant height vegetative	BAAD: a biomass and allometry database for woody plants	Daniel	Falster	University of New South Wales	
1310501	9140581	22674	Eucalyptus nitens	147.6	-42.82		1994-06-13	Plant growth form	Leaf Physiology Database	Jens	Kattge	Max Planck Institute for Biogeochemistry	
1310492	9140315	22674	Eucalyptus nitens	147.6	-42.82		1994-03-18	Plant nitrogen(N) fixation capacity	Leaf Physiology Database	Jens	Kattge	Max Planck Institute for Biogeochemistry	
3009578	29176610	22674	Eucalyptus nitens	146.9	-43.35			Crown (canopy) height (base to top)	BAAD: a biomass and allometry database for woody plants	Daniel	Falster	University of New South Wales	
3009606	29177741	22674	Eucalyptus nitens	147.583333333333	-42.8166666666667			Plant functional type (PFT)	BAAD: a biomass and allometry database for woody plants	Daniel	Falster	University of New South Wales	
3009602	29177577	22674	Eucalyptus nitens	147.583333333333	-42.8166666666667			Plant functional type (PFT)	BAAD: a biomass and allometry database for woody plants	Daniel	Falster	University of New South Wales	
1310505	9140692	22674	Eucalyptus nitens	147.6	-42.82		1994-06-13	Plant nitrogen(N) fixation capacity	Leaf Physiology Database	Jens	Kattge	Max Planck Institute for Biogeochemistry	
1310497	9140466	22674	Eucalyptus nitens	147.6	-42.82		1994-05-09	Leaf phenology type	Leaf Physiology Database	Jens	Kattge	Max Planck Institute for Biogeochemistry	
3009581	29176721	22674	Eucalyptus nitens	146.9	-43.35			Plant biomass and allometry: Wood (sapwood) cross-sectional area at breast height	BAAD: a biomass and allometry database for woody plants	Daniel	Falster	University of New South Wales	
1310488	9140204	22674	Eucalyptus nitens	147.6	-42.82		1994-03-18	Plant growth form	Leaf Physiology Database	Jens	Kattge	Max Planck Institute for Biogeochemistry	
3009577	29176557	22674	Eucalyptus nitens	146.9	-43.35			Plant biomass and allometry: Wood (sapwood) cross-sectional area at breast height	BAAD: a biomass and allometry database for woody plants	Daniel	Falster	University of New South Wales	
3009604	29177667	22674	Eucalyptus nitens	147.583333333333	-42.8166666666667			Plant biomass and allometry: Wood (heartwood) cross-sectional area at base of crown	BAAD: a biomass and allometry database for woody plants	Daniel	Falster	University of New South Wales	
3009600	29177503	22674	Eucalyptus nitens	147.6	-43.3			Plant biomass and allometry: Wood (heartwood) cross-sectional area at base of crown	BAAD: a biomass and allometry database for woody plants	Daniel	Falster	University of New South Wales	
1310482	9140033	22674	Eucalyptus nitens	147.6	-42.82		1994-02-14	Leaf type	Leaf Physiology Database	Jens	Kattge	Max Planck Institute for Biogeochemistry	
3009588	29177009	22674	Eucalyptus nitens	146.9	-43.35			Plant biomass and allometry: Wood (sapwood) cross-sectional area at base of crown	BAAD: a biomass and allometry database for woody plants	Daniel	Falster	University of New South Wales	
3009584	29176845	22674	Eucalyptus nitens	146.9	-43.35			Plant biomass and allometry: Wood (sapwood) cross-sectional area at base of crown	BAAD: a biomass and allometry database for woody plants	Daniel	Falster	University of New South Wales	
3009597	29177390	22674	Eucalyptus nitens	147.6	-43.3			Plant biomass and allometry: Leaf mass (dry or fresh) per plant	BAAD: a biomass and allometry database for woody plants	Daniel	Falster	University of New South Wales	
3009593	29177226	22674	Eucalyptus nitens	146.9	-43.35			Plant biomass and allometry: Leaf mass (dry or fresh) per plant	BAAD: a biomass and allometry database for woody plants	Daniel	Falster	University of New South Wales	
3009602	29177590	22674	Eucalyptus nitens	147.583333333333	-42.8166666666667			Plant height of lowest branch	BAAD: a biomass and allometry database for woody plants	Daniel	Falster	University of New South Wales	
1310506	9140728	22674	Eucalyptus nitens	147.6	-42.82		1994-06-13	Leaf photosynthesis pathway	Leaf Physiology Database	Jens	Kattge	Max Planck Institute for Biogeochemistry	
3009586	29176932	22674	Eucalyptus nitens	146.9	-43.35			Plant biomass and allometry: Stem cross-sectional area at base of the crown	BAAD: a biomass and allometry database for woody plants	Daniel	Falster	University of New South Wales	
3009582	29176768	22674	Eucalyptus nitens	146.9	-43.35			Plant biomass and allometry: Stem cross-sectional area at base of the crown	BAAD: a biomass and allometry database for woody plants	Daniel	Falster	University of New South Wales	
3009596	29177337	22674	Eucalyptus nitens	147.6	-43.3			Plant biomass and allometry: Wood (sapwood) cross-sectional area at base of crown	BAAD: a biomass and allometry database for woody plants	Daniel	Falster	University of New South Wales	
3009592	29177173	22674	Eucalyptus nitens	146.9	-43.35			Plant biomass and allometry: Wood (sapwood) cross-sectional area at base of crown	BAAD: a biomass and allometry database for woody plants	Daniel	Falster	University of New South Wales	
1310502	9140613	22674	Eucalyptus nitens	147.6	-42.82		1994-06-13	Leaf type	Leaf Physiology Database	Jens	Kattge	Max Planck Institute for Biogeochemistry	
1310493	9140351	22674	Eucalyptus nitens	147.6	-42.82		1994-05-09	Leaf photosynthesis pathway	Leaf Physiology Database	Jens	Kattge	Max Planck Institute for Biogeochemistry	
3009579	29176644	22674	Eucalyptus nitens	146.9	-43.35			Plant biomass and allometry: Stem cross-sectional area at breast height	BAAD: a biomass and allometry database for woody plants	Daniel	Falster	University of New South Wales	
3009606	29177754	22674	Eucalyptus nitens	147.583333333333	-42.8166666666667			Plant height of lowest branch	BAAD: a biomass and allometry database for woody plants	Daniel	Falster	University of New South Wales	
3009598	29177424	22674	Eucalyptus nitens	147.6	-43.3			Plant biomass and allometry: Stem cross-sectional area at base of the crown	BAAD: a biomass and allometry database for woody plants	Daniel	Falster	University of New South Wales	
3009594	29177260	22674	Eucalyptus nitens	146.9	-43.35			Plant biomass and allometry: Stem cross-sectional area at base of the crown	BAAD: a biomass and allometry database for woody plants	Daniel	Falster	University of New South Wales	
3009590	29177096	22674	Eucalyptus nitens	146.9	-43.35			Plant biomass and allometry: Stem cross-sectional area at base of the crown	BAAD: a biomass and allometry database for woody plants	Daniel	Falster	University of New South Wales	
1310498	9140498	22674	Eucalyptus nitens	147.6	-42.82		1994-05-09	Species occurrence range: climate type	Leaf Physiology Database	Jens	Kattge	Max Planck Institute for Biogeochemistry	
1310489	9140236	22674	Eucalyptus nitens	147.6	-42.82		1994-03-18	Leaf type	Leaf Physiology Database	Jens	Kattge	Max Planck Institute for Biogeochemistry	
3009577	29176567	22674	Eucalyptus nitens	146.9	-43.35			Stem diameter	BAAD: a biomass and allometry database for woody plants	Daniel	Falster	University of New South Wales	
3009604	29177692	22674	Eucalyptus nitens	147.583333333333	-42.8166666666667			Leaf area per leaf dry mass (specific leaf area, SLA or 1/LMA): undefined if petiole is in- or exclu	BAAD: a biomass and allometry database for woody plants	Daniel	Falster	University of New South Wales	
3009600	29177528	22674	Eucalyptus nitens	147.6	-43.3			Leaf area per leaf dry mass (specific leaf area, SLA or 1/LMA): undefined if petiole is in- or exclu	BAAD: a biomass and allometry database for woody plants	Daniel	Falster	University of New South Wales	
1310484	9140083	22674	Eucalyptus nitens	147.6	-42.82		1994-02-14	Plant nitrogen(N) fixation capacity	Leaf Physiology Database	Jens	Kattge	Max Planck Institute for Biogeochemistry	
3009588	29177020	22674	Eucalyptus nitens	146.9	-43.35			Crown (canopy) height (base to top)	BAAD: a biomass and allometry database for woody plants	Daniel	Falster	University of New South Wales	
3009584	29176856	22674	Eucalyptus nitens	146.9	-43.35			Crown (canopy) height (base to top)	BAAD: a biomass and allometry database for woody plants	Daniel	Falster	University of New South Wales	
3009580	29176679	22674	Eucalyptus nitens	146.9	-43.35			Leaf area per plant	BAAD: a biomass and allometry database for woody plants	Daniel	Falster	University of New South Wales	
1310485	9140121	22674	Eucalyptus nitens	147.6	-42.82		1994-02-14	Species occurrence range: climate type	Leaf Physiology Database	Jens	Kattge	Max Planck Institute for Biogeochemistry	
3009603	29177625	22674	Eucalyptus nitens	147.583333333333	-42.8166666666667			Plant biomass and allometry: Wood (heartwood) cross-sectional area at breast height	BAAD: a biomass and allometry database for woody plants	Daniel	Falster	University of New South Wales	
3009599	29177461	22674	Eucalyptus nitens	147.6	-43.3			Plant biomass and allometry: Wood (heartwood) cross-sectional area at breast height	BAAD: a biomass and allometry database for woody plants	Daniel	Falster	University of New South Wales	
1310480	9139972	22674	Eucalyptus nitens	147.6	-42.82		1994-02-14	Plant growth form	Leaf Physiology Database	Jens	Kattge	Max Planck Institute for Biogeochemistry	
3009587	29176967	22674	Eucalyptus nitens	146.9	-43.35			Plant biomass and allometry: Wood (sapwood) cross-sectional area at breast height	BAAD: a biomass and allometry database for woody plants	Daniel	Falster	University of New South Wales	
3009583	29176803	22674	Eucalyptus nitens	146.9	-43.35			Plant biomass and allometry: Wood (sapwood) cross-sectional area at breast height	BAAD: a biomass and allometry database for woody plants	Daniel	Falster	University of New South Wales	
3009596	29177348	22674	Eucalyptus nitens	147.6	-43.3			Crown (canopy) height (base to top)	BAAD: a biomass and allometry database for woody plants	Daniel	Falster	University of New South Wales	
3009592	29177184	22674	Eucalyptus nitens	146.9	-43.35			Crown (canopy) height (base to top)	BAAD: a biomass and allometry database for woody plants	Daniel	Falster	University of New South Wales	
1310504	9140663	22674	Eucalyptus nitens	147.6	-42.82		1994-06-13	Plant nitrogen(N) fixation capacity	Leaf Physiology Database	Jens	Kattge	Max Planck Institute for Biogeochemistry	
1310495	9140391	22674	Eucalyptus nitens	147.6	-42.82		1994-05-09	Leaf photosynthesis rate per leaf area	Leaf Physiology Database	Jens	Kattge	Max Planck Institute for Biogeochemistry	
3009585	29176890	22674	Eucalyptus nitens	146.9	-43.35			Plant biomass and allometry: Stem cross-sectional area at breast height	BAAD: a biomass and allometry database for woody plants	Daniel	Falster	University of New South Wales	
3009595	29177295	22674	Eucalyptus nitens	147.6	-43.3			Plant biomass and allometry: Wood (sapwood) cross-sectional area at breast height	BAAD: a biomass and allometry database for woody plants	Daniel	Falster	University of New South Wales	
3009591	29177131	22674	Eucalyptus nitens	146.9	-43.35			Plant biomass and allometry: Wood (sapwood) cross-sectional area at breast height	BAAD: a biomass and allometry database for woody plants	Daniel	Falster	University of New South Wales	
1310500	9140552	22674	Eucalyptus nitens	147.6	-42.82		1994-06-13	Plant growth form	Leaf Physiology Database	Jens	Kattge	Max Planck Institute for Biogeochemistry	
1310491	9140286	22674	Eucalyptus nitens	147.6	-42.82		1994-03-18	Plant nitrogen(N) fixation capacity	Leaf Physiology Database	Jens	Kattge	Max Planck Institute for Biogeochemistry	
3009578	29176602	22674	Eucalyptus nitens	146.9	-43.35			Plant biomass and allometry: Stem cross-sectional area at base of the plant	BAAD: a biomass and allometry database for woody plants	Daniel	Falster	University of New South Wales	
3009605	29177712	22674	Eucalyptus nitens	147.583333333333	-42.8166666666667			Plant height vegetative	BAAD: a biomass and allometry database for woody plants	Daniel	Falster	University of New South Wales	
3009601	29177548	22674	Eucalyptus nitens	147.583333333333	-42.8166666666667			Plant height vegetative	BAAD: a biomass and allometry database for woody plants	Daniel	Falster	University of New South Wales	
3009589	29177054	22674	Eucalyptus nitens	146.9	-43.35			Plant biomass and allometry: Stem cross-sectional area at breast height	BAAD: a biomass and allometry database for woody plants	Daniel	Falster	University of New South Wales	
1310496	9140437	22674	Eucalyptus nitens	147.6	-42.82		1994-05-09	Leaf phenology type	Leaf Physiology Database	Jens	Kattge	Max Planck Institute for Biogeochemistry	
3009580	29176689	22674	Eucalyptus nitens	146.9	-43.35			Stem diameter	BAAD: a biomass and allometry database for woody plants	Daniel	Falster	University of New South Wales	
1310487	9140175	22674	Eucalyptus nitens	147.6	-42.82		1994-03-18	Plant growth form	Leaf Physiology Database	Jens	Kattge	Max Planck Institute for Biogeochemistry	
3009603	29177636	22674	Eucalyptus nitens	147.583333333333	-42.8166666666667			Plant biomass and allometry: Leaf mass (dry or fresh) per plant	BAAD: a biomass and allometry database for woody plants	Daniel	Falster	University of New South Wales	
3009599	29177472	22674	Eucalyptus nitens	147.6	-43.3			Plant biomass and allometry: Leaf mass (dry or fresh) per plant	BAAD: a biomass and allometry database for woody plants	Daniel	Falster	University of New South Wales	
1310481	9140004	22674	Eucalyptus nitens	147.6	-42.82		1994-02-14	Leaf type	Leaf Physiology Database	Jens	Kattge	Max Planck Institute for Biogeochemistry	
3009587	29176977	22674	Eucalyptus nitens	146.9	-43.35			Stem diameter	BAAD: a biomass and allometry database for woody plants	Daniel	Falster	University of New South Wales	
3009583	29176813	22674	Eucalyptus nitens	146.9	-43.35			Stem diameter	BAAD: a biomass and allometry database for woody plants	Daniel	Falster	University of New South Wales	
3009597	29177382	22674	Eucalyptus nitens	147.6	-43.3			Plant biomass and allometry: Stem cross-sectional area at breast height	BAAD: a biomass and allometry database for woody plants	Daniel	Falster	University of New South Wales	
3009593	29177218	22674	Eucalyptus nitens	146.9	-43.35			Plant biomass and allometry: Stem cross-sectional area at breast height	BAAD: a biomass and allometry database for woody plants	Daniel	Falster	University of New South Wales	
1310505	9140699	22674	Eucalyptus nitens	147.6	-42.82		1994-06-13	Leaf photosynthesis pathway	Leaf Physiology Database	Jens	Kattge	Max Planck Institute for Biogeochemistry	
3009590	29177089	22674	Eucalyptus nitens	146.9	-43.35			Leaf area per plant	BAAD: a biomass and allometry database for woody plants	Daniel	Falster	University of New South Wales	
3009586	29176925	22674	Eucalyptus nitens	146.9	-43.35			Leaf area per plant	BAAD: a biomass and allometry database for woody plants	Daniel	Falster	University of New South Wales	
3009582	29176761	22674	Eucalyptus nitens	146.9	-43.35			Leaf area per plant	BAAD: a biomass and allometry database for woody plants	Daniel	Falster	University of New South Wales	
3009595	29177305	22674	Eucalyptus nitens	147.6	-43.3			Stem diameter	BAAD: a biomass and allometry database for woody plants	Daniel	Falster	University of New South Wales	
3009591	29177141	22674	Eucalyptus nitens	146.9	-43.35			Stem diameter	BAAD: a biomass and allometry database for woody plants	Daniel	Falster	University of New South Wales	
1310501	9140584	22674	Eucalyptus nitens	147.6	-42.82		1994-06-13	Leaf type	Leaf Physiology Database	Jens	Kattge	Max Planck Institute for Biogeochemistry	
1310492	9140322	22674	Eucalyptus nitens	147.6	-42.82		1994-03-18	Leaf photosynthesis pathway	Leaf Physiology Database	Jens	Kattge	Max Planck Institute for Biogeochemistry	
3009579	29176634	22674	Eucalyptus nitens	146.9	-43.35			Plant functional type (PFT)	BAAD: a biomass and allometry database for woody plants	Daniel	Falster	University of New South Wales	
3009606	29177747	22674	Eucalyptus nitens	147.583333333333	-42.8166666666667			Plant biomass and allometry: Wood (sapwood) cross-sectional area at base of crown	BAAD: a biomass and allometry database for woody plants	Daniel	Falster	University of New South Wales	
3009602	29177583	22674	Eucalyptus nitens	147.583333333333	-42.8166666666667			Plant biomass and allometry: Wood (sapwood) cross-sectional area at base of crown	BAAD: a biomass and allometry database for woody plants	Daniel	Falster	University of New South Wales	
3009594	29177253	22674	Eucalyptus nitens	146.9	-43.35			Leaf area per plant	BAAD: a biomass and allometry database for woody plants	Daniel	Falster	University of New South Wales	
1310497	9140469	22674	Eucalyptus nitens	147.6	-42.82		1994-05-09	Species occurrence range: climate type	Leaf Physiology Database	Jens	Kattge	Max Planck Institute for Biogeochemistry	
3009581	29176724	22674	Eucalyptus nitens	146.9	-43.35			Plant biomass and allometry: Wood (heartwood) cross-sectional area at base of crown	BAAD: a biomass and allometry database for woody plants	Daniel	Falster	University of New South Wales	
1310488	9140207	22674	Eucalyptus nitens	147.6	-42.82		1994-03-18	Leaf type	Leaf Physiology Database	Jens	Kattge	Max Planck Institute for Biogeochemistry	
3009577	29176560	22674	Eucalyptus nitens	146.9	-43.35			Plant biomass and allometry: Wood (heartwood) cross-sectional area at base of crown	BAAD: a biomass and allometry database for woody plants	Daniel	Falster	University of New South Wales	
3009604	29177670	22674	Eucalyptus nitens	147.583333333333	-42.8166666666667			Plant biomass and allometry: Stem cross-sectional area at base of the crown	BAAD: a biomass and allometry database for woody plants	Daniel	Falster	University of New South Wales	
3009600	29177506	22674	Eucalyptus nitens	147.6	-43.3			Plant biomass and allometry: Stem cross-sectional area at base of the crown	BAAD: a biomass and allometry database for woody plants	Daniel	Falster	University of New South Wales	
1310483	9140054	22674	Eucalyptus nitens	147.6	-42.82		1994-02-14	Plant nitrogen(N) fixation capacity	Leaf Physiology Database	Jens	Kattge	Max Planck Institute for Biogeochemistry	
3009588	29177012	22674	Eucalyptus nitens	146.9	-43.35			Plant biomass and allometry: Stem cross-sectional area at base of the plant	BAAD: a biomass and allometry database for woody plants	Daniel	Falster	University of New South Wales	
3009584	29176848	22674	Eucalyptus nitens	146.9	-43.35			Plant biomass and allometry: Stem cross-sectional area at base of the plant	BAAD: a biomass and allometry database for woody plants	Daniel	Falster	University of New South Wales	
3009598	29177417	22674	Eucalyptus nitens	147.6	-43.3			Leaf area per plant	BAAD: a biomass and allometry database for woody plants	Daniel	Falster	University of New South Wales	
3009602	29177594	22674	Eucalyptus nitens	147.583333333333	-42.8166666666667			Crown (canopy) height (base to top)	BAAD: a biomass and allometry database for woody plants	Daniel	Falster	University of New South Wales	
3009598	29177430	22674	Eucalyptus nitens	147.6	-43.3			Crown (canopy) height (base to top)	BAAD: a biomass and allometry database for woody plants	Daniel	Falster	University of New South Wales	
1310479	9139943	22674	Eucalyptus nitens	147.6	-42.82		1994-06-21	Plant growth form	Leaf Physiology Database	Jens	Kattge	Max Planck Institute for Biogeochemistry	
3009586	29176935	22674	Eucalyptus nitens	146.9	-43.35			Stem diameter	BAAD: a biomass and allometry database for woody plants	Daniel	Falster	University of New South Wales	
3009582	29176771	22674	Eucalyptus nitens	146.9	-43.35			Stem diameter	BAAD: a biomass and allometry database for woody plants	Daniel	Falster	University of New South Wales	
3009596	29177340	22674	Eucalyptus nitens	147.6	-43.3			Plant biomass and allometry: Stem cross-sectional area at base of the plant	BAAD: a biomass and allometry database for woody plants	Daniel	Falster	University of New South Wales	
3009592	29177176	22674	Eucalyptus nitens	146.9	-43.35			Plant biomass and allometry: Stem cross-sectional area at base of the plant	BAAD: a biomass and allometry database for woody plants	Daniel	Falster	University of New South Wales	
1310503	9140634	22674	Eucalyptus nitens	147.6	-42.82		1994-06-13	Plant nitrogen(N) fixation capacity	Leaf Physiology Database	Jens	Kattge	Max Planck Institute for Biogeochemistry	
1310494	9140362	22674	Eucalyptus nitens	147.6	-42.82		1994-05-09	Leaf photosynthesis rate per leaf area	Leaf Physiology Database	Jens	Kattge	Max Planck Institute for Biogeochemistry	
3009579	29176647	22674	Eucalyptus nitens	146.9	-43.35			Plant height of lowest branch	BAAD: a biomass and allometry database for woody plants	Daniel	Falster	University of New South Wales	
1310484	9140092	22674	Eucalyptus nitens	147.6	-42.82		1994-02-14	Species occurrence range: climate type	Leaf Physiology Database	Jens	Kattge	Max Planck Institute for Biogeochemistry	
3009606	29177758	22674	Eucalyptus nitens	147.583333333333	-42.8166666666667			Crown (canopy) height (base to top)	BAAD: a biomass and allometry database for woody plants	Daniel	Falster	University of New South Wales	
3009594	29177263	22674	Eucalyptus nitens	146.9	-43.35			Stem diameter	BAAD: a biomass and allometry database for woody plants	Daniel	Falster	University of New South Wales	
3009590	29177099	22674	Eucalyptus nitens	146.9	-43.35			Stem diameter	BAAD: a biomass and allometry database for woody plants	Daniel	Falster	University of New South Wales	
1310499	9140523	22674	Eucalyptus nitens	147.6	-42.82		1994-05-09	Plant growth form	Leaf Physiology Database	Jens	Kattge	Max Planck Institute for Biogeochemistry	
1310490	9140257	22674	Eucalyptus nitens	147.6	-42.82		1994-03-18	Plant nitrogen(N) fixation capacity	Leaf Physiology Database	Jens	Kattge	Max Planck Institute for Biogeochemistry	
3009577	29176585	22674	Eucalyptus nitens	146.9	-43.35			Leaf area per leaf dry mass (specific leaf area, SLA or 1/LMA): undefined if petiole is in- or exclu	BAAD: a biomass and allometry database for woody plants	Daniel	Falster	University of New South Wales	
3009605	29177705	22674	Eucalyptus nitens	147.583333333333	-42.8166666666667			Plant biomass and allometry: Wood (sapwood) cross-sectional area at breast height	BAAD: a biomass and allometry database for woody plants	Daniel	Falster	University of New South Wales	
3009601	29177541	22674	Eucalyptus nitens	147.583333333333	-42.8166666666667			Plant biomass and allometry: Wood (sapwood) cross-sectional area at breast height	BAAD: a biomass and allometry database for woody plants	Daniel	Falster	University of New South Wales	
1310484	9140090	22674	Eucalyptus nitens	147.6	-42.82		1994-02-14	Leaf photosynthesis pathway	Leaf Physiology Database	Jens	Kattge	Max Planck Institute for Biogeochemistry	
3009589	29177044	22674	Eucalyptus nitens	146.9	-43.35			Plant functional type (PFT)	BAAD: a biomass and allometry database for woody plants	Daniel	Falster	University of New South Wales	
3009585	29176880	22674	Eucalyptus nitens	146.9	-43.35			Plant functional type (PFT)	BAAD: a biomass and allometry database for woody plants	Daniel	Falster	University of New South Wales	
1310495	9140408	22674	Eucalyptus nitens	147.6	-42.82		1994-05-09	Leaf phenology type	Leaf Physiology Database	Jens	Kattge	Max Planck Institute for Biogeochemistry	
3009580	29176682	22674	Eucalyptus nitens	146.9	-43.35			Plant biomass and allometry: Wood (heartwood) cross-sectional area at breast height	BAAD: a biomass and allometry database for woody plants	Daniel	Falster	University of New South Wales	
1310486	9140146	22674	Eucalyptus nitens	147.6	-42.82		1994-03-18	Plant growth form	Leaf Physiology Database	Jens	Kattge	Max Planck Institute for Biogeochemistry	
3009603	29177628	22674	Eucalyptus nitens	147.583333333333	-42.8166666666667			Plant biomass and allometry: Stem cross-sectional area at breast height	BAAD: a biomass and allometry database for woody plants	Daniel	Falster	University of New South Wales	
3009599	29177464	22674	Eucalyptus nitens	147.6	-43.3			Plant biomass and allometry: Stem cross-sectional area at breast height	BAAD: a biomass and allometry database for woody plants	Daniel	Falster	University of New South Wales	
1310480	9139975	22674	Eucalyptus nitens	147.6	-42.82		1994-02-14	Leaf type	Leaf Physiology Database	Jens	Kattge	Max Planck Institute for Biogeochemistry	
3009587	29176970	22674	Eucalyptus nitens	146.9	-43.35			Plant biomass and allometry: Wood (heartwood) cross-sectional area at base of crown	BAAD: a biomass and allometry database for woody plants	Daniel	Falster	University of New South Wales	
3009583	29176806	22674	Eucalyptus nitens	146.9	-43.35			Plant biomass and allometry: Wood (heartwood) cross-sectional area at base of crown	BAAD: a biomass and allometry database for woody plants	Daniel	Falster	University of New South Wales	
3009597	29177372	22674	Eucalyptus nitens	147.6	-43.3			Plant functional type (PFT)	BAAD: a biomass and allometry database for woody plants	Daniel	Falster	University of New South Wales	
3009593	29177208	22674	Eucalyptus nitens	146.9	-43.35			Plant functional type (PFT)	BAAD: a biomass and allometry database for woody plants	Daniel	Falster	University of New South Wales	
3009585	29176893	22674	Eucalyptus nitens	146.9	-43.35			Plant height of lowest branch	BAAD: a biomass and allometry database for woody plants	Daniel	Falster	University of New South Wales	
3009581	29176729	22674	Eucalyptus nitens	146.9	-43.35			Plant height of lowest branch	BAAD: a biomass and allometry database for woody plants	Daniel	Falster	University of New South Wales	
3009595	29177298	22674	Eucalyptus nitens	147.6	-43.3			Plant biomass and allometry: Wood (heartwood) cross-sectional area at base of crown	BAAD: a biomass and allometry database for woody plants	Daniel	Falster	University of New South Wales	
3009591	29177134	22674	Eucalyptus nitens	146.9	-43.35			Plant biomass and allometry: Wood (heartwood) cross-sectional area at base of crown	BAAD: a biomass and allometry database for woody plants	Daniel	Falster	University of New South Wales	
1310500	9140555	22674	Eucalyptus nitens	147.6	-42.82		1994-06-13	Leaf type	Leaf Physiology Database	Jens	Kattge	Max Planck Institute for Biogeochemistry	
1310491	9140293	22674	Eucalyptus nitens	147.6	-42.82		1994-03-18	Leaf photosynthesis pathway	Leaf Physiology Database	Jens	Kattge	Max Planck Institute for Biogeochemistry	
3009578	29176605	22674	Eucalyptus nitens	146.9	-43.35			Plant height vegetative	BAAD: a biomass and allometry database for woody plants	Daniel	Falster	University of New South Wales	
3009605	29177715	22674	Eucalyptus nitens	147.583333333333	-42.8166666666667			Stem diameter	BAAD: a biomass and allometry database for woody plants	Daniel	Falster	University of New South Wales	
3009601	29177551	22674	Eucalyptus nitens	147.583333333333	-42.8166666666667			Stem diameter	BAAD: a biomass and allometry database for woody plants	Daniel	Falster	University of New South Wales	
1310504	9140670	22674	Eucalyptus nitens	147.6	-42.82		1994-06-13	Leaf photosynthesis pathway	Leaf Physiology Database	Jens	Kattge	Max Planck Institute for Biogeochemistry	
3009589	29177057	22674	Eucalyptus nitens	146.9	-43.35			Plant height of lowest branch	BAAD: a biomass and allometry database for woody plants	Daniel	Falster	University of New South Wales	
1310496	9140440	22674	Eucalyptus nitens	147.6	-42.82		1994-05-09	Species occurrence range: climate type	Leaf Physiology Database	Jens	Kattge	Max Planck Institute for Biogeochemistry	
3009580	29176693	22674	Eucalyptus nitens	146.9	-43.35			Plant biomass and allometry: Leaf mass (dry or fresh) per plant	BAAD: a biomass and allometry database for woody plants	Daniel	Falster	University of New South Wales	
1310487	9140178	22674	Eucalyptus nitens	147.6	-42.82		1994-03-18	Leaf type	Leaf Physiology Database	Jens	Kattge	Max Planck Institute for Biogeochemistry	
3009604	29177663	22674	Eucalyptus nitens	147.583333333333	-42.8166666666667			Leaf area per plant	BAAD: a biomass and allometry database for woody plants	Daniel	Falster	University of New South Wales	
3009600	29177499	22674	Eucalyptus nitens	147.6	-43.3			Leaf area per plant	BAAD: a biomass and allometry database for woody plants	Daniel	Falster	University of New South Wales	
1310482	9140025	22674	Eucalyptus nitens	147.6	-42.82		1994-02-14	Plant nitrogen(N) fixation capacity	Leaf Physiology Database	Jens	Kattge	Max Planck Institute for Biogeochemistry	
3009587	29176995	22674	Eucalyptus nitens	146.9	-43.35			Leaf area per leaf dry mass (specific leaf area, SLA or 1/LMA): undefined if petiole is in- or exclu	BAAD: a biomass and allometry database for woody plants	Daniel	Falster	University of New South Wales	
3009583	29176831	22674	Eucalyptus nitens	146.9	-43.35			Leaf area per leaf dry mass (specific leaf area, SLA or 1/LMA): undefined if petiole is in- or exclu	BAAD: a biomass and allometry database for woody plants	Daniel	Falster	University of New South Wales	
3009597	29177385	22674	Eucalyptus nitens	147.6	-43.3			Plant height of lowest branch	BAAD: a biomass and allometry database for woody plants	Daniel	Falster	University of New South Wales	
3009593	29177221	22674	Eucalyptus nitens	146.9	-43.35			Plant height of lowest branch	BAAD: a biomass and allometry database for woody plants	Daniel	Falster	University of New South Wales	
1310506	9140710	22674	Eucalyptus nitens	147.6	-42.82		1994-06-13	Leaf photosynthesis rate per leaf area	Leaf Physiology Database	Jens	Kattge	Max Planck Institute for Biogeochemistry	
3009586	29176928	22674	Eucalyptus nitens	146.9	-43.35			Plant biomass and allometry: Wood (heartwood) cross-sectional area at breast height	BAAD: a biomass and allometry database for woody plants	Daniel	Falster	University of New South Wales	
3009582	29176764	22674	Eucalyptus nitens	146.9	-43.35			Plant biomass and allometry: Wood (heartwood) cross-sectional area at breast height	BAAD: a biomass and allometry database for woody plants	Daniel	Falster	University of New South Wales	
3009595	29177323	22674	Eucalyptus nitens	147.6	-43.3			Leaf area per leaf dry mass (specific leaf area, SLA or 1/LMA): undefined if petiole is in- or exclu	BAAD: a biomass and allometry database for woody plants	Daniel	Falster	University of New South Wales	
3009591	29177159	22674	Eucalyptus nitens	146.9	-43.35			Leaf area per leaf dry mass (specific leaf area, SLA or 1/LMA): undefined if petiole is in- or exclu	BAAD: a biomass and allometry database for woody plants	Daniel	Falster	University of New South Wales	
1310502	9140605	22674	Eucalyptus nitens	147.6	-42.82		1994-06-13	Plant nitrogen(N) fixation capacity	Leaf Physiology Database	Jens	Kattge	Max Planck Institute for Biogeochemistry	
1310493	9140333	22674	Eucalyptus nitens	147.6	-42.82		1994-05-09	Leaf photosynthesis rate per leaf area	Leaf Physiology Database	Jens	Kattge	Max Planck Institute for Biogeochemistry	
3009579	29176640	22674	Eucalyptus nitens	146.9	-43.35			Plant biomass and allometry: Wood (sapwood) cross-sectional area at base of crown	BAAD: a biomass and allometry database for woody plants	Daniel	Falster	University of New South Wales	
3009606	29177750	22674	Eucalyptus nitens	147.583333333333	-42.8166666666667			Plant biomass and allometry: Stem cross-sectional area at base of the plant	BAAD: a biomass and allometry database for woody plants	Daniel	Falster	University of New South Wales	
3009602	29177586	22674	Eucalyptus nitens	147.583333333333	-42.8166666666667			Plant biomass and allometry: Stem cross-sectional area at base of the plant	BAAD: a biomass and allometry database for woody plants	Daniel	Falster	University of New South Wales	
3009594	29177256	22674	Eucalyptus nitens	146.9	-43.35			Plant biomass and allometry: Wood (heartwood) cross-sectional area at breast height	BAAD: a biomass and allometry database for woody plants	Daniel	Falster	University of New South Wales	
3009590	29177092	22674	Eucalyptus nitens	146.9	-43.35			Plant biomass and allometry: Wood (heartwood) cross-sectional area at breast height	BAAD: a biomass and allometry database for woody plants	Daniel	Falster	University of New South Wales	
1310498	9140494	22674	Eucalyptus nitens	147.6	-42.82		1994-05-09	Plant growth form	Leaf Physiology Database	Jens	Kattge	Max Planck Institute for Biogeochemistry	
3009581	29176727	22674	Eucalyptus nitens	146.9	-43.35			Plant biomass and allometry: Stem cross-sectional area at base of the crown	BAAD: a biomass and allometry database for woody plants	Daniel	Falster	University of New South Wales	
1310489	9140228	22674	Eucalyptus nitens	147.6	-42.82		1994-03-18	Plant nitrogen(N) fixation capacity	Leaf Physiology Database	Jens	Kattge	Max Planck Institute for Biogeochemistry	
3009577	29176563	22674	Eucalyptus nitens	146.9	-43.35			Plant biomass and allometry: Stem cross-sectional area at base of the crown	BAAD: a biomass and allometry database for woody plants	Daniel	Falster	University of New South Wales	
3009604	29177673	22674	Eucalyptus nitens	147.583333333333	-42.8166666666667			Stem diameter	BAAD: a biomass and allometry database for woody plants	Daniel	Falster	University of New South Wales	
3009600	29177509	22674	Eucalyptus nitens	147.6	-43.3			Stem diameter	BAAD: a biomass and allometry database for woody plants	Daniel	Falster	University of New South Wales	
1310483	9140061	22674	Eucalyptus nitens	147.6	-42.82		1994-02-14	Leaf photosynthesis pathway	Leaf Physiology Database	Jens	Kattge	Max Planck Institute for Biogeochemistry	
3009588	29177015	22674	Eucalyptus nitens	146.9	-43.35			Plant height vegetative	BAAD: a biomass and allometry database for woody plants	Daniel	Falster	University of New South Wales	
1414981	10321633	22674	Eucalyptus nitens	147.36	-42.49			Stem sapwood cross-sectional area per supported leaf surface area (Huber value)	Global Leaf-Sapwood Area Ratios	Maurizio	Mencuccini		
3009584	29176851	22674	Eucalyptus nitens	146.9	-43.35			Plant height vegetative	BAAD: a biomass and allometry database for woody plants	Daniel	Falster	University of New South Wales	
3009598	29177420	22674	Eucalyptus nitens	147.6	-43.3			Plant biomass and allometry: Wood (heartwood) cross-sectional area at breast height	BAAD: a biomass and allometry database for woody plants	Daniel	Falster	University of New South Wales	
3009603	29177618	22674	Eucalyptus nitens	147.583333333333	-42.8166666666667			Plant functional type (PFT)	BAAD: a biomass and allometry database for woody plants	Daniel	Falster	University of New South Wales	
3009599	29177454	22674	Eucalyptus nitens	147.6	-43.3			Plant functional type (PFT)	BAAD: a biomass and allometry database for woody plants	Daniel	Falster	University of New South Wales	
1310479	9139946	22674	Eucalyptus nitens	147.6	-42.82		1994-06-21	Leaf type	Leaf Physiology Database	Jens	Kattge	Max Planck Institute for Biogeochemistry	
3009586	29176939	22674	Eucalyptus nitens	146.9	-43.35			Plant biomass and allometry: Leaf mass (dry or fresh) per plant	BAAD: a biomass and allometry database for woody plants	Daniel	Falster	University of New South Wales	
3009582	29176775	22674	Eucalyptus nitens	146.9	-43.35			Plant biomass and allometry: Leaf mass (dry or fresh) per plant	BAAD: a biomass and allometry database for woody plants	Daniel	Falster	University of New South Wales	
3009596	29177343	22674	Eucalyptus nitens	147.6	-43.3			Plant height vegetative	BAAD: a biomass and allometry database for woody plants	Daniel	Falster	University of New South Wales	
3009592	29177179	22674	Eucalyptus nitens	146.9	-43.35			Plant height vegetative	BAAD: a biomass and allometry database for woody plants	Daniel	Falster	University of New South Wales	
1310503	9140641	22674	Eucalyptus nitens	147.6	-42.82		1994-06-13	Leaf photosynthesis pathway	Leaf Physiology Database	Jens	Kattge	Max Planck Institute for Biogeochemistry	
1310494	9140379	22674	Eucalyptus nitens	147.6	-42.82		1994-05-09	Leaf phenology type	Leaf Physiology Database	Jens	Kattge	Max Planck Institute for Biogeochemistry	
3009579	29176651	22674	Eucalyptus nitens	146.9	-43.35			Crown (canopy) height (base to top)	BAAD: a biomass and allometry database for woody plants	Daniel	Falster	University of New South Wales	
1310485	9140117	22674	Eucalyptus nitens	147.6	-42.82		1994-02-14	Plant growth form	Leaf Physiology Database	Jens	Kattge	Max Planck Institute for Biogeochemistry	
3009594	29177267	22674	Eucalyptus nitens	146.9	-43.35			Plant biomass and allometry: Leaf mass (dry or fresh) per plant	BAAD: a biomass and allometry database for woody plants	Daniel	Falster	University of New South Wales	
3009590	29177103	22674	Eucalyptus nitens	146.9	-43.35			Plant biomass and allometry: Leaf mass (dry or fresh) per plant	BAAD: a biomass and allometry database for woody plants	Daniel	Falster	University of New South Wales	
1310499	9140526	22674	Eucalyptus nitens	147.6	-42.82		1994-05-09	Leaf type	Leaf Physiology Database	Jens	Kattge	Max Planck Institute for Biogeochemistry	
1310490	9140264	22674	Eucalyptus nitens	147.6	-42.82		1994-03-18	Leaf photosynthesis pathway	Leaf Physiology Database	Jens	Kattge	Max Planck Institute for Biogeochemistry	
3009578	29176598	22674	Eucalyptus nitens	146.9	-43.35			Plant biomass and allometry: Wood (sapwood) cross-sectional area at breast height	BAAD: a biomass and allometry database for woody plants	Daniel	Falster	University of New South Wales	
3009605	29177708	22674	Eucalyptus nitens	147.583333333333	-42.8166666666667			Plant biomass and allometry: Wood (heartwood) cross-sectional area at base of crown	BAAD: a biomass and allometry database for woody plants	Daniel	Falster	University of New South Wales	
3009601	29177544	22674	Eucalyptus nitens	147.583333333333	-42.8166666666667			Plant biomass and allometry: Wood (heartwood) cross-sectional area at base of crown	BAAD: a biomass and allometry database for woody plants	Daniel	Falster	University of New South Wales	
3009589	29177050	22674	Eucalyptus nitens	146.9	-43.35			Plant biomass and allometry: Wood (sapwood) cross-sectional area at base of crown	BAAD: a biomass and allometry database for woody plants	Daniel	Falster	University of New South Wales	
3009585	29176886	22674	Eucalyptus nitens	146.9	-43.35			Plant biomass and allometry: Wood (sapwood) cross-sectional area at base of crown	BAAD: a biomass and allometry database for woody plants	Daniel	Falster	University of New South Wales	
1310495	9140411	22674	Eucalyptus nitens	147.6	-42.82		1994-05-09	Species occurrence range: climate type	Leaf Physiology Database	Jens	Kattge	Max Planck Institute for Biogeochemistry	
3009580	29176685	22674	Eucalyptus nitens	146.9	-43.35			Plant biomass and allometry: Stem cross-sectional area at breast height	BAAD: a biomass and allometry database for woody plants	Daniel	Falster	University of New South Wales	
1310486	9140149	22674	Eucalyptus nitens	147.6	-42.82		1994-03-18	Leaf type	Leaf Physiology Database	Jens	Kattge	Max Planck Institute for Biogeochemistry	
3009603	29177631	22674	Eucalyptus nitens	147.583333333333	-42.8166666666667			Plant height of lowest branch	BAAD: a biomass and allometry database for woody plants	Daniel	Falster	University of New South Wales	
3009599	29177467	22674	Eucalyptus nitens	147.6	-43.3			Plant height of lowest branch	BAAD: a biomass and allometry database for woody plants	Daniel	Falster	University of New South Wales	
1310481	9139996	22674	Eucalyptus nitens	147.6	-42.82		1994-02-14	Plant nitrogen(N) fixation capacity	Leaf Physiology Database	Jens	Kattge	Max Planck Institute for Biogeochemistry	
3009587	29176973	22674	Eucalyptus nitens	146.9	-43.35			Plant biomass and allometry: Stem cross-sectional area at base of the crown	BAAD: a biomass and allometry database for woody plants	Daniel	Falster	University of New South Wales	
3009583	29176809	22674	Eucalyptus nitens	146.9	-43.35			Plant biomass and allometry: Stem cross-sectional area at base of the crown	BAAD: a biomass and allometry database for woody plants	Daniel	Falster	University of New South Wales	
3009597	29177378	22674	Eucalyptus nitens	147.6	-43.3			Plant biomass and allometry: Wood (sapwood) cross-sectional area at base of crown	BAAD: a biomass and allometry database for woody plants	Daniel	Falster	University of New South Wales	
3009593	29177214	22674	Eucalyptus nitens	146.9	-43.35			Plant biomass and allometry: Wood (sapwood) cross-sectional area at base of crown	BAAD: a biomass and allometry database for woody plants	Daniel	Falster	University of New South Wales	
3009589	29177061	22674	Eucalyptus nitens	146.9	-43.35			Crown (canopy) height (base to top)	BAAD: a biomass and allometry database for woody plants	Daniel	Falster	University of New South Wales	
3009585	29176897	22674	Eucalyptus nitens	146.9	-43.35			Crown (canopy) height (base to top)	BAAD: a biomass and allometry database for woody plants	Daniel	Falster	University of New South Wales	
3009581	29176733	22674	Eucalyptus nitens	146.9	-43.35			Crown (canopy) height (base to top)	BAAD: a biomass and allometry database for woody plants	Daniel	Falster	University of New South Wales	
3009595	29177301	22674	Eucalyptus nitens	147.6	-43.3			Plant biomass and allometry: Stem cross-sectional area at base of the crown	BAAD: a biomass and allometry database for woody plants	Daniel	Falster	University of New South Wales	
3009591	29177137	22674	Eucalyptus nitens	146.9	-43.35			Plant biomass and allometry: Stem cross-sectional area at base of the crown	BAAD: a biomass and allometry database for woody plants	Daniel	Falster	University of New South Wales	
1310501	9140576	22674	Eucalyptus nitens	147.6	-42.82		1994-06-13	Plant nitrogen(N) fixation capacity	Leaf Physiology Database	Jens	Kattge	Max Planck Institute for Biogeochemistry	
1310492	9140304	22674	Eucalyptus nitens	147.6	-42.82		1994-03-18	Leaf photosynthesis rate per leaf area	Leaf Physiology Database	Jens	Kattge	Max Planck Institute for Biogeochemistry	
3009578	29176608	22674	Eucalyptus nitens	146.9	-43.35			Stem diameter	BAAD: a biomass and allometry database for woody plants	Daniel	Falster	University of New South Wales	
3009605	29177733	22674	Eucalyptus nitens	147.583333333333	-42.8166666666667			Leaf area per leaf dry mass (specific leaf area, SLA or 1/LMA): undefined if petiole is in- or exclu	BAAD: a biomass and allometry database for woody plants	Daniel	Falster	University of New South Wales	
3009601	29177569	22674	Eucalyptus nitens	147.583333333333	-42.8166666666667			Leaf area per leaf dry mass (specific leaf area, SLA or 1/LMA): undefined if petiole is in- or exclu	BAAD: a biomass and allometry database for woody plants	Daniel	Falster	University of New South Wales	
1310505	9140681	22674	Eucalyptus nitens	147.6	-42.82		1994-06-13	Leaf photosynthesis rate per leaf area	Leaf Physiology Database	Jens	Kattge	Max Planck Institute for Biogeochemistry	
1310497	9140465	22674	Eucalyptus nitens	147.6	-42.82		1994-05-09	Plant growth form	Leaf Physiology Database	Jens	Kattge	Max Planck Institute for Biogeochemistry	
3009581	29176720	22674	Eucalyptus nitens	146.9	-43.35			Leaf area per plant	BAAD: a biomass and allometry database for woody plants	Daniel	Falster	University of New South Wales	
1310488	9140199	22674	Eucalyptus nitens	147.6	-42.82		1994-03-18	Plant nitrogen(N) fixation capacity	Leaf Physiology Database	Jens	Kattge	Max Planck Institute for Biogeochemistry	
3009577	29176556	22674	Eucalyptus nitens	146.9	-43.35			Leaf area per plant	BAAD: a biomass and allometry database for woody plants	Daniel	Falster	University of New South Wales	
3009604	29177666	22674	Eucalyptus nitens	147.583333333333	-42.8166666666667			Plant biomass and allometry: Wood (heartwood) cross-sectional area at breast height	BAAD: a biomass and allometry database for woody plants	Daniel	Falster	University of New South Wales	
3009600	29177502	22674	Eucalyptus nitens	147.6	-43.3			Plant biomass and allometry: Wood (heartwood) cross-sectional area at breast height	BAAD: a biomass and allometry database for woody plants	Daniel	Falster	University of New South Wales	
1310482	9140032	22674	Eucalyptus nitens	147.6	-42.82		1994-02-14	Leaf photosynthesis pathway	Leaf Physiology Database	Jens	Kattge	Max Planck Institute for Biogeochemistry	
3009588	29177008	22674	Eucalyptus nitens	146.9	-43.35			Plant biomass and allometry: Wood (sapwood) cross-sectional area at breast height	BAAD: a biomass and allometry database for woody plants	Daniel	Falster	University of New South Wales	
3009584	29176844	22674	Eucalyptus nitens	146.9	-43.35			Plant biomass and allometry: Wood (sapwood) cross-sectional area at breast height	BAAD: a biomass and allometry database for woody plants	Daniel	Falster	University of New South Wales	
3009597	29177389	22674	Eucalyptus nitens	147.6	-43.3			Crown (canopy) height (base to top)	BAAD: a biomass and allometry database for woody plants	Daniel	Falster	University of New South Wales	
3009593	29177225	22674	Eucalyptus nitens	146.9	-43.35			Crown (canopy) height (base to top)	BAAD: a biomass and allometry database for woody plants	Daniel	Falster	University of New South Wales	
3009602	29177589	22674	Eucalyptus nitens	147.583333333333	-42.8166666666667			Plant height vegetative	BAAD: a biomass and allometry database for woody plants	Daniel	Falster	University of New South Wales	
1310506	9140727	22674	Eucalyptus nitens	147.6	-42.82		1994-06-13	Leaf phenology type	Leaf Physiology Database	Jens	Kattge	Max Planck Institute for Biogeochemistry	
3009586	29176931	22674	Eucalyptus nitens	146.9	-43.35			Plant biomass and allometry: Stem cross-sectional area at breast height	BAAD: a biomass and allometry database for woody plants	Daniel	Falster	University of New South Wales	
3009582	29176767	22674	Eucalyptus nitens	146.9	-43.35			Plant biomass and allometry: Stem cross-sectional area at breast height	BAAD: a biomass and allometry database for woody plants	Daniel	Falster	University of New South Wales	
3009596	29177336	22674	Eucalyptus nitens	147.6	-43.3			Plant biomass and allometry: Wood (sapwood) cross-sectional area at breast height	BAAD: a biomass and allometry database for woody plants	Daniel	Falster	University of New South Wales	
3009592	29177172	22674	Eucalyptus nitens	146.9	-43.35			Plant biomass and allometry: Wood (sapwood) cross-sectional area at breast height	BAAD: a biomass and allometry database for woody plants	Daniel	Falster	University of New South Wales	
1310502	9140612	22674	Eucalyptus nitens	147.6	-42.82		1994-06-13	Leaf photosynthesis pathway	Leaf Physiology Database	Jens	Kattge	Max Planck Institute for Biogeochemistry	
1310493	9140350	22674	Eucalyptus nitens	147.6	-42.82		1994-05-09	Leaf phenology type	Leaf Physiology Database	Jens	Kattge	Max Planck Institute for Biogeochemistry	
3009579	29176643	22674	Eucalyptus nitens	146.9	-43.35			Plant biomass and allometry: Stem cross-sectional area at base of the plant	BAAD: a biomass and allometry database for woody plants	Daniel	Falster	University of New South Wales	
3009606	29177753	22674	Eucalyptus nitens	147.583333333333	-42.8166666666667			Plant height vegetative	BAAD: a biomass and allometry database for woody plants	Daniel	Falster	University of New South Wales	
3009598	29177423	22674	Eucalyptus nitens	147.6	-43.3			Plant biomass and allometry: Stem cross-sectional area at breast height	BAAD: a biomass and allometry database for woody plants	Daniel	Falster	University of New South Wales	
3009594	29177259	22674	Eucalyptus nitens	146.9	-43.35			Plant biomass and allometry: Stem cross-sectional area at breast height	BAAD: a biomass and allometry database for woody plants	Daniel	Falster	University of New South Wales	
3009590	29177095	22674	Eucalyptus nitens	146.9	-43.35			Plant biomass and allometry: Stem cross-sectional area at breast height	BAAD: a biomass and allometry database for woody plants	Daniel	Falster	University of New South Wales	
1310498	9140497	22674	Eucalyptus nitens	147.6	-42.82		1994-05-09	Leaf type	Leaf Physiology Database	Jens	Kattge	Max Planck Institute for Biogeochemistry	
1310489	9140235	22674	Eucalyptus nitens	147.6	-42.82		1994-03-18	Leaf photosynthesis pathway	Leaf Physiology Database	Jens	Kattge	Max Planck Institute for Biogeochemistry	
3009577	29176566	22674	Eucalyptus nitens	146.9	-43.35			Stem diameter	BAAD: a biomass and allometry database for woody plants	Daniel	Falster	University of New South Wales	
3009604	29177677	22674	Eucalyptus nitens	147.583333333333	-42.8166666666667			Plant biomass and allometry: Leaf mass (dry or fresh) per plant	BAAD: a biomass and allometry database for woody plants	Daniel	Falster	University of New South Wales	
3009600	29177513	22674	Eucalyptus nitens	147.6	-43.3			Plant biomass and allometry: Leaf mass (dry or fresh) per plant	BAAD: a biomass and allometry database for woody plants	Daniel	Falster	University of New South Wales	
1310484	9140072	22674	Eucalyptus nitens	147.6	-42.82		1994-02-14	Leaf photosynthesis rate per leaf area	Leaf Physiology Database	Jens	Kattge	Max Planck Institute for Biogeochemistry	
3009588	29177018	22674	Eucalyptus nitens	146.9	-43.35			Stem diameter	BAAD: a biomass and allometry database for woody plants	Daniel	Falster	University of New South Wales	
3009584	29176854	22674	Eucalyptus nitens	146.9	-43.35			Stem diameter	BAAD: a biomass and allometry database for woody plants	Daniel	Falster	University of New South Wales	
3009580	29176675	22674	Eucalyptus nitens	146.9	-43.35			Plant functional type (PFT)	BAAD: a biomass and allometry database for woody plants	Daniel	Falster	University of New South Wales	
1310485	9140120	22674	Eucalyptus nitens	147.6	-42.82		1994-02-14	Leaf type	Leaf Physiology Database	Jens	Kattge	Max Planck Institute for Biogeochemistry	
3009603	29177624	22674	Eucalyptus nitens	147.583333333333	-42.8166666666667			Plant biomass and allometry: Wood (sapwood) cross-sectional area at base of crown	BAAD: a biomass and allometry database for woody plants	Daniel	Falster	University of New South Wales	
3009599	29177460	22674	Eucalyptus nitens	147.6	-43.3			Plant biomass and allometry: Wood (sapwood) cross-sectional area at base of crown	BAAD: a biomass and allometry database for woody plants	Daniel	Falster	University of New South Wales	
1310480	9139967	22674	Eucalyptus nitens	147.6	-42.82		1994-02-14	Plant nitrogen(N) fixation capacity	Leaf Physiology Database	Jens	Kattge	Max Planck Institute for Biogeochemistry	
3009587	29176966	22674	Eucalyptus nitens	146.9	-43.35			Leaf area per plant	BAAD: a biomass and allometry database for woody plants	Daniel	Falster	University of New South Wales	
3009583	29176802	22674	Eucalyptus nitens	146.9	-43.35			Leaf area per plant	BAAD: a biomass and allometry database for woody plants	Daniel	Falster	University of New South Wales	
3009596	29177346	22674	Eucalyptus nitens	147.6	-43.3			Stem diameter	BAAD: a biomass and allometry database for woody plants	Daniel	Falster	University of New South Wales	
3009592	29177182	22674	Eucalyptus nitens	146.9	-43.35			Stem diameter	BAAD: a biomass and allometry database for woody plants	Daniel	Falster	University of New South Wales	
1310504	9140652	22674	Eucalyptus nitens	147.6	-42.82		1994-06-13	Leaf photosynthesis rate per leaf area	Leaf Physiology Database	Jens	Kattge	Max Planck Institute for Biogeochemistry	
1310494	9140382	22674	Eucalyptus nitens	147.6	-42.82		1994-05-09	Species occurrence range: climate type	Leaf Physiology Database	Jens	Kattge	Max Planck Institute for Biogeochemistry	
3009585	29176889	22674	Eucalyptus nitens	146.9	-43.35			Plant biomass and allometry: Stem cross-sectional area at base of the plant	BAAD: a biomass and allometry database for woody plants	Daniel	Falster	University of New South Wales	
3009595	29177294	22674	Eucalyptus nitens	147.6	-43.3			Leaf area per plant	BAAD: a biomass and allometry database for woody plants	Daniel	Falster	University of New South Wales	
3009591	29177130	22674	Eucalyptus nitens	146.9	-43.35			Leaf area per plant	BAAD: a biomass and allometry database for woody plants	Daniel	Falster	University of New South Wales	
1310500	9140547	22674	Eucalyptus nitens	147.6	-42.82		1994-06-13	Plant nitrogen(N) fixation capacity	Leaf Physiology Database	Jens	Kattge	Max Planck Institute for Biogeochemistry	
1310491	9140275	22674	Eucalyptus nitens	147.6	-42.82		1994-03-18	Leaf photosynthesis rate per leaf area	Leaf Physiology Database	Jens	Kattge	Max Planck Institute for Biogeochemistry	
3009578	29176601	22674	Eucalyptus nitens	146.9	-43.35			Plant biomass and allometry: Wood (heartwood) cross-sectional area at base of crown	BAAD: a biomass and allometry database for woody plants	Daniel	Falster	University of New South Wales	
3009605	29177711	22674	Eucalyptus nitens	147.583333333333	-42.8166666666667			Plant biomass and allometry: Stem cross-sectional area at base of the crown	BAAD: a biomass and allometry database for woody plants	Daniel	Falster	University of New South Wales	
3009601	29177547	22674	Eucalyptus nitens	147.583333333333	-42.8166666666667			Plant biomass and allometry: Stem cross-sectional area at base of the crown	BAAD: a biomass and allometry database for woody plants	Daniel	Falster	University of New South Wales	
3009589	29177053	22674	Eucalyptus nitens	146.9	-43.35			Plant biomass and allometry: Stem cross-sectional area at base of the plant	BAAD: a biomass and allometry database for woody plants	Daniel	Falster	University of New South Wales	
1310496	9140436	22674	Eucalyptus nitens	147.6	-42.82		1994-05-09	Plant growth form	Leaf Physiology Database	Jens	Kattge	Max Planck Institute for Biogeochemistry	
3009580	29176688	22674	Eucalyptus nitens	146.9	-43.35			Plant height of lowest branch	BAAD: a biomass and allometry database for woody plants	Daniel	Falster	University of New South Wales	
1310487	9140170	22674	Eucalyptus nitens	147.6	-42.82		1994-03-18	Plant nitrogen(N) fixation capacity	Leaf Physiology Database	Jens	Kattge	Max Planck Institute for Biogeochemistry	
3009603	29177635	22674	Eucalyptus nitens	147.583333333333	-42.8166666666667			Crown (canopy) height (base to top)	BAAD: a biomass and allometry database for woody plants	Daniel	Falster	University of New South Wales	
3009599	29177471	22674	Eucalyptus nitens	147.6	-43.3			Crown (canopy) height (base to top)	BAAD: a biomass and allometry database for woody plants	Daniel	Falster	University of New South Wales	
1310481	9140003	22674	Eucalyptus nitens	147.6	-42.82		1994-02-14	Leaf photosynthesis pathway	Leaf Physiology Database	Jens	Kattge	Max Planck Institute for Biogeochemistry	
3009587	29176976	22674	Eucalyptus nitens	146.9	-43.35			Stem diameter	BAAD: a biomass and allometry database for woody plants	Daniel	Falster	University of New South Wales	
3009583	29176812	22674	Eucalyptus nitens	146.9	-43.35			Stem diameter	BAAD: a biomass and allometry database for woody plants	Daniel	Falster	University of New South Wales	
3009597	29177381	22674	Eucalyptus nitens	147.6	-43.3			Plant biomass and allometry: Stem cross-sectional area at base of the plant	BAAD: a biomass and allometry database for woody plants	Daniel	Falster	University of New South Wales	
3009593	29177217	22674	Eucalyptus nitens	146.9	-43.35			Plant biomass and allometry: Stem cross-sectional area at base of the plant	BAAD: a biomass and allometry database for woody plants	Daniel	Falster	University of New South Wales	
1310505	9140698	22674	Eucalyptus nitens	147.6	-42.82		1994-06-13	Leaf phenology type	Leaf Physiology Database	Jens	Kattge	Max Planck Institute for Biogeochemistry	
3009590	29177085	22674	Eucalyptus nitens	146.9	-43.35			Plant functional type (PFT)	BAAD: a biomass and allometry database for woody plants	Daniel	Falster	University of New South Wales	
3009586	29176921	22674	Eucalyptus nitens	146.9	-43.35			Plant functional type (PFT)	BAAD: a biomass and allometry database for woody plants	Daniel	Falster	University of New South Wales	
3009582	29176757	22674	Eucalyptus nitens	146.9	-43.35			Plant functional type (PFT)	BAAD: a biomass and allometry database for woody plants	Daniel	Falster	University of New South Wales	
3009595	29177304	22674	Eucalyptus nitens	147.6	-43.3			Stem diameter	BAAD: a biomass and allometry database for woody plants	Daniel	Falster	University of New South Wales	
3009591	29177140	22674	Eucalyptus nitens	146.9	-43.35			Stem diameter	BAAD: a biomass and allometry database for woody plants	Daniel	Falster	University of New South Wales	
1310501	9140583	22674	Eucalyptus nitens	147.6	-42.82		1994-06-13	Leaf photosynthesis pathway	Leaf Physiology Database	Jens	Kattge	Max Planck Institute for Biogeochemistry	
1310492	9140321	22674	Eucalyptus nitens	147.6	-42.82		1994-03-18	Leaf phenology type	Leaf Physiology Database	Jens	Kattge	Max Planck Institute for Biogeochemistry	
3009578	29176626	22674	Eucalyptus nitens	146.9	-43.35			Leaf area per leaf dry mass (specific leaf area, SLA or 1/LMA): undefined if petiole is in- or exclu	BAAD: a biomass and allometry database for woody plants	Daniel	Falster	University of New South Wales	
3009606	29177746	22674	Eucalyptus nitens	147.583333333333	-42.8166666666667			Plant biomass and allometry: Wood (sapwood) cross-sectional area at breast height	BAAD: a biomass and allometry database for woody plants	Daniel	Falster	University of New South Wales	
3009602	29177582	22674	Eucalyptus nitens	147.583333333333	-42.8166666666667			Plant biomass and allometry: Wood (sapwood) cross-sectional area at breast height	BAAD: a biomass and allometry database for woody plants	Daniel	Falster	University of New South Wales	
3009594	29177249	22674	Eucalyptus nitens	146.9	-43.35			Plant functional type (PFT)	BAAD: a biomass and allometry database for woody plants	Daniel	Falster	University of New South Wales	
1310497	9140468	22674	Eucalyptus nitens	147.6	-42.82		1994-05-09	Leaf type	Leaf Physiology Database	Jens	Kattge	Max Planck Institute for Biogeochemistry	
3009581	29176723	22674	Eucalyptus nitens	146.9	-43.35			Plant biomass and allometry: Wood (heartwood) cross-sectional area at breast height	BAAD: a biomass and allometry database for woody plants	Daniel	Falster	University of New South Wales	
1310488	9140206	22674	Eucalyptus nitens	147.6	-42.82		1994-03-18	Leaf photosynthesis pathway	Leaf Physiology Database	Jens	Kattge	Max Planck Institute for Biogeochemistry	
3009577	29176559	22674	Eucalyptus nitens	146.9	-43.35			Plant biomass and allometry: Wood (heartwood) cross-sectional area at breast height	BAAD: a biomass and allometry database for woody plants	Daniel	Falster	University of New South Wales	
3009604	29177669	22674	Eucalyptus nitens	147.583333333333	-42.8166666666667			Plant biomass and allometry: Stem cross-sectional area at breast height	BAAD: a biomass and allometry database for woody plants	Daniel	Falster	University of New South Wales	
3009600	29177505	22674	Eucalyptus nitens	147.6	-43.3			Plant biomass and allometry: Stem cross-sectional area at breast height	BAAD: a biomass and allometry database for woody plants	Daniel	Falster	University of New South Wales	
1310483	9140043	22674	Eucalyptus nitens	147.6	-42.82		1994-02-14	Leaf photosynthesis rate per leaf area	Leaf Physiology Database	Jens	Kattge	Max Planck Institute for Biogeochemistry	
3009588	29177011	22674	Eucalyptus nitens	146.9	-43.35			Plant biomass and allometry: Wood (heartwood) cross-sectional area at base of crown	BAAD: a biomass and allometry database for woody plants	Daniel	Falster	University of New South Wales	
3009584	29176847	22674	Eucalyptus nitens	146.9	-43.35			Plant biomass and allometry: Wood (heartwood) cross-sectional area at base of crown	BAAD: a biomass and allometry database for woody plants	Daniel	Falster	University of New South Wales	
3009598	29177413	22674	Eucalyptus nitens	147.6	-43.3			Plant functional type (PFT)	BAAD: a biomass and allometry database for woody plants	Daniel	Falster	University of New South Wales	
3009602	29177592	22674	Eucalyptus nitens	147.583333333333	-42.8166666666667			Stem diameter	BAAD: a biomass and allometry database for woody plants	Daniel	Falster	University of New South Wales	
3009598	29177428	22674	Eucalyptus nitens	147.6	-43.3			Stem diameter	BAAD: a biomass and allometry database for woody plants	Daniel	Falster	University of New South Wales	
1310506	9140730	22674	Eucalyptus nitens	147.6	-42.82		1994-06-13	Species occurrence range: climate type	Leaf Physiology Database	Jens	Kattge	Max Planck Institute for Biogeochemistry	
1310479	9139938	22674	Eucalyptus nitens	147.6	-42.82		1994-06-21	Plant nitrogen(N) fixation capacity	Leaf Physiology Database	Jens	Kattge	Max Planck Institute for Biogeochemistry	
3009586	29176934	22674	Eucalyptus nitens	146.9	-43.35			Plant height of lowest branch	BAAD: a biomass and allometry database for woody plants	Daniel	Falster	University of New South Wales	
3009582	29176770	22674	Eucalyptus nitens	146.9	-43.35			Plant height of lowest branch	BAAD: a biomass and allometry database for woody plants	Daniel	Falster	University of New South Wales	
3009596	29177339	22674	Eucalyptus nitens	147.6	-43.3			Plant biomass and allometry: Wood (heartwood) cross-sectional area at base of crown	BAAD: a biomass and allometry database for woody plants	Daniel	Falster	University of New South Wales	
3009592	29177175	22674	Eucalyptus nitens	146.9	-43.35			Plant biomass and allometry: Wood (heartwood) cross-sectional area at base of crown	BAAD: a biomass and allometry database for woody plants	Daniel	Falster	University of New South Wales	
1310503	9140623	22674	Eucalyptus nitens	147.6	-42.82		1994-06-13	Leaf photosynthesis rate per leaf area	Leaf Physiology Database	Jens	Kattge	Max Planck Institute for Biogeochemistry	
1310493	9140353	22674	Eucalyptus nitens	147.6	-42.82		1994-05-09	Species occurrence range: climate type	Leaf Physiology Database	Jens	Kattge	Max Planck Institute for Biogeochemistry	
3009579	29176646	22674	Eucalyptus nitens	146.9	-43.35			Plant height vegetative	BAAD: a biomass and allometry database for woody plants	Daniel	Falster	University of New South Wales	
3009606	29177756	22674	Eucalyptus nitens	147.583333333333	-42.8166666666667			Stem diameter	BAAD: a biomass and allometry database for woody plants	Daniel	Falster	University of New South Wales	
3009598	29177426	22674	Eucalyptus nitens	147.6	-43.3			Plant height of lowest branch	BAAD: a biomass and allometry database for woody plants	Daniel	Falster	University of New South Wales	
3009594	29177262	22674	Eucalyptus nitens	146.9	-43.35			Plant height of lowest branch	BAAD: a biomass and allometry database for woody plants	Daniel	Falster	University of New South Wales	
3009590	29177098	22674	Eucalyptus nitens	146.9	-43.35			Plant height of lowest branch	BAAD: a biomass and allometry database for woody plants	Daniel	Falster	University of New South Wales	
1310499	9140518	22674	Eucalyptus nitens	147.6	-42.82		1994-05-09	Plant nitrogen(N) fixation capacity	Leaf Physiology Database	Jens	Kattge	Max Planck Institute for Biogeochemistry	
1310490	9140246	22674	Eucalyptus nitens	147.6	-42.82		1994-03-18	Leaf photosynthesis rate per leaf area	Leaf Physiology Database	Jens	Kattge	Max Planck Institute for Biogeochemistry	
3009577	29176570	22674	Eucalyptus nitens	146.9	-43.35			Plant biomass and allometry: Leaf mass (dry or fresh) per plant	BAAD: a biomass and allometry database for woody plants	Daniel	Falster	University of New South Wales	
3009605	29177704	22674	Eucalyptus nitens	147.583333333333	-42.8166666666667			Leaf area per plant	BAAD: a biomass and allometry database for woody plants	Daniel	Falster	University of New South Wales	
3009601	29177540	22674	Eucalyptus nitens	147.583333333333	-42.8166666666667			Leaf area per plant	BAAD: a biomass and allometry database for woody plants	Daniel	Falster	University of New South Wales	
1310484	9140089	22674	Eucalyptus nitens	147.6	-42.82		1994-02-14	Leaf phenology type	Leaf Physiology Database	Jens	Kattge	Max Planck Institute for Biogeochemistry	
3009588	29177036	22674	Eucalyptus nitens	146.9	-43.35			Leaf area per leaf dry mass (specific leaf area, SLA or 1/LMA): undefined if petiole is in- or exclu	BAAD: a biomass and allometry database for woody plants	Daniel	Falster	University of New South Wales	
3009584	29176872	22674	Eucalyptus nitens	146.9	-43.35			Leaf area per leaf dry mass (specific leaf area, SLA or 1/LMA): undefined if petiole is in- or exclu	BAAD: a biomass and allometry database for woody plants	Daniel	Falster	University of New South Wales	
3009580	29176681	22674	Eucalyptus nitens	146.9	-43.35			Plant biomass and allometry: Wood (sapwood) cross-sectional area at base of crown	BAAD: a biomass and allometry database for woody plants	Daniel	Falster	University of New South Wales	
1310486	9140141	22674	Eucalyptus nitens	147.6	-42.82		1994-03-18	Plant nitrogen(N) fixation capacity	Leaf Physiology Database	Jens	Kattge	Max Planck Institute for Biogeochemistry	
3009603	29177627	22674	Eucalyptus nitens	147.583333333333	-42.8166666666667			Plant biomass and allometry: Stem cross-sectional area at base of the plant	BAAD: a biomass and allometry database for woody plants	Daniel	Falster	University of New South Wales	
3009599	29177463	22674	Eucalyptus nitens	147.6	-43.3			Plant biomass and allometry: Stem cross-sectional area at base of the plant	BAAD: a biomass and allometry database for woody plants	Daniel	Falster	University of New South Wales	
1310480	9139974	22674	Eucalyptus nitens	147.6	-42.82		1994-02-14	Leaf photosynthesis pathway	Leaf Physiology Database	Jens	Kattge	Max Planck Institute for Biogeochemistry	
3009587	29176969	22674	Eucalyptus nitens	146.9	-43.35			Plant biomass and allometry: Wood (heartwood) cross-sectional area at breast height	BAAD: a biomass and allometry database for woody plants	Daniel	Falster	University of New South Wales	
3009583	29176805	22674	Eucalyptus nitens	146.9	-43.35			Plant biomass and allometry: Wood (heartwood) cross-sectional area at breast height	BAAD: a biomass and allometry database for woody plants	Daniel	Falster	University of New South Wales	
3009596	29177364	22674	Eucalyptus nitens	147.6	-43.3			Leaf area per leaf dry mass (specific leaf area, SLA or 1/LMA): undefined if petiole is in- or exclu	BAAD: a biomass and allometry database for woody plants	Daniel	Falster	University of New South Wales	
3009592	29177200	22674	Eucalyptus nitens	146.9	-43.35			Leaf area per leaf dry mass (specific leaf area, SLA or 1/LMA): undefined if petiole is in- or exclu	BAAD: a biomass and allometry database for woody plants	Daniel	Falster	University of New South Wales	
1310495	9140407	22674	Eucalyptus nitens	147.6	-42.82		1994-05-09	Plant growth form	Leaf Physiology Database	Jens	Kattge	Max Planck Institute for Biogeochemistry	
2460949	20011379	22684	Eucalyptus obliqua	146.6512	-43.0888	217		Plant functional type (PFT)	Global Respiration Database	Owen	Atkin	Australian National University	
2460949	20011395	22684	Eucalyptus obliqua	146.6512	-43.0888	217		Leaf respiration rate in the dark per leaf dry mass	Global Respiration Database	Owen	Atkin	Australian National University	
2460949	20011405	22684	Eucalyptus obliqua	146.6512	-43.0888	217		Leaf nitrogen (N) content per leaf area	Global Respiration Database	Owen	Atkin	Australian National University	
2460949	20011384	22684	Eucalyptus obliqua	146.6512	-43.0888	217		Leaf photosynthesis rate per leaf area	Global Respiration Database	Owen	Atkin	Australian National University	
2460949	20011398	22684	Eucalyptus obliqua	146.6512	-43.0888	217		Leaf respiration rate in the dark per leaf dry mass	Global Respiration Database	Owen	Atkin	Australian National University	
2460949	20011408	22684	Eucalyptus obliqua	146.6512	-43.0888	217		Leaf photosynthesis carboxylation capacity (Vcmax) per leaf area (Farquhar model)	Global Respiration Database	Owen	Atkin	Australian National University	
2460949	20011388	22684	Eucalyptus obliqua	146.6512	-43.0888	217		Leaf respiration rate in the dark per leaf area	Global Respiration Database	Owen	Atkin	Australian National University	
2460949	20011401	22684	Eucalyptus obliqua	146.6512	-43.0888	217		Leaf respiration rate in the dark per leaf area	Global Respiration Database	Owen	Atkin	Australian National University	
2460949	20011411	22684	Eucalyptus obliqua	146.6512	-43.0888	217		Leaf respiration rate in the dark as fraction of photosynthetic carboxylation capacity (Vcmax)	Global Respiration Database	Owen	Atkin	Australian National University	
2460949	20011378	22684	Eucalyptus obliqua	146.6512	-43.0888	217		Plant functional type (PFT)	Global Respiration Database	Owen	Atkin	Australian National University	
2460949	20011394	22684	Eucalyptus obliqua	146.6512	-43.0888	217		Leaf respiration rate in the dark per leaf area	Global Respiration Database	Owen	Atkin	Australian National University	
2460949	20011404	22684	Eucalyptus obliqua	146.6512	-43.0888	217		Leaf phosphorus (P) content per leaf dry mass	Global Respiration Database	Owen	Atkin	Australian National University	
2460949	50949710	22684	Eucalyptus obliqua	146.6512	-43.0888	217		Stomata conductance per leaf dry mass	Global Respiration Database	Owen	Atkin	Australian National University	
2460949	20011381	22684	Eucalyptus obliqua	146.6512	-43.0888	217		Plant functional type (PFT)	Global Respiration Database	Owen	Atkin	Australian National University	
2460949	20011397	22684	Eucalyptus obliqua	146.6512	-43.0888	217		Leaf respiration rate in the dark per leaf area	Global Respiration Database	Owen	Atkin	Australian National University	
2460949	20011407	22684	Eucalyptus obliqua	146.6512	-43.0888	217		Leaf area per leaf dry mass (specific leaf area, SLA or 1/LMA): petiole included	Global Respiration Database	Owen	Atkin	Australian National University	
2460949	20011386	22684	Eucalyptus obliqua	146.6512	-43.0888	217		Leaf photosynthesis: intercellular CO2 concentration	Global Respiration Database	Owen	Atkin	Australian National University	
2460949	20011400	22684	Eucalyptus obliqua	146.6512	-43.0888	217		Leaf respiration rate in the dark per leaf dry mass	Global Respiration Database	Owen	Atkin	Australian National University	
2460949	20011410	22684	Eucalyptus obliqua	146.6512	-43.0888	217		Leaf photosynthesis carboxylation capacity (Vcmax) per leaf dry mass (Farquhar model)	Global Respiration Database	Owen	Atkin	Australian National University	
2460949	20011377	22684	Eucalyptus obliqua	146.6512	-43.0888	217		Plant functional type (PFT)	Global Respiration Database	Owen	Atkin	Australian National University	
2460949	20011391	22684	Eucalyptus obliqua	146.6512	-43.0888	217		Leaf respiration rate in the dark per leaf dry mass	Global Respiration Database	Owen	Atkin	Australian National University	
2460949	20011403	22684	Eucalyptus obliqua	146.6512	-43.0888	217		Leaf nitrogen (N) content per leaf dry mass	Global Respiration Database	Owen	Atkin	Australian National University	
2460949	50885663	22684	Eucalyptus obliqua	146.6512	-43.0888	217		Leaf photosynthesis carboxylation capacity (Vcmax) per leaf dry mass (Farquhar model)	Global Respiration Database	Owen	Atkin	Australian National University	
2460949	20011380	22684	Eucalyptus obliqua	146.6512	-43.0888	217		Plant functional type (PFT)	Global Respiration Database	Owen	Atkin	Australian National University	
2460949	20011396	22684	Eucalyptus obliqua	146.6512	-43.0888	217		Leaf respiration rate in the dark per leaf area	Global Respiration Database	Owen	Atkin	Australian National University	
2460949	20011406	22684	Eucalyptus obliqua	146.6512	-43.0888	217		Leaf phosphorus (P) content per leaf area	Global Respiration Database	Owen	Atkin	Australian National University	
2460949	20011385	22684	Eucalyptus obliqua	146.6512	-43.0888	217		Stomata conductance per leaf area	Global Respiration Database	Owen	Atkin	Australian National University	
2460949	20011399	22684	Eucalyptus obliqua	146.6512	-43.0888	217		Leaf respiration rate in the dark per leaf area	Global Respiration Database	Owen	Atkin	Australian National University	
2460949	20011409	22684	Eucalyptus obliqua	146.6512	-43.0888	217		Leaf photosynthesis carboxylation capacity (Vcmax) per leaf area (Farquhar model)	Global Respiration Database	Owen	Atkin	Australian National University	
2460949	20011376	22684	Eucalyptus obliqua	146.6512	-43.0888	217		Plant functional type (PFT)	Global Respiration Database	Owen	Atkin	Australian National University	
2460949	20011390	22684	Eucalyptus obliqua	146.6512	-43.0888	217		Leaf photosynthesis rate per leaf dry mass	Global Respiration Database	Owen	Atkin	Australian National University	
2460949	20011402	22684	Eucalyptus obliqua	146.6512	-43.0888	217		Leaf respiration rate in the dark per leaf dry mass	Global Respiration Database	Owen	Atkin	Australian National University	
2460949	20011412	22684	Eucalyptus obliqua	146.6512	-43.0888	217		Leaf respiration rate in the dark as fraction of photosynthetic carboxylation capacity (Vcmax)	Global Respiration Database	Owen	Atkin	Australian National University	
2398945	19839480	225314	Eucalyptus oblongifolia	145.6333	-42.9086	346		Leaf phenology type	Global leaf size dataset	Ian	Wright	Macquarie University	
2398945	19839483	225314	Eucalyptus oblongifolia	145.6333	-42.9086	346		Leaf area (in case of compound leaves: leaf, undefined if petiole in- or excluded)	Global leaf size dataset	Ian	Wright	Macquarie University	
2398945	19839479	225314	Eucalyptus oblongifolia	145.6333	-42.9086	346		Plant woodiness	Global leaf size dataset	Ian	Wright	Macquarie University	
2398945	19839482	225314	Eucalyptus oblongifolia	145.6333	-42.9086	346		Leaf area (in case of compound leaves: leaflet, undefined if petiole is in- or excluded)	Global leaf size dataset	Ian	Wright	Macquarie University	
2398945	19839478	225314	Eucalyptus oblongifolia	145.6333	-42.9086	346		Plant growth form	Global leaf size dataset	Ian	Wright	Macquarie University	
2398945	19839481	225314	Eucalyptus oblongifolia	145.6333	-42.9086	346		Leaf compoundness	Global leaf size dataset	Ian	Wright	Macquarie University	
2398945	19839487	225314	Eucalyptus oblongifolia	145.6333	-42.9086	346		Leaflet number per leaf	Global leaf size dataset	Ian	Wright	Macquarie University	
4523773	50625432	22720	Eucalyptus pauciflora	147	-42.4			Wood (sapwood) specific conductivity (stem specific conductivity)	Plant Hydraulic Traits	Stefano	Manzoni	Stockholm University	
4523773	50625431	22720	Eucalyptus pauciflora	147	-42.4			Leaf area-specific conductivity (leaf specific conductivity)	Plant Hydraulic Traits	Stefano	Manzoni	Stockholm University	
4523773	50625439	22720	Eucalyptus pauciflora	147	-42.4			Leaf phenology type	Plant Hydraulic Traits	Stefano	Manzoni	Stockholm University	
4523773	50625438	22720	Eucalyptus pauciflora	147	-42.4			Plant woodiness	Plant Hydraulic Traits	Stefano	Manzoni	Stockholm University	
1727428	12550334	22776	Eucalyptus regnans	147.324722222222	-42.905	60		Wood fibre types	Xylem Functional Traits (XFT) Database	Steven	Jansen	Ulm University	
2668648	23684368	22776	Eucalyptus regnans	146.5893	-42.68386			Stem diameter	Dataset for Rosell et al. 2017 New Phytologist	Julieta	Rosell	Universidad Nacional Autonoma de México	
2667906	23676760	22776	Eucalyptus regnans	146.5893	-42.68386			Bark thickness	Dataset for Rosell 2016 New Phytologist	Julieta	Rosell	Universidad Nacional Autonoma de México	
1727428	12550323	22776	Eucalyptus regnans	147.324722222222	-42.905	60		Plant growth form	Xylem Functional Traits (XFT) Database	Steven	Jansen	Ulm University	
2668648	23684371	22776	Eucalyptus regnans	146.5893	-42.68386			Bark thickness (outer bark)	Dataset for Rosell et al. 2017 New Phytologist	Julieta	Rosell	Universidad Nacional Autonoma de México	
1727428	12550330	22776	Eucalyptus regnans	147.324722222222	-42.905	60		Leaf area-specific conductivity (leaf specific conductivity)	Xylem Functional Traits (XFT) Database	Steven	Jansen	Ulm University	
1727428	12550333	22776	Eucalyptus regnans	147.324722222222	-42.905	60		Wood vessel perforation plates	Xylem Functional Traits (XFT) Database	Steven	Jansen	Ulm University	
2668648	23684367	22776	Eucalyptus regnans	146.5893	-42.68386			Plant growth form	Dataset for Rosell et al. 2017 New Phytologist	Julieta	Rosell	Universidad Nacional Autonoma de México	
2667906	23676759	22776	Eucalyptus regnans	146.5893	-42.68386			Stem diameter	Dataset for Rosell 2016 New Phytologist	Julieta	Rosell	Universidad Nacional Autonoma de México	
1727428	12550336	22776	Eucalyptus regnans	147.324722222222	-42.905	60		Leaf phenology type	Xylem Functional Traits (XFT) Database	Steven	Jansen	Ulm University	
2668648	23684370	22776	Eucalyptus regnans	146.5893	-42.68386			Bark thickness (inner bark)	Dataset for Rosell et al. 2017 New Phytologist	Julieta	Rosell	Universidad Nacional Autonoma de México	
2667906	23676762	22776	Eucalyptus regnans	146.5893	-42.68386			Bark thickness (outer bark)	Dataset for Rosell 2016 New Phytologist	Julieta	Rosell	Universidad Nacional Autonoma de México	
1727428	12550326	22776	Eucalyptus regnans	147.324722222222	-42.905	60		Xylem hydraulic vulnerability, xylem cavitation vulnerability, embolism vulnerability, (P20, P50, P8	Xylem Functional Traits (XFT) Database	Steven	Jansen	Ulm University	
1727428	12550332	22776	Eucalyptus regnans	147.324722222222	-42.905	60		Wood growth ring distinction	Xylem Functional Traits (XFT) Database	Steven	Jansen	Ulm University	
2668648	23684366	22776	Eucalyptus regnans	146.5893	-42.68386			Stem construction type	Dataset for Rosell et al. 2017 New Phytologist	Julieta	Rosell	Universidad Nacional Autonoma de México	
1727428	12550335	22776	Eucalyptus regnans	147.324722222222	-42.905	60		Wood vessel grouping	Xylem Functional Traits (XFT) Database	Steven	Jansen	Ulm University	
2668648	23684369	22776	Eucalyptus regnans	146.5893	-42.68386			Bark thickness	Dataset for Rosell et al. 2017 New Phytologist	Julieta	Rosell	Universidad Nacional Autonoma de México	
2667906	23676761	22776	Eucalyptus regnans	146.5893	-42.68386			Bark thickness (inner bark)	Dataset for Rosell 2016 New Phytologist	Julieta	Rosell	Universidad Nacional Autonoma de México	
1727428	12550325	22776	Eucalyptus regnans	147.324722222222	-42.905	60		Plant life form (Raunkiaer life form)	Xylem Functional Traits (XFT) Database	Steven	Jansen	Ulm University	
1727428	12550331	22776	Eucalyptus regnans	147.324722222222	-42.905	60		Wood vestures presence	Xylem Functional Traits (XFT) Database	Steven	Jansen	Ulm University	
4523774	50625443	22788	Eucalyptus rubida	147	-42.4			Wood (sapwood) specific conductivity (stem specific conductivity)	Plant Hydraulic Traits	Stefano	Manzoni	Stockholm University	
4523774	50625442	22788	Eucalyptus rubida	147	-42.4			Leaf area-specific conductivity (leaf specific conductivity)	Plant Hydraulic Traits	Stefano	Manzoni	Stockholm University	
4523774	50625450	22788	Eucalyptus rubida	147	-42.4			Leaf phenology type	Plant Hydraulic Traits	Stefano	Manzoni	Stockholm University	
4523774	50625449	22788	Eucalyptus rubida	147	-42.4			Plant woodiness	Plant Hydraulic Traits	Stefano	Manzoni	Stockholm University	
2668649	23684381	22846	Eucalyptus tenuiramis	147	-42.4			Bark thickness	Dataset for Rosell et al. 2017 New Phytologist	Julieta	Rosell	Universidad Nacional Autonoma de México	
4523775	50625453	22846	Eucalyptus tenuiramis	147	-42.4			Leaf area-specific conductivity (leaf specific conductivity)	Plant Hydraulic Traits	Stefano	Manzoni	Stockholm University	
2667907	23676768	22846	Eucalyptus tenuiramis	147	-42.4			Stem diameter	Dataset for Rosell 2016 New Phytologist	Julieta	Rosell	Universidad Nacional Autonoma de México	
4523775	50625461	22846	Eucalyptus tenuiramis	147	-42.4			Leaf phenology type	Plant Hydraulic Traits	Stefano	Manzoni	Stockholm University	
2668649	23684380	22846	Eucalyptus tenuiramis	147	-42.4			Stem diameter	Dataset for Rosell et al. 2017 New Phytologist	Julieta	Rosell	Universidad Nacional Autonoma de México	
2667907	23676771	22846	Eucalyptus tenuiramis	147	-42.4			Bark thickness (outer bark)	Dataset for Rosell 2016 New Phytologist	Julieta	Rosell	Universidad Nacional Autonoma de México	
2668649	23684383	22846	Eucalyptus tenuiramis	147	-42.4			Bark thickness (outer bark)	Dataset for Rosell et al. 2017 New Phytologist	Julieta	Rosell	Universidad Nacional Autonoma de México	
4523775	50625460	22846	Eucalyptus tenuiramis	147	-42.4			Plant woodiness	Plant Hydraulic Traits	Stefano	Manzoni	Stockholm University	
2668649	23684379	22846	Eucalyptus tenuiramis	147	-42.4			Plant growth form	Dataset for Rosell et al. 2017 New Phytologist	Julieta	Rosell	Universidad Nacional Autonoma de México	
2667907	23676770	22846	Eucalyptus tenuiramis	147	-42.4			Bark thickness (inner bark)	Dataset for Rosell 2016 New Phytologist	Julieta	Rosell	Universidad Nacional Autonoma de México	
2668649	23684382	22846	Eucalyptus tenuiramis	147	-42.4			Bark thickness (inner bark)	Dataset for Rosell et al. 2017 New Phytologist	Julieta	Rosell	Universidad Nacional Autonoma de México	
4523775	50625454	22846	Eucalyptus tenuiramis	147	-42.4			Wood (sapwood) specific conductivity (stem specific conductivity)	Plant Hydraulic Traits	Stefano	Manzoni	Stockholm University	
2668649	23684378	22846	Eucalyptus tenuiramis	147	-42.4			Stem construction type	Dataset for Rosell et al. 2017 New Phytologist	Julieta	Rosell	Universidad Nacional Autonoma de México	
2667907	23676769	22846	Eucalyptus tenuiramis	147	-42.4			Bark thickness	Dataset for Rosell 2016 New Phytologist	Julieta	Rosell	Universidad Nacional Autonoma de México	
2460938	20010828	22935	Eucryphia lucida	146.7242	-43.0951	88		Leaf respiration rate in the dark as fraction of photosynthetic carboxylation capacity (Vcmax)	Global Respiration Database	Owen	Atkin	Australian National University	
1045046	6405083	22935	Eucryphia lucida	146.167	-42.22	415		Leaf texture (sclerophylly, physical strength, toughness)	Leaf Biomechanics Database	Yusuke	Onoda	Kyushu University	
2667910	23676795	22935	Eucryphia lucida	146.040058	-42.222972			Stem diameter	Dataset for Rosell 2016 New Phytologist	Julieta	Rosell	Universidad Nacional Autonoma de México	
2460938	20010795	22935	Eucryphia lucida	146.7242	-43.0951	88		Plant functional type (PFT)	Global Respiration Database	Owen	Atkin	Australian National University	
2460938	20010811	22935	Eucryphia lucida	146.7242	-43.0951	88		Leaf respiration rate in the dark per leaf area	Global Respiration Database	Owen	Atkin	Australian National University	
799218	4584315	22935	Eucryphia lucida	145.3	-42.183333	2	1991-11-12	Plant woodiness	VegClass CBM Global Database	Andy	Gillison	Center for Biodiversity Management	
2460938	20010821	22935	Eucryphia lucida	146.7242	-43.0951	88		Leaf phosphorus (P) content per leaf dry mass	Global Respiration Database	Owen	Atkin	Australian National University	
1045051	6405215	22935	Eucryphia lucida	146.167	-42.22	415		Leaf density (leaf tissue density, leaf dry mass per leaf volume)	Leaf Biomechanics Database	Yusuke	Onoda	Kyushu University	
1045046	6405075	22935	Eucryphia lucida	146.167	-42.22	415		Leaf phenology type	Leaf Biomechanics Database	Yusuke	Onoda	Kyushu University	
2460938	50949699	22935	Eucryphia lucida	146.7242	-43.0951	88		Stomata conductance per leaf dry mass	Global Respiration Database	Owen	Atkin	Australian National University	
2668652	23684414	22935	Eucryphia lucida	146.040058	-42.222972			Stem construction type	Dataset for Rosell et al. 2017 New Phytologist	Julieta	Rosell	Universidad Nacional Autonoma de México	
2667910	23676798	22935	Eucryphia lucida	146.040058	-42.222972			Bark thickness (outer bark)	Dataset for Rosell 2016 New Phytologist	Julieta	Rosell	Universidad Nacional Autonoma de México	
2460938	20010798	22935	Eucryphia lucida	146.7242	-43.0951	88		Plant functional type (PFT)	Global Respiration Database	Owen	Atkin	Australian National University	
2460938	20010814	22935	Eucryphia lucida	146.7242	-43.0951	88		Leaf respiration rate in the dark per leaf area	Global Respiration Database	Owen	Atkin	Australian National University	
1045051	6405207	22935	Eucryphia lucida	146.167	-42.22	415		Plant growth form	Leaf Biomechanics Database	Yusuke	Onoda	Kyushu University	
1221541	4584311	22935	Eucryphia lucida	145.3	-42.183333	2	1991-11-12	Leaf angle (inclination, orientation)	VegClass CBM Global Database	Andy	Gillison	Center for Biodiversity Management	
2460938	20010824	22935	Eucryphia lucida	146.7242	-43.0951	88		Leaf area per leaf dry mass (specific leaf area, SLA or 1/LMA): petiole included	Global Respiration Database	Owen	Atkin	Australian National University	
1045051	6405218	22935	Eucryphia lucida	146.167	-42.22	415		Leaf texture (sclerophylly, physical strength, toughness)	Leaf Biomechanics Database	Yusuke	Onoda	Kyushu University	
1045046	6405079	22935	Eucryphia lucida	146.167	-42.22	415		Leaf thickness	Leaf Biomechanics Database	Yusuke	Onoda	Kyushu University	
799218	4584310	22935	Eucryphia lucida	145.3	-42.183333	2	1991-11-12	Leaf angle (inclination, orientation)	VegClass CBM Global Database	Andy	Gillison	Center for Biodiversity Management	
2668652	23684417	22935	Eucryphia lucida	146.040058	-42.222972			Bark thickness	Dataset for Rosell et al. 2017 New Phytologist	Julieta	Rosell	Universidad Nacional Autonoma de México	
2460938	20010803	22935	Eucryphia lucida	146.7242	-43.0951	88		Leaf photosynthesis: intercellular CO2 concentration	Global Respiration Database	Owen	Atkin	Australian National University	
2460938	20010817	22935	Eucryphia lucida	146.7242	-43.0951	88		Leaf respiration rate in the dark per leaf dry mass	Global Respiration Database	Owen	Atkin	Australian National University	
1045051	6405210	22935	Eucryphia lucida	146.167	-42.22	415		Leaf phenology type	Leaf Biomechanics Database	Yusuke	Onoda	Kyushu University	
2460938	20010827	22935	Eucryphia lucida	146.7242	-43.0951	88		Leaf photosynthesis carboxylation capacity (Vcmax) per leaf dry mass (Farquhar model)	Global Respiration Database	Owen	Atkin	Australian National University	
1045046	6405082	22935	Eucryphia lucida	146.167	-42.22	415		Leaf texture (sclerophylly, physical strength, toughness)	Leaf Biomechanics Database	Yusuke	Onoda	Kyushu University	
2460938	20010794	22935	Eucryphia lucida	146.7242	-43.0951	88		Plant functional type (PFT)	Global Respiration Database	Owen	Atkin	Australian National University	
799218	4584314	22935	Eucryphia lucida	145.3	-42.183333	2	1991-11-12	Plant life form (Raunkiaer life form)	VegClass CBM Global Database	Andy	Gillison	Center for Biodiversity Management	
1254738	4584317	22935	Eucryphia lucida	145.3	-42.183333	2	1991-11-12	Plant life form (Raunkiaer life form)	VegClass CBM Global Database	Andy	Gillison	Center for Biodiversity Management	
2460938	20010808	22935	Eucryphia lucida	146.7242	-43.0951	88		Leaf respiration rate in the dark per leaf dry mass	Global Respiration Database	Owen	Atkin	Australian National University	
2460938	20010820	22935	Eucryphia lucida	146.7242	-43.0951	88		Leaf nitrogen (N) content per leaf dry mass	Global Respiration Database	Owen	Atkin	Australian National University	
1045051	6405214	22935	Eucryphia lucida	146.167	-42.22	415		Leaf thickness	Leaf Biomechanics Database	Yusuke	Onoda	Kyushu University	
1045046	6405074	22935	Eucryphia lucida	146.167	-42.22	415		Plant growth form	Leaf Biomechanics Database	Yusuke	Onoda	Kyushu University	
2460938	50885652	22935	Eucryphia lucida	146.7242	-43.0951	88		Leaf photosynthesis carboxylation capacity (Vcmax) per leaf dry mass (Farquhar model)	Global Respiration Database	Owen	Atkin	Australian National University	
2667910	23676797	22935	Eucryphia lucida	146.040058	-42.222972			Bark thickness (inner bark)	Dataset for Rosell 2016 New Phytologist	Julieta	Rosell	Universidad Nacional Autonoma de México	
2460938	20010797	22935	Eucryphia lucida	146.7242	-43.0951	88		Plant functional type (PFT)	Global Respiration Database	Owen	Atkin	Australian National University	
2460938	20010813	22935	Eucryphia lucida	146.7242	-43.0951	88		Leaf respiration rate in the dark per leaf area	Global Respiration Database	Owen	Atkin	Australian National University	
2460938	20010823	22935	Eucryphia lucida	146.7242	-43.0951	88		Leaf phosphorus (P) content per leaf area	Global Respiration Database	Owen	Atkin	Australian National University	
1045051	6405217	22935	Eucryphia lucida	146.167	-42.22	415		Leaf texture (sclerophylly, physical strength, toughness)	Leaf Biomechanics Database	Yusuke	Onoda	Kyushu University	
1045046	6405078	22935	Eucryphia lucida	146.167	-42.22	415		Leaf area per leaf dry mass (specific leaf area, SLA or 1/LMA): petiole excluded	Leaf Biomechanics Database	Yusuke	Onoda	Kyushu University	
799218	4584307	22935	Eucryphia lucida	145.3	-42.183333	2	1991-11-12	Leaf area (in case of compound leaves: leaflet, undefined if petiole is in- or excluded)	VegClass CBM Global Database	Andy	Gillison	Center for Biodiversity Management	
2668652	23684416	22935	Eucryphia lucida	146.040058	-42.222972			Stem diameter	Dataset for Rosell et al. 2017 New Phytologist	Julieta	Rosell	Universidad Nacional Autonoma de México	
2460938	20010802	22935	Eucryphia lucida	146.7242	-43.0951	88		Stomata conductance per leaf area	Global Respiration Database	Owen	Atkin	Australian National University	
2460938	20010816	22935	Eucryphia lucida	146.7242	-43.0951	88		Leaf respiration rate in the dark per leaf area	Global Respiration Database	Owen	Atkin	Australian National University	
1045051	6405209	22935	Eucryphia lucida	146.167	-42.22	415		Plant growth form	Leaf Biomechanics Database	Yusuke	Onoda	Kyushu University	
2460938	20010826	22935	Eucryphia lucida	146.7242	-43.0951	88		Leaf photosynthesis carboxylation capacity (Vcmax) per leaf area (Farquhar model)	Global Respiration Database	Owen	Atkin	Australian National University	
1045046	6405081	22935	Eucryphia lucida	146.167	-42.22	415		Leaf texture (sclerophylly, physical strength, toughness)	Leaf Biomechanics Database	Yusuke	Onoda	Kyushu University	
2460938	20010793	22935	Eucryphia lucida	146.7242	-43.0951	88		Plant functional type (PFT)	Global Respiration Database	Owen	Atkin	Australian National University	
799218	4584313	22935	Eucryphia lucida	145.3	-42.183333	2	1991-11-12	Leaf phenology type	VegClass CBM Global Database	Andy	Gillison	Center for Biodiversity Management	
1254737	4584316	22935	Eucryphia lucida	145.3	-42.183333	2	1991-11-12	Plant life form (Raunkiaer life form)	VegClass CBM Global Database	Andy	Gillison	Center for Biodiversity Management	
2668652	23684419	22935	Eucryphia lucida	146.040058	-42.222972			Bark thickness (outer bark)	Dataset for Rosell et al. 2017 New Phytologist	Julieta	Rosell	Universidad Nacional Autonoma de México	
2460938	20010807	22935	Eucryphia lucida	146.7242	-43.0951	88		Leaf photosynthesis rate per leaf dry mass	Global Respiration Database	Owen	Atkin	Australian National University	
2460938	20010819	22935	Eucryphia lucida	146.7242	-43.0951	88		Leaf respiration rate in the dark per leaf dry mass	Global Respiration Database	Owen	Atkin	Australian National University	
1045051	6405213	22935	Eucryphia lucida	146.167	-42.22	415		Leaf area per leaf dry mass (specific leaf area, SLA or 1/LMA): petiole excluded	Leaf Biomechanics Database	Yusuke	Onoda	Kyushu University	
1045046	6405073	22935	Eucryphia lucida	146.167	-42.22	415		Plant growth form	Leaf Biomechanics Database	Yusuke	Onoda	Kyushu University	
2460938	20010829	22935	Eucryphia lucida	146.7242	-43.0951	88		Leaf respiration rate in the dark as fraction of photosynthetic carboxylation capacity (Vcmax)	Global Respiration Database	Owen	Atkin	Australian National University	
1045046	6405084	22935	Eucryphia lucida	146.167	-42.22	415		Leaf texture (sclerophylly, physical strength, toughness)	Leaf Biomechanics Database	Yusuke	Onoda	Kyushu University	
2667910	23676796	22935	Eucryphia lucida	146.040058	-42.222972			Bark thickness	Dataset for Rosell 2016 New Phytologist	Julieta	Rosell	Universidad Nacional Autonoma de México	
2460938	20010796	22935	Eucryphia lucida	146.7242	-43.0951	88		Plant functional type (PFT)	Global Respiration Database	Owen	Atkin	Australian National University	
2460938	20010812	22935	Eucryphia lucida	146.7242	-43.0951	88		Leaf respiration rate in the dark per leaf dry mass	Global Respiration Database	Owen	Atkin	Australian National University	
2460938	20010822	22935	Eucryphia lucida	146.7242	-43.0951	88		Leaf nitrogen (N) content per leaf area	Global Respiration Database	Owen	Atkin	Australian National University	
1045051	6405216	22935	Eucryphia lucida	146.167	-42.22	415		Leaf texture (sclerophylly, physical strength, toughness)	Leaf Biomechanics Database	Yusuke	Onoda	Kyushu University	
1045046	6405076	22935	Eucryphia lucida	146.167	-42.22	415		Leaf type	Leaf Biomechanics Database	Yusuke	Onoda	Kyushu University	
799218	4584285	22935	Eucryphia lucida	145.3	-42.183333	2	1991-11-12	Plant functional type (PFT)	VegClass CBM Global Database	Andy	Gillison	Center for Biodiversity Management	
2668652	23684415	22935	Eucryphia lucida	146.040058	-42.222972			Plant growth form	Dataset for Rosell et al. 2017 New Phytologist	Julieta	Rosell	Universidad Nacional Autonoma de México	
2460938	20010801	22935	Eucryphia lucida	146.7242	-43.0951	88		Leaf photosynthesis rate per leaf area	Global Respiration Database	Owen	Atkin	Australian National University	
2460938	20010815	22935	Eucryphia lucida	146.7242	-43.0951	88		Leaf respiration rate in the dark per leaf dry mass	Global Respiration Database	Owen	Atkin	Australian National University	
1045051	6405208	22935	Eucryphia lucida	146.167	-42.22	415		Plant growth form	Leaf Biomechanics Database	Yusuke	Onoda	Kyushu University	
2460938	20010825	22935	Eucryphia lucida	146.7242	-43.0951	88		Leaf photosynthesis carboxylation capacity (Vcmax) per leaf area (Farquhar model)	Global Respiration Database	Owen	Atkin	Australian National University	
1045051	6405219	22935	Eucryphia lucida	146.167	-42.22	415		Leaf texture (sclerophylly, physical strength, toughness)	Leaf Biomechanics Database	Yusuke	Onoda	Kyushu University	
1045046	6405080	22935	Eucryphia lucida	146.167	-42.22	415		Leaf density (leaf tissue density, leaf dry mass per leaf volume)	Leaf Biomechanics Database	Yusuke	Onoda	Kyushu University	
799218	4584312	22935	Eucryphia lucida	145.3	-42.183333	2	1991-11-12	Leaf type	VegClass CBM Global Database	Andy	Gillison	Center for Biodiversity Management	
2668652	23684418	22935	Eucryphia lucida	146.040058	-42.222972			Bark thickness (inner bark)	Dataset for Rosell et al. 2017 New Phytologist	Julieta	Rosell	Universidad Nacional Autonoma de México	
2460938	20010805	22935	Eucryphia lucida	146.7242	-43.0951	88		Leaf respiration rate in the dark per leaf area	Global Respiration Database	Owen	Atkin	Australian National University	
2460938	20010818	22935	Eucryphia lucida	146.7242	-43.0951	88		Leaf respiration rate in the dark per leaf area	Global Respiration Database	Owen	Atkin	Australian National University	
1045051	6405211	22935	Eucryphia lucida	146.167	-42.22	415		Leaf type	Leaf Biomechanics Database	Yusuke	Onoda	Kyushu University	
1045046	6405072	22935	Eucryphia lucida	146.167	-42.22	415		Plant growth form	Leaf Biomechanics Database	Yusuke	Onoda	Kyushu University	
2668683	23684779	23809	Exocarpos cupressiformis	147	-42.4			Plant growth form	Dataset for Rosell et al. 2017 New Phytologist	Julieta	Rosell	Universidad Nacional Autonoma de México	
4523758	50625267	23809	Exocarpos cupressiformis	147.2	-43			Wood (sapwood) specific conductivity (stem specific conductivity)	Plant Hydraulic Traits	Stefano	Manzoni	Stockholm University	
4523776	50625472	23809	Exocarpos cupressiformis	147	-42.4			Leaf phenology type	Plant Hydraulic Traits	Stefano	Manzoni	Stockholm University	
2668683	23684782	23809	Exocarpos cupressiformis	147	-42.4			Bark thickness (inner bark)	Dataset for Rosell et al. 2017 New Phytologist	Julieta	Rosell	Universidad Nacional Autonoma de México	
2667939	23677052	23809	Exocarpos cupressiformis	147	-42.4			Bark thickness (inner bark)	Dataset for Rosell 2016 New Phytologist	Julieta	Rosell	Universidad Nacional Autonoma de México	
2668683	23684778	23809	Exocarpos cupressiformis	147	-42.4			Stem construction type	Dataset for Rosell et al. 2017 New Phytologist	Julieta	Rosell	Universidad Nacional Autonoma de México	
4523758	50625266	23809	Exocarpos cupressiformis	147.2	-43			Leaf area-specific conductivity (leaf specific conductivity)	Plant Hydraulic Traits	Stefano	Manzoni	Stockholm University	
4523776	50625471	23809	Exocarpos cupressiformis	147	-42.4			Plant woodiness	Plant Hydraulic Traits	Stefano	Manzoni	Stockholm University	
2668683	23684781	23809	Exocarpos cupressiformis	147	-42.4			Bark thickness	Dataset for Rosell et al. 2017 New Phytologist	Julieta	Rosell	Universidad Nacional Autonoma de México	
4523758	50625274	23809	Exocarpos cupressiformis	147.2	-43			Leaf phenology type	Plant Hydraulic Traits	Stefano	Manzoni	Stockholm University	
2667939	23677051	23809	Exocarpos cupressiformis	147	-42.4			Bark thickness	Dataset for Rosell 2016 New Phytologist	Julieta	Rosell	Universidad Nacional Autonoma de México	
4523776	50625465	23809	Exocarpos cupressiformis	147	-42.4			Wood (sapwood) specific conductivity (stem specific conductivity)	Plant Hydraulic Traits	Stefano	Manzoni	Stockholm University	
2668683	23684780	23809	Exocarpos cupressiformis	147	-42.4			Stem diameter	Dataset for Rosell et al. 2017 New Phytologist	Julieta	Rosell	Universidad Nacional Autonoma de México	
4523758	50625273	23809	Exocarpos cupressiformis	147.2	-43			Plant woodiness	Plant Hydraulic Traits	Stefano	Manzoni	Stockholm University	
2667939	23677050	23809	Exocarpos cupressiformis	147	-42.4			Stem diameter	Dataset for Rosell 2016 New Phytologist	Julieta	Rosell	Universidad Nacional Autonoma de México	
2668683	23684783	23809	Exocarpos cupressiformis	147	-42.4			Bark thickness (outer bark)	Dataset for Rosell et al. 2017 New Phytologist	Julieta	Rosell	Universidad Nacional Autonoma de México	
2667939	23677053	23809	Exocarpos cupressiformis	147	-42.4			Bark thickness (outer bark)	Dataset for Rosell 2016 New Phytologist	Julieta	Rosell	Universidad Nacional Autonoma de México	
4523776	50625464	23809	Exocarpos cupressiformis	147	-42.4			Leaf area-specific conductivity (leaf specific conductivity)	Plant Hydraulic Traits	Stefano	Manzoni	Stockholm University	
2667941	23677070	227790	Exocarpos humifusus	146.589347	-42.683857			Bark thickness (inner bark)	Dataset for Rosell 2016 New Phytologist	Julieta	Rosell	Universidad Nacional Autonoma de México	
2668685	23684807	227790	Exocarpos humifusus	146.589347	-42.683857			Bark thickness (outer bark)	Dataset for Rosell et al. 2017 New Phytologist	Julieta	Rosell	Universidad Nacional Autonoma de México	
2668685	23684803	227790	Exocarpos humifusus	146.589347	-42.683857			Plant growth form	Dataset for Rosell et al. 2017 New Phytologist	Julieta	Rosell	Universidad Nacional Autonoma de México	
2667941	23677069	227790	Exocarpos humifusus	146.589347	-42.683857			Bark thickness	Dataset for Rosell 2016 New Phytologist	Julieta	Rosell	Universidad Nacional Autonoma de México	
2668685	23684806	227790	Exocarpos humifusus	146.589347	-42.683857			Bark thickness (inner bark)	Dataset for Rosell et al. 2017 New Phytologist	Julieta	Rosell	Universidad Nacional Autonoma de México	
2668685	23684802	227790	Exocarpos humifusus	146.589347	-42.683857			Stem construction type	Dataset for Rosell et al. 2017 New Phytologist	Julieta	Rosell	Universidad Nacional Autonoma de México	
2667941	23677068	227790	Exocarpos humifusus	146.589347	-42.683857			Stem diameter	Dataset for Rosell 2016 New Phytologist	Julieta	Rosell	Universidad Nacional Autonoma de México	
2668685	23684805	227790	Exocarpos humifusus	146.589347	-42.683857			Bark thickness	Dataset for Rosell et al. 2017 New Phytologist	Julieta	Rosell	Universidad Nacional Autonoma de México	
2667941	23677071	227790	Exocarpos humifusus	146.589347	-42.683857			Bark thickness (outer bark)	Dataset for Rosell 2016 New Phytologist	Julieta	Rosell	Universidad Nacional Autonoma de México	
2668685	23684804	227790	Exocarpos humifusus	146.589347	-42.683857			Stem diameter	Dataset for Rosell et al. 2017 New Phytologist	Julieta	Rosell	Universidad Nacional Autonoma de México	
1728175	12622007	83425	Falcatifolium taxoides	147.324722222222	-42.905	60		Wood growth ring distinction	Xylem Functional Traits (XFT) Database	Steven	Jansen	Ulm University	
1728175	12622010	83425	Falcatifolium taxoides	147.324722222222	-42.905	60		Wood vessels surrounded by tracheids (vasicentric tracheids)	Xylem Functional Traits (XFT) Database	Steven	Jansen	Ulm University	
1728175	12622003	83425	Falcatifolium taxoides	147.324722222222	-42.905	60		Plant life form (Raunkiaer life form)	Xylem Functional Traits (XFT) Database	Steven	Jansen	Ulm University	
1728175	12622006	83425	Falcatifolium taxoides	147.324722222222	-42.905	60		Stem sapwood cross-sectional area per supported leaf surface area (Huber value)	Xylem Functional Traits (XFT) Database	Steven	Jansen	Ulm University	
1728175	12622009	83425	Falcatifolium taxoides	147.324722222222	-42.905	60		Wood fibre types	Xylem Functional Traits (XFT) Database	Steven	Jansen	Ulm University	
1728175	12622001	83425	Falcatifolium taxoides	147.324722222222	-42.905	60		Plant growth form	Xylem Functional Traits (XFT) Database	Steven	Jansen	Ulm University	
1728175	12622012	83425	Falcatifolium taxoides	147.324722222222	-42.905	60		Leaf phenology type	Xylem Functional Traits (XFT) Database	Steven	Jansen	Ulm University	
1728175	12622005	83425	Falcatifolium taxoides	147.324722222222	-42.905	60		Leaf area-specific conductivity (leaf specific conductivity)	Xylem Functional Traits (XFT) Database	Steven	Jansen	Ulm University	
1728175	12622008	83425	Falcatifolium taxoides	147.324722222222	-42.905	60		Wood vessel perforation plates	Xylem Functional Traits (XFT) Database	Steven	Jansen	Ulm University	
1728175	12622011	83425	Falcatifolium taxoides	147.324722222222	-42.905	60		Wood vessel grouping	Xylem Functional Traits (XFT) Database	Steven	Jansen	Ulm University	
1728175	12622004	83425	Falcatifolium taxoides	147.324722222222	-42.905	60		Wood (sapwood) specific conductivity (stem specific conductivity)	Xylem Functional Traits (XFT) Database	Steven	Jansen	Ulm University	
799221	4584429	25400	Gahnia grandis	145.3	-42.183333	2	1991-11-12	Plant woodiness	VegClass CBM Global Database	Andy	Gillison	Center for Biodiversity Management	
799221	4584419	25400	Gahnia grandis	145.3	-42.183333	2	1991-11-12	Leaf area (in case of compound leaves: leaflet, undefined if petiole is in- or excluded)	VegClass CBM Global Database	Andy	Gillison	Center for Biodiversity Management	
799221	4584425	25400	Gahnia grandis	145.3	-42.183333	2	1991-11-12	Leaf phenology type	VegClass CBM Global Database	Andy	Gillison	Center for Biodiversity Management	
1221544	4584423	25400	Gahnia grandis	145.3	-42.183333	2	1991-11-12	Leaf angle (inclination, orientation)	VegClass CBM Global Database	Andy	Gillison	Center for Biodiversity Management	
799221	4584428	25400	Gahnia grandis	145.3	-42.183333	2	1991-11-12	Plant morphological adaptations: root metamorphoses	VegClass CBM Global Database	Andy	Gillison	Center for Biodiversity Management	
799221	4584397	25400	Gahnia grandis	145.3	-42.183333	2	1991-11-12	Plant functional type (PFT)	VegClass CBM Global Database	Andy	Gillison	Center for Biodiversity Management	
799221	4584424	25400	Gahnia grandis	145.3	-42.183333	2	1991-11-12	Leaf type	VegClass CBM Global Database	Andy	Gillison	Center for Biodiversity Management	
1254744	4584431	25400	Gahnia grandis	145.3	-42.183333	2	1991-11-12	Plant life form (Raunkiaer life form)	VegClass CBM Global Database	Andy	Gillison	Center for Biodiversity Management	
799221	4584427	25400	Gahnia grandis	145.3	-42.183333	2	1991-11-12	Leaf distribution along the shoot axis (arrangement type)	VegClass CBM Global Database	Andy	Gillison	Center for Biodiversity Management	
799221	4584422	25400	Gahnia grandis	145.3	-42.183333	2	1991-11-12	Leaf angle (inclination, orientation)	VegClass CBM Global Database	Andy	Gillison	Center for Biodiversity Management	
1254743	4584430	25400	Gahnia grandis	145.3	-42.183333	2	1991-11-12	Plant life form (Raunkiaer life form)	VegClass CBM Global Database	Andy	Gillison	Center for Biodiversity Management	
799221	4584426	25400	Gahnia grandis	145.3	-42.183333	2	1991-11-12	Plant life form (Raunkiaer life form)	VegClass CBM Global Database	Andy	Gillison	Center for Biodiversity Management	
2667956	23677196	25793	Gaultheria hispida	146.589347	-42.683857			Bark thickness	Dataset for Rosell 2016 New Phytologist	Julieta	Rosell	Universidad Nacional Autonoma de México	
2668711	23685104	25793	Gaultheria hispida	146.589347	-42.683857			Stem diameter	Dataset for Rosell et al. 2017 New Phytologist	Julieta	Rosell	Universidad Nacional Autonoma de México	
2668711	23685107	25793	Gaultheria hispida	146.589347	-42.683857			Bark thickness (outer bark)	Dataset for Rosell et al. 2017 New Phytologist	Julieta	Rosell	Universidad Nacional Autonoma de México	
2667956	23677195	25793	Gaultheria hispida	146.589347	-42.683857			Stem diameter	Dataset for Rosell 2016 New Phytologist	Julieta	Rosell	Universidad Nacional Autonoma de México	
2668711	23685103	25793	Gaultheria hispida	146.589347	-42.683857			Plant growth form	Dataset for Rosell et al. 2017 New Phytologist	Julieta	Rosell	Universidad Nacional Autonoma de México	
2667956	23677198	25793	Gaultheria hispida	146.589347	-42.683857			Bark thickness (outer bark)	Dataset for Rosell 2016 New Phytologist	Julieta	Rosell	Universidad Nacional Autonoma de México	
2668711	23685106	25793	Gaultheria hispida	146.589347	-42.683857			Bark thickness (inner bark)	Dataset for Rosell et al. 2017 New Phytologist	Julieta	Rosell	Universidad Nacional Autonoma de México	
2668711	23685102	25793	Gaultheria hispida	146.589347	-42.683857			Stem construction type	Dataset for Rosell et al. 2017 New Phytologist	Julieta	Rosell	Universidad Nacional Autonoma de México	
2667956	23677197	25793	Gaultheria hispida	146.589347	-42.683857			Bark thickness (inner bark)	Dataset for Rosell 2016 New Phytologist	Julieta	Rosell	Universidad Nacional Autonoma de México	
2668711	23685105	25793	Gaultheria hispida	146.589347	-42.683857			Bark thickness	Dataset for Rosell et al. 2017 New Phytologist	Julieta	Rosell	Universidad Nacional Autonoma de México	
1727486	12555759	27672	Hakea sericea	147.324722222222	-42.905	60		Xylem hydraulic vulnerability, xylem cavitation vulnerability, embolism vulnerability, (P20, P50, P8	Xylem Functional Traits (XFT) Database	Steven	Jansen	Ulm University	
1727486	12555765	27672	Hakea sericea	147.324722222222	-42.905	60		Wood vestures presence	Xylem Functional Traits (XFT) Database	Steven	Jansen	Ulm University	
1727486	12555754	27672	Hakea sericea	147.324722222222	-42.905	60		Plant growth form	Xylem Functional Traits (XFT) Database	Steven	Jansen	Ulm University	
1727486	12555768	27672	Hakea sericea	147.324722222222	-42.905	60		Stem specific density (SSD) or wood density (stem dry mass per stem fresh volume)	Xylem Functional Traits (XFT) Database	Steven	Jansen	Ulm University	
1727486	12555758	27672	Hakea sericea	147.324722222222	-42.905	60		Xylem hydraulic vulnerability, xylem cavitation vulnerability, embolism vulnerability, (P20, P50, P8	Xylem Functional Traits (XFT) Database	Steven	Jansen	Ulm University	
1727486	12555761	27672	Hakea sericea	147.324722222222	-42.905	60		Xylem hydraulic vulnerability, xylem cavitation vulnerability, embolism vulnerability, (P20, P50, P8	Xylem Functional Traits (XFT) Database	Steven	Jansen	Ulm University	
1727486	12555767	27672	Hakea sericea	147.324722222222	-42.905	60		Wood vessel perforation plates	Xylem Functional Traits (XFT) Database	Steven	Jansen	Ulm University	
1727486	12555757	27672	Hakea sericea	147.324722222222	-42.905	60		Plant height vegetative	Xylem Functional Traits (XFT) Database	Steven	Jansen	Ulm University	
1727486	12555760	27672	Hakea sericea	147.324722222222	-42.905	60		Xylem hydraulic vulnerability, xylem cavitation vulnerability, embolism vulnerability, (P20, P50, P8	Xylem Functional Traits (XFT) Database	Steven	Jansen	Ulm University	
1727486	12555766	27672	Hakea sericea	147.324722222222	-42.905	60		Wood growth ring distinction	Xylem Functional Traits (XFT) Database	Steven	Jansen	Ulm University	
1727486	12555756	27672	Hakea sericea	147.324722222222	-42.905	60		Plant life form (Raunkiaer life form)	Xylem Functional Traits (XFT) Database	Steven	Jansen	Ulm University	
1727486	12555769	27672	Hakea sericea	147.324722222222	-42.905	60		Leaf phenology type	Xylem Functional Traits (XFT) Database	Steven	Jansen	Ulm University	
1728264	12630458	32163	Lagarostrobos franklinii	147.324722222222	-42.905	60		Leaf phenology type	Xylem Functional Traits (XFT) Database	Steven	Jansen	Ulm University	
1728263	12630344	32163	Lagarostrobos franklinii	147.324722222222	-42.905	60		Plant life form (Raunkiaer life form)	Xylem Functional Traits (XFT) Database	Steven	Jansen	Ulm University	
1728263	12630357	32163	Lagarostrobos franklinii	147.324722222222	-42.905	60		Wood vessels surrounded by tracheids (vasicentric tracheids)	Xylem Functional Traits (XFT) Database	Steven	Jansen	Ulm University	
799227	4584640	32163	Lagarostrobos franklinii	145.6	-42.45	0	1991-11-12	Plant woodiness	VegClass CBM Global Database	Andy	Gillison	Center for Biodiversity Management	
1728264	12630448	32163	Lagarostrobos franklinii	147.324722222222	-42.905	60		Xylem hydraulic vulnerability, xylem cavitation vulnerability, embolism vulnerability, (P20, P50, P8	Xylem Functional Traits (XFT) Database	Steven	Jansen	Ulm University	
1728263	12630347	32163	Lagarostrobos franklinii	147.324722222222	-42.905	60		Xylem hydraulic vulnerability, xylem cavitation vulnerability, embolism vulnerability, (P20, P50, P8	Xylem Functional Traits (XFT) Database	Steven	Jansen	Ulm University	
799227	4584614	32163	Lagarostrobos franklinii	145.6	-42.45	0	1991-11-12	Plant functional type (PFT)	VegClass CBM Global Database	Andy	Gillison	Center for Biodiversity Management	
1728264	12630440	32163	Lagarostrobos franklinii	147.324722222222	-42.905	60		Plant growth form	Xylem Functional Traits (XFT) Database	Steven	Jansen	Ulm University	
1728264	12630454	32163	Lagarostrobos franklinii	147.324722222222	-42.905	60		Wood fibre types	Xylem Functional Traits (XFT) Database	Steven	Jansen	Ulm University	
1728263	12630353	32163	Lagarostrobos franklinii	147.324722222222	-42.905	60		Leaf area-specific conductivity (leaf specific conductivity)	Xylem Functional Traits (XFT) Database	Steven	Jansen	Ulm University	
799227	4584636	32163	Lagarostrobos franklinii	145.6	-42.45	0	1991-11-12	Leaf type	VegClass CBM Global Database	Andy	Gillison	Center for Biodiversity Management	
1728264	12630444	32163	Lagarostrobos franklinii	147.324722222222	-42.905	60		Plant height vegetative	Xylem Functional Traits (XFT) Database	Steven	Jansen	Ulm University	
1728264	12630457	32163	Lagarostrobos franklinii	147.324722222222	-42.905	60		Stem specific density (SSD) or wood density (stem dry mass per stem fresh volume)	Xylem Functional Traits (XFT) Database	Steven	Jansen	Ulm University	
1728263	12630342	32163	Lagarostrobos franklinii	147.324722222222	-42.905	60		Plant growth form	Xylem Functional Traits (XFT) Database	Steven	Jansen	Ulm University	
1728263	12630356	32163	Lagarostrobos franklinii	147.324722222222	-42.905	60		Wood fibre types	Xylem Functional Traits (XFT) Database	Steven	Jansen	Ulm University	
799227	4584639	32163	Lagarostrobos franklinii	145.6	-42.45	0	1991-11-12	Plant morphological adaptations: root metamorphoses	VegClass CBM Global Database	Andy	Gillison	Center for Biodiversity Management	
1728264	12630447	32163	Lagarostrobos franklinii	147.324722222222	-42.905	60		Xylem hydraulic vulnerability, xylem cavitation vulnerability, embolism vulnerability, (P20, P50, P8	Xylem Functional Traits (XFT) Database	Steven	Jansen	Ulm University	
1728263	12630346	32163	Lagarostrobos franklinii	147.324722222222	-42.905	60		Xylem hydraulic vulnerability, xylem cavitation vulnerability, embolism vulnerability, (P20, P50, P8	Xylem Functional Traits (XFT) Database	Steven	Jansen	Ulm University	
1728263	12630359	32163	Lagarostrobos franklinii	147.324722222222	-42.905	60		Leaf phenology type	Xylem Functional Traits (XFT) Database	Steven	Jansen	Ulm University	
1728264	12630453	32163	Lagarostrobos franklinii	147.324722222222	-42.905	60		Wood vessel perforation plates	Xylem Functional Traits (XFT) Database	Steven	Jansen	Ulm University	
1221550	4584635	32163	Lagarostrobos franklinii	145.6	-42.45	0	1991-11-12	Leaf angle (inclination, orientation)	VegClass CBM Global Database	Andy	Gillison	Center for Biodiversity Management	
1728263	12630352	32163	Lagarostrobos franklinii	147.324722222222	-42.905	60		Wood (sapwood) specific conductivity (stem specific conductivity)	Xylem Functional Traits (XFT) Database	Steven	Jansen	Ulm University	
799227	4584634	32163	Lagarostrobos franklinii	145.6	-42.45	0	1991-11-12	Leaf angle (inclination, orientation)	VegClass CBM Global Database	Andy	Gillison	Center for Biodiversity Management	
1728264	12630443	32163	Lagarostrobos franklinii	147.324722222222	-42.905	60		Plant height vegetative	Xylem Functional Traits (XFT) Database	Steven	Jansen	Ulm University	
1254754	4584641	32163	Lagarostrobos franklinii	145.6	-42.45	0	1991-11-12	Plant life form (Raunkiaer life form)	VegClass CBM Global Database	Andy	Gillison	Center for Biodiversity Management	
1728264	12630456	32163	Lagarostrobos franklinii	147.324722222222	-42.905	60		Wood vessel grouping	Xylem Functional Traits (XFT) Database	Steven	Jansen	Ulm University	
1728263	12630355	32163	Lagarostrobos franklinii	147.324722222222	-42.905	60		Wood vessel perforation plates	Xylem Functional Traits (XFT) Database	Steven	Jansen	Ulm University	
799227	4584638	32163	Lagarostrobos franklinii	145.6	-42.45	0	1991-11-12	Plant life form (Raunkiaer life form)	VegClass CBM Global Database	Andy	Gillison	Center for Biodiversity Management	
1728264	12630446	32163	Lagarostrobos franklinii	147.324722222222	-42.905	60		Xylem hydraulic vulnerability, xylem cavitation vulnerability, embolism vulnerability, (P20, P50, P8	Xylem Functional Traits (XFT) Database	Steven	Jansen	Ulm University	
1728263	12630345	32163	Lagarostrobos franklinii	147.324722222222	-42.905	60		Xylem hydraulic vulnerability, xylem cavitation vulnerability, embolism vulnerability, (P20, P50, P8	Xylem Functional Traits (XFT) Database	Steven	Jansen	Ulm University	
1728263	12630358	32163	Lagarostrobos franklinii	147.324722222222	-42.905	60		Wood vessel grouping	Xylem Functional Traits (XFT) Database	Steven	Jansen	Ulm University	
1728264	12630452	32163	Lagarostrobos franklinii	147.324722222222	-42.905	60		Wood growth ring distinction	Xylem Functional Traits (XFT) Database	Steven	Jansen	Ulm University	
1728263	12630348	32163	Lagarostrobos franklinii	147.324722222222	-42.905	60		Xylem hydraulic vulnerability, xylem cavitation vulnerability, embolism vulnerability, (P20, P50, P8	Xylem Functional Traits (XFT) Database	Steven	Jansen	Ulm University	
799227	4584632	32163	Lagarostrobos franklinii	145.6	-42.45	0	1991-11-12	Leaf area (in case of compound leaves: leaflet, undefined if petiole is in- or excluded)	VegClass CBM Global Database	Andy	Gillison	Center for Biodiversity Management	
1728264	12630442	32163	Lagarostrobos franklinii	147.324722222222	-42.905	60		Plant life form (Raunkiaer life form)	Xylem Functional Traits (XFT) Database	Steven	Jansen	Ulm University	
1728264	12630455	32163	Lagarostrobos franklinii	147.324722222222	-42.905	60		Wood vessels surrounded by tracheids (vasicentric tracheids)	Xylem Functional Traits (XFT) Database	Steven	Jansen	Ulm University	
1728263	12630354	32163	Lagarostrobos franklinii	147.324722222222	-42.905	60		Wood growth ring distinction	Xylem Functional Traits (XFT) Database	Steven	Jansen	Ulm University	
799227	4584637	32163	Lagarostrobos franklinii	145.6	-42.45	0	1991-11-12	Leaf phenology type	VegClass CBM Global Database	Andy	Gillison	Center for Biodiversity Management	
1728264	12630445	32163	Lagarostrobos franklinii	147.324722222222	-42.905	60		Xylem hydraulic vulnerability, xylem cavitation vulnerability, embolism vulnerability, (P20, P50, P8	Xylem Functional Traits (XFT) Database	Steven	Jansen	Ulm University	
2668807	23686232	32871	Leptecophylla juniperina	146.589347	-42.683857			Stem construction type	Dataset for Rosell et al. 2017 New Phytologist	Julieta	Rosell	Universidad Nacional Autonoma de México	
2668807	23686235	32871	Leptecophylla juniperina	146.589347	-42.683857			Bark thickness	Dataset for Rosell et al. 2017 New Phytologist	Julieta	Rosell	Universidad Nacional Autonoma de México	
2668017	23677728	32871	Leptecophylla juniperina	146.589347	-42.683857			Stem diameter	Dataset for Rosell 2016 New Phytologist	Julieta	Rosell	Universidad Nacional Autonoma de México	
2668017	23677731	32871	Leptecophylla juniperina	146.589347	-42.683857			Bark thickness (outer bark)	Dataset for Rosell 2016 New Phytologist	Julieta	Rosell	Universidad Nacional Autonoma de México	
2668807	23686234	32871	Leptecophylla juniperina	146.589347	-42.683857			Stem diameter	Dataset for Rosell et al. 2017 New Phytologist	Julieta	Rosell	Universidad Nacional Autonoma de México	
2668807	23686237	32871	Leptecophylla juniperina	146.589347	-42.683857			Bark thickness (outer bark)	Dataset for Rosell et al. 2017 New Phytologist	Julieta	Rosell	Universidad Nacional Autonoma de México	
2668017	23677730	32871	Leptecophylla juniperina	146.589347	-42.683857			Bark thickness (inner bark)	Dataset for Rosell 2016 New Phytologist	Julieta	Rosell	Universidad Nacional Autonoma de México	
2668807	23686233	32871	Leptecophylla juniperina	146.589347	-42.683857			Plant growth form	Dataset for Rosell et al. 2017 New Phytologist	Julieta	Rosell	Universidad Nacional Autonoma de México	
2668807	23686236	32871	Leptecophylla juniperina	146.589347	-42.683857			Bark thickness (inner bark)	Dataset for Rosell et al. 2017 New Phytologist	Julieta	Rosell	Universidad Nacional Autonoma de México	
2668017	23677729	32871	Leptecophylla juniperina	146.589347	-42.683857			Bark thickness	Dataset for Rosell 2016 New Phytologist	Julieta	Rosell	Universidad Nacional Autonoma de México	
799217	4584277	237493	Leptospermum	145.3	-42.183333	2	1991-11-12	Leaf type	VegClass CBM Global Database	Andy	Gillison	Center for Biodiversity Management	
799217	4584280	237493	Leptospermum	145.3	-42.183333	2	1991-11-12	Plant woodiness	VegClass CBM Global Database	Andy	Gillison	Center for Biodiversity Management	
799217	4584276	237493	Leptospermum	145.3	-42.183333	2	1991-11-12	Leaf angle (inclination, orientation)	VegClass CBM Global Database	Andy	Gillison	Center for Biodiversity Management	
799217	4584279	237493	Leptospermum	145.3	-42.183333	2	1991-11-12	Plant life form (Raunkiaer life form)	VegClass CBM Global Database	Andy	Gillison	Center for Biodiversity Management	
1221540	4584275	237493	Leptospermum	145.3	-42.183333	2	1991-11-12	Leaf angle (inclination, orientation)	VegClass CBM Global Database	Andy	Gillison	Center for Biodiversity Management	
799217	4584272	237493	Leptospermum	145.3	-42.183333	2	1991-11-12	Leaf area (in case of compound leaves: leaflet, undefined if petiole is in- or excluded)	VegClass CBM Global Database	Andy	Gillison	Center for Biodiversity Management	
799217	4584278	237493	Leptospermum	145.3	-42.183333	2	1991-11-12	Leaf phenology type	VegClass CBM Global Database	Andy	Gillison	Center for Biodiversity Management	
799217	4584250	237493	Leptospermum	145.3	-42.183333	2	1991-11-12	Plant functional type (PFT)	VegClass CBM Global Database	Andy	Gillison	Center for Biodiversity Management	
1254736	4584281	237493	Leptospermum	145.3	-42.183333	2	1991-11-12	Plant life form (Raunkiaer life form)	VegClass CBM Global Database	Andy	Gillison	Center for Biodiversity Management	
4523759	50625277	32958	Leptospermum glaucescens	147.2	-43			Leaf area-specific conductivity (leaf specific conductivity)	Plant Hydraulic Traits	Stefano	Manzoni	Stockholm University	
4523759	50625285	32958	Leptospermum glaucescens	147.2	-43			Leaf phenology type	Plant Hydraulic Traits	Stefano	Manzoni	Stockholm University	
4523759	50625284	32958	Leptospermum glaucescens	147.2	-43			Plant woodiness	Plant Hydraulic Traits	Stefano	Manzoni	Stockholm University	
4523759	50625278	32958	Leptospermum glaucescens	147.2	-43			Wood (sapwood) specific conductivity (stem specific conductivity)	Plant Hydraulic Traits	Stefano	Manzoni	Stockholm University	
2460939	20010854	32964	Leptospermum lanigerum	146.7242	-43.0951	88		Leaf photosynthesis rate per leaf area	Global Respiration Database	Owen	Atkin	Australian National University	
2460939	20010868	32964	Leptospermum lanigerum	146.7242	-43.0951	88		Leaf respiration rate in the dark per leaf dry mass	Global Respiration Database	Owen	Atkin	Australian National University	
2460939	20010878	32964	Leptospermum lanigerum	146.7242	-43.0951	88		Leaf photosynthesis carboxylation capacity (Vcmax) per leaf area (Farquhar model)	Global Respiration Database	Owen	Atkin	Australian National University	
2460939	20010858	32964	Leptospermum lanigerum	146.7242	-43.0951	88		Leaf respiration rate in the dark per leaf area	Global Respiration Database	Owen	Atkin	Australian National University	
2391664	19733448	32964	Leptospermum lanigerum	147.2353	-42.8964	1271		Plant woodiness	Global leaf size dataset	Ian	Wright	Macquarie University	
2460939	20010871	32964	Leptospermum lanigerum	146.7242	-43.0951	88		Leaf respiration rate in the dark per leaf area	Global Respiration Database	Owen	Atkin	Australian National University	
2460939	20010848	32964	Leptospermum lanigerum	146.7242	-43.0951	88		Plant functional type (PFT)	Global Respiration Database	Owen	Atkin	Australian National University	
2460939	20010881	32964	Leptospermum lanigerum	146.7242	-43.0951	88		Leaf respiration rate in the dark as fraction of photosynthetic carboxylation capacity (Vcmax)	Global Respiration Database	Owen	Atkin	Australian National University	
2460939	20010864	32964	Leptospermum lanigerum	146.7242	-43.0951	88		Leaf respiration rate in the dark per leaf area	Global Respiration Database	Owen	Atkin	Australian National University	
2391664	19733451	32964	Leptospermum lanigerum	147.2353	-42.8964	1271		Leaf area (in case of compound leaves: leaflet, undefined if petiole is in- or excluded)	Global leaf size dataset	Ian	Wright	Macquarie University	
2460939	20010874	32964	Leptospermum lanigerum	146.7242	-43.0951	88		Leaf phosphorus (P) content per leaf dry mass	Global Respiration Database	Owen	Atkin	Australian National University	
2460939	20010851	32964	Leptospermum lanigerum	146.7242	-43.0951	88		Plant functional type (PFT)	Global Respiration Database	Owen	Atkin	Australian National University	
2460939	50949700	32964	Leptospermum lanigerum	146.7242	-43.0951	88		Stomata conductance per leaf dry mass	Global Respiration Database	Owen	Atkin	Australian National University	
2460939	20010867	32964	Leptospermum lanigerum	146.7242	-43.0951	88		Leaf respiration rate in the dark per leaf area	Global Respiration Database	Owen	Atkin	Australian National University	
2460939	20010877	32964	Leptospermum lanigerum	146.7242	-43.0951	88		Leaf area per leaf dry mass (specific leaf area, SLA or 1/LMA): petiole included	Global Respiration Database	Owen	Atkin	Australian National University	
2460939	20010856	32964	Leptospermum lanigerum	146.7242	-43.0951	88		Leaf photosynthesis: intercellular CO2 concentration	Global Respiration Database	Owen	Atkin	Australian National University	
2391664	19733447	32964	Leptospermum lanigerum	147.2353	-42.8964	1271		Plant growth form	Global leaf size dataset	Ian	Wright	Macquarie University	
2460939	20010870	32964	Leptospermum lanigerum	146.7242	-43.0951	88		Leaf respiration rate in the dark per leaf dry mass	Global Respiration Database	Owen	Atkin	Australian National University	
2460939	20010880	32964	Leptospermum lanigerum	146.7242	-43.0951	88		Leaf photosynthesis carboxylation capacity (Vcmax) per leaf dry mass (Farquhar model)	Global Respiration Database	Owen	Atkin	Australian National University	
2460939	20010847	32964	Leptospermum lanigerum	146.7242	-43.0951	88		Plant functional type (PFT)	Global Respiration Database	Owen	Atkin	Australian National University	
2460939	20010861	32964	Leptospermum lanigerum	146.7242	-43.0951	88		Leaf respiration rate in the dark per leaf dry mass	Global Respiration Database	Owen	Atkin	Australian National University	
2391664	19733450	32964	Leptospermum lanigerum	147.2353	-42.8964	1271		Leaf compoundness	Global leaf size dataset	Ian	Wright	Macquarie University	
2460939	20010873	32964	Leptospermum lanigerum	146.7242	-43.0951	88		Leaf nitrogen (N) content per leaf dry mass	Global Respiration Database	Owen	Atkin	Australian National University	
2460939	20010850	32964	Leptospermum lanigerum	146.7242	-43.0951	88		Plant functional type (PFT)	Global Respiration Database	Owen	Atkin	Australian National University	
2460939	50885653	32964	Leptospermum lanigerum	146.7242	-43.0951	88		Leaf photosynthesis carboxylation capacity (Vcmax) per leaf dry mass (Farquhar model)	Global Respiration Database	Owen	Atkin	Australian National University	
2460939	20010866	32964	Leptospermum lanigerum	146.7242	-43.0951	88		Leaf respiration rate in the dark per leaf area	Global Respiration Database	Owen	Atkin	Australian National University	
2391664	19733456	32964	Leptospermum lanigerum	147.2353	-42.8964	1271		Leaflet number per leaf	Global leaf size dataset	Ian	Wright	Macquarie University	
2460939	20010876	32964	Leptospermum lanigerum	146.7242	-43.0951	88		Leaf phosphorus (P) content per leaf area	Global Respiration Database	Owen	Atkin	Australian National University	
2460939	20010855	32964	Leptospermum lanigerum	146.7242	-43.0951	88		Stomata conductance per leaf area	Global Respiration Database	Owen	Atkin	Australian National University	
2460939	20010869	32964	Leptospermum lanigerum	146.7242	-43.0951	88		Leaf respiration rate in the dark per leaf area	Global Respiration Database	Owen	Atkin	Australian National University	
2460939	20010879	32964	Leptospermum lanigerum	146.7242	-43.0951	88		Leaf photosynthesis carboxylation capacity (Vcmax) per leaf area (Farquhar model)	Global Respiration Database	Owen	Atkin	Australian National University	
2460939	20010846	32964	Leptospermum lanigerum	146.7242	-43.0951	88		Plant functional type (PFT)	Global Respiration Database	Owen	Atkin	Australian National University	
2460939	20010860	32964	Leptospermum lanigerum	146.7242	-43.0951	88		Leaf photosynthesis rate per leaf dry mass	Global Respiration Database	Owen	Atkin	Australian National University	
2391664	19733449	32964	Leptospermum lanigerum	147.2353	-42.8964	1271		Leaf phenology type	Global leaf size dataset	Ian	Wright	Macquarie University	
2460939	20010872	32964	Leptospermum lanigerum	146.7242	-43.0951	88		Leaf respiration rate in the dark per leaf dry mass	Global Respiration Database	Owen	Atkin	Australian National University	
2460939	20010849	32964	Leptospermum lanigerum	146.7242	-43.0951	88		Plant functional type (PFT)	Global Respiration Database	Owen	Atkin	Australian National University	
2460939	20010882	32964	Leptospermum lanigerum	146.7242	-43.0951	88		Leaf respiration rate in the dark as fraction of photosynthetic carboxylation capacity (Vcmax)	Global Respiration Database	Owen	Atkin	Australian National University	
2460939	20010865	32964	Leptospermum lanigerum	146.7242	-43.0951	88		Leaf respiration rate in the dark per leaf dry mass	Global Respiration Database	Owen	Atkin	Australian National University	
2391664	19733452	32964	Leptospermum lanigerum	147.2353	-42.8964	1271		Leaf area (in case of compound leaves: leaf, undefined if petiole in- or excluded)	Global leaf size dataset	Ian	Wright	Macquarie University	
2460939	20010875	32964	Leptospermum lanigerum	146.7242	-43.0951	88		Leaf nitrogen (N) content per leaf area	Global Respiration Database	Owen	Atkin	Australian National University	
3037623	50935629	32982	Leptospermum rupestre	147.23584	-42.8945	1252		Leaf chlorophyll content per leaf area	The Global Leaf Traits	Serge	Sheremetev	Komarov Botanical Institute	
3037623	30558286	32982	Leptospermum rupestre	147.23584	-42.8945	1252		Plant growth form	The Global Leaf Traits	Serge	Sheremetev	Komarov Botanical Institute	
3037623	30558296	32982	Leptospermum rupestre	147.23584	-42.8945	1252		Leaf carbon (C) content per leaf dry mass	The Global Leaf Traits	Serge	Sheremetev	Komarov Botanical Institute	
2391665	19733463	32982	Leptospermum rupestre	147.2353	-42.8964	1271		Plant woodiness	Global leaf size dataset	Ian	Wright	Macquarie University	
3037623	30558289	32982	Leptospermum rupestre	147.23584	-42.8945	1252		Leaf chlorophyll content per leaf dry mass	The Global Leaf Traits	Serge	Sheremetev	Komarov Botanical Institute	
3037623	30558299	32982	Leptospermum rupestre	147.23584	-42.8945	1252		Leaf carbon/nitrogen (C/N) ratio	The Global Leaf Traits	Serge	Sheremetev	Komarov Botanical Institute	
2391665	19733466	32982	Leptospermum rupestre	147.2353	-42.8964	1271		Leaf area (in case of compound leaves: leaflet, undefined if petiole is in- or excluded)	Global leaf size dataset	Ian	Wright	Macquarie University	
3037623	30558292	32982	Leptospermum rupestre	147.23584	-42.8945	1252		Leaf thickness	The Global Leaf Traits	Serge	Sheremetev	Komarov Botanical Institute	
3037623	50912355	32982	Leptospermum rupestre	147.23584	-42.8945	1252		Leaf carbon (C) content per leaf area	The Global Leaf Traits	Serge	Sheremetev	Komarov Botanical Institute	
3037623	30558285	32982	Leptospermum rupestre	147.23584	-42.8945	1252		Plant growth form	The Global Leaf Traits	Serge	Sheremetev	Komarov Botanical Institute	
3037623	30558295	32982	Leptospermum rupestre	147.23584	-42.8945	1252		Leaf density (leaf tissue density, leaf dry mass per leaf volume)	The Global Leaf Traits	Serge	Sheremetev	Komarov Botanical Institute	
2391665	19733462	32982	Leptospermum rupestre	147.2353	-42.8964	1271		Plant growth form	Global leaf size dataset	Ian	Wright	Macquarie University	
3037623	30558288	32982	Leptospermum rupestre	147.23584	-42.8945	1252		Leaf chlorophyll content per leaf dry mass (Chl b)	The Global Leaf Traits	Serge	Sheremetev	Komarov Botanical Institute	
3037623	30558298	32982	Leptospermum rupestre	147.23584	-42.8945	1252		Leaf phosphorus (P) content per leaf dry mass	The Global Leaf Traits	Serge	Sheremetev	Komarov Botanical Institute	
2391665	19733465	32982	Leptospermum rupestre	147.2353	-42.8964	1271		Leaf compoundness	Global leaf size dataset	Ian	Wright	Macquarie University	
3037623	30558291	32982	Leptospermum rupestre	147.23584	-42.8945	1252		Leaf carotenoid content per leaf dry mass	The Global Leaf Traits	Serge	Sheremetev	Komarov Botanical Institute	
3037623	50865334	32982	Leptospermum rupestre	147.23584	-42.8945	1252		Leaf phosphorus (P) content per leaf area	The Global Leaf Traits	Serge	Sheremetev	Komarov Botanical Institute	
2391665	19733471	32982	Leptospermum rupestre	147.2353	-42.8964	1271		Leaflet number per leaf	Global leaf size dataset	Ian	Wright	Macquarie University	
3037623	30558294	32982	Leptospermum rupestre	147.23584	-42.8945	1252		Stomata density	The Global Leaf Traits	Serge	Sheremetev	Komarov Botanical Institute	
3037623	30558287	32982	Leptospermum rupestre	147.23584	-42.8945	1252		Leaf chlorophyll content per leaf dry mass (Chl a)	The Global Leaf Traits	Serge	Sheremetev	Komarov Botanical Institute	
3037623	30558297	32982	Leptospermum rupestre	147.23584	-42.8945	1252		Leaf nitrogen (N) content per leaf dry mass	The Global Leaf Traits	Serge	Sheremetev	Komarov Botanical Institute	
2391665	19733464	32982	Leptospermum rupestre	147.2353	-42.8964	1271		Leaf phenology type	Global leaf size dataset	Ian	Wright	Macquarie University	
3037623	30558290	32982	Leptospermum rupestre	147.23584	-42.8945	1252		Leaf chlorophyll a/b ratio	The Global Leaf Traits	Serge	Sheremetev	Komarov Botanical Institute	
3037623	50836200	32982	Leptospermum rupestre	147.23584	-42.8945	1252		Leaf nitrogen (N) content per leaf area	The Global Leaf Traits	Serge	Sheremetev	Komarov Botanical Institute	
2391665	19733467	32982	Leptospermum rupestre	147.2353	-42.8964	1271		Leaf area (in case of compound leaves: leaf, undefined if petiole in- or excluded)	Global leaf size dataset	Ian	Wright	Macquarie University	
3037623	30558293	32982	Leptospermum rupestre	147.23584	-42.8945	1252		Leaf area per leaf dry mass (specific leaf area, SLA or 1/LMA): undefined if petiole is in- or exclu	The Global Leaf Traits	Serge	Sheremetev	Komarov Botanical Institute	
4523760	50625296	32984	Leptospermum scoparium	147.2	-43			Leaf phenology type	Plant Hydraulic Traits	Stefano	Manzoni	Stockholm University	
4523760	50625295	32984	Leptospermum scoparium	147.2	-43			Plant woodiness	Plant Hydraulic Traits	Stefano	Manzoni	Stockholm University	
4523760	50625289	32984	Leptospermum scoparium	147.2	-43			Wood (sapwood) specific conductivity (stem specific conductivity)	Plant Hydraulic Traits	Stefano	Manzoni	Stockholm University	
4523760	50625288	32984	Leptospermum scoparium	147.2	-43			Leaf area-specific conductivity (leaf specific conductivity)	Plant Hydraulic Traits	Stefano	Manzoni	Stockholm University	
2668809	23686260	33183	Leucopogon ericoides	147	-42.4			Bark thickness (inner bark)	Dataset for Rosell et al. 2017 New Phytologist	Julieta	Rosell	Universidad Nacional Autonoma de México	
2668019	23677746	33183	Leucopogon ericoides	147	-42.4			Stem diameter	Dataset for Rosell 2016 New Phytologist	Julieta	Rosell	Universidad Nacional Autonoma de México	
2668019	23677749	33183	Leucopogon ericoides	147	-42.4			Bark thickness (outer bark)	Dataset for Rosell 2016 New Phytologist	Julieta	Rosell	Universidad Nacional Autonoma de México	
4523777	50625482	33183	Leucopogon ericoides	147	-42.4			Plant woodiness	Plant Hydraulic Traits	Stefano	Manzoni	Stockholm University	
4523761	50625306	33183	Leucopogon ericoides	147.2	-43			Plant woodiness	Plant Hydraulic Traits	Stefano	Manzoni	Stockholm University	
2668809	23686256	33183	Leucopogon ericoides	147	-42.4			Stem construction type	Dataset for Rosell et al. 2017 New Phytologist	Julieta	Rosell	Universidad Nacional Autonoma de México	
2668809	23686259	33183	Leucopogon ericoides	147	-42.4			Bark thickness	Dataset for Rosell et al. 2017 New Phytologist	Julieta	Rosell	Universidad Nacional Autonoma de México	
2668019	23677748	33183	Leucopogon ericoides	147	-42.4			Bark thickness (inner bark)	Dataset for Rosell 2016 New Phytologist	Julieta	Rosell	Universidad Nacional Autonoma de México	
4523777	50625476	33183	Leucopogon ericoides	147	-42.4			Wood (sapwood) specific conductivity (stem specific conductivity)	Plant Hydraulic Traits	Stefano	Manzoni	Stockholm University	
4523761	50625300	33183	Leucopogon ericoides	147.2	-43			Wood (sapwood) specific conductivity (stem specific conductivity)	Plant Hydraulic Traits	Stefano	Manzoni	Stockholm University	
2668809	23686258	33183	Leucopogon ericoides	147	-42.4			Stem diameter	Dataset for Rosell et al. 2017 New Phytologist	Julieta	Rosell	Universidad Nacional Autonoma de México	
2668809	23686261	33183	Leucopogon ericoides	147	-42.4			Bark thickness (outer bark)	Dataset for Rosell et al. 2017 New Phytologist	Julieta	Rosell	Universidad Nacional Autonoma de México	
2668019	23677747	33183	Leucopogon ericoides	147	-42.4			Bark thickness	Dataset for Rosell 2016 New Phytologist	Julieta	Rosell	Universidad Nacional Autonoma de México	
4523777	50625475	33183	Leucopogon ericoides	147	-42.4			Leaf area-specific conductivity (leaf specific conductivity)	Plant Hydraulic Traits	Stefano	Manzoni	Stockholm University	
4523761	50625299	33183	Leucopogon ericoides	147.2	-43			Leaf area-specific conductivity (leaf specific conductivity)	Plant Hydraulic Traits	Stefano	Manzoni	Stockholm University	
4523777	50625483	33183	Leucopogon ericoides	147	-42.4			Leaf phenology type	Plant Hydraulic Traits	Stefano	Manzoni	Stockholm University	
4523761	50625307	33183	Leucopogon ericoides	147.2	-43			Leaf phenology type	Plant Hydraulic Traits	Stefano	Manzoni	Stockholm University	
2668809	23686257	33183	Leucopogon ericoides	147	-42.4			Plant growth form	Dataset for Rosell et al. 2017 New Phytologist	Julieta	Rosell	Universidad Nacional Autonoma de México	
4523778	50625493	33209	Leucopogon virgatus	147	-42.4			Leaf phenology type	Plant Hydraulic Traits	Stefano	Manzoni	Stockholm University	
4523778	50625492	33209	Leucopogon virgatus	147	-42.4			Plant woodiness	Plant Hydraulic Traits	Stefano	Manzoni	Stockholm University	
4523778	50625486	33209	Leucopogon virgatus	147	-42.4			Wood (sapwood) specific conductivity (stem specific conductivity)	Plant Hydraulic Traits	Stefano	Manzoni	Stockholm University	
1727572	12563971	88976	Lomatia tinctoria	147.324722222222	-42.905	60		Plant height vegetative	Xylem Functional Traits (XFT) Database	Steven	Jansen	Ulm University	
1727572	12563984	88976	Lomatia tinctoria	147.324722222222	-42.905	60		Wood vessel grouping	Xylem Functional Traits (XFT) Database	Steven	Jansen	Ulm University	
1727572	12563974	88976	Lomatia tinctoria	147.324722222222	-42.905	60		Xylem hydraulic vulnerability, xylem cavitation vulnerability, embolism vulnerability, (P20, P50, P8	Xylem Functional Traits (XFT) Database	Steven	Jansen	Ulm University	
1727572	12563980	88976	Lomatia tinctoria	147.324722222222	-42.905	60		Wood growth ring distinction	Xylem Functional Traits (XFT) Database	Steven	Jansen	Ulm University	
1393470	10186947	88976	Lomatia tinctoria	147.3247	-42.905	60		Xylem hydraulic vulnerability, xylem cavitation vulnerability, embolism vulnerability, (P20, P50, P8	Xylem Functional Traits (XFT) Database: Nature Subset	Steven	Jansen	Ulm University	
1727572	12563970	88976	Lomatia tinctoria	147.324722222222	-42.905	60		Plant life form (Raunkiaer life form)	Xylem Functional Traits (XFT) Database	Steven	Jansen	Ulm University	
1727572	12563983	88976	Lomatia tinctoria	147.324722222222	-42.905	60		Wood vessels surrounded by tracheids (vasicentric tracheids)	Xylem Functional Traits (XFT) Database	Steven	Jansen	Ulm University	
1727572	12563973	88976	Lomatia tinctoria	147.324722222222	-42.905	60		Xylem hydraulic vulnerability, xylem cavitation vulnerability, embolism vulnerability, (P20, P50, P8	Xylem Functional Traits (XFT) Database	Steven	Jansen	Ulm University	
1727572	12563986	88976	Lomatia tinctoria	147.324722222222	-42.905	60		Leaf phenology type	Xylem Functional Traits (XFT) Database	Steven	Jansen	Ulm University	
1727572	12563979	88976	Lomatia tinctoria	147.324722222222	-42.905	60		Wood vestures presence	Xylem Functional Traits (XFT) Database	Steven	Jansen	Ulm University	
1727572	12563968	88976	Lomatia tinctoria	147.324722222222	-42.905	60		Plant growth form	Xylem Functional Traits (XFT) Database	Steven	Jansen	Ulm University	
1727572	12563982	88976	Lomatia tinctoria	147.324722222222	-42.905	60		Wood fibre types	Xylem Functional Traits (XFT) Database	Steven	Jansen	Ulm University	
1727572	12563972	88976	Lomatia tinctoria	147.324722222222	-42.905	60		Xylem hydraulic vulnerability, xylem cavitation vulnerability, embolism vulnerability, (P20, P50, P8	Xylem Functional Traits (XFT) Database	Steven	Jansen	Ulm University	
1727572	12563985	88976	Lomatia tinctoria	147.324722222222	-42.905	60		Stem specific density (SSD) or wood density (stem dry mass per stem fresh volume)	Xylem Functional Traits (XFT) Database	Steven	Jansen	Ulm University	
1727572	12563975	88976	Lomatia tinctoria	147.324722222222	-42.905	60		Xylem hydraulic vulnerability, xylem cavitation vulnerability, embolism vulnerability, (P20, P50, P8	Xylem Functional Traits (XFT) Database	Steven	Jansen	Ulm University	
1727572	12563981	88976	Lomatia tinctoria	147.324722222222	-42.905	60		Wood vessel perforation plates	Xylem Functional Traits (XFT) Database	Steven	Jansen	Ulm University	
1393470	10186953	88976	Lomatia tinctoria	147.3247	-42.905	60		Plant growth form	Xylem Functional Traits (XFT) Database: Nature Subset	Steven	Jansen	Ulm University	
3037631	30558967	35924	Melaleuca gibbosa	147.53851	-42.98477	85		Leaf thickness	The Global Leaf Traits	Serge	Sheremetev	Komarov Botanical Institute	
3037631	30558960	35924	Melaleuca gibbosa	147.53851	-42.98477	85		Plant growth form	The Global Leaf Traits	Serge	Sheremetev	Komarov Botanical Institute	
3037631	50912363	35924	Melaleuca gibbosa	147.53851	-42.98477	85		Leaf carbon (C) content per leaf area	The Global Leaf Traits	Serge	Sheremetev	Komarov Botanical Institute	
3037631	30558970	35924	Melaleuca gibbosa	147.53851	-42.98477	85		Leaf carbon (C) content per leaf dry mass	The Global Leaf Traits	Serge	Sheremetev	Komarov Botanical Institute	
3037631	30558963	35924	Melaleuca gibbosa	147.53851	-42.98477	85		Leaf chlorophyll content per leaf dry mass (Chl b)	The Global Leaf Traits	Serge	Sheremetev	Komarov Botanical Institute	
3037631	30558973	35924	Melaleuca gibbosa	147.53851	-42.98477	85		Leaf carbon/nitrogen (C/N) ratio	The Global Leaf Traits	Serge	Sheremetev	Komarov Botanical Institute	
3037631	30558966	35924	Melaleuca gibbosa	147.53851	-42.98477	85		Leaf carotenoid content per leaf dry mass	The Global Leaf Traits	Serge	Sheremetev	Komarov Botanical Institute	
3037631	30558959	35924	Melaleuca gibbosa	147.53851	-42.98477	85		Species genotype: chromosome cDNA content	The Global Leaf Traits	Serge	Sheremetev	Komarov Botanical Institute	
3037631	30558969	35924	Melaleuca gibbosa	147.53851	-42.98477	85		Leaf density (leaf tissue density, leaf dry mass per leaf volume)	The Global Leaf Traits	Serge	Sheremetev	Komarov Botanical Institute	
3037631	30558962	35924	Melaleuca gibbosa	147.53851	-42.98477	85		Leaf chlorophyll content per leaf dry mass (Chl a)	The Global Leaf Traits	Serge	Sheremetev	Komarov Botanical Institute	
3037631	30558972	35924	Melaleuca gibbosa	147.53851	-42.98477	85		Leaf phosphorus (P) content per leaf dry mass	The Global Leaf Traits	Serge	Sheremetev	Komarov Botanical Institute	
3037631	30558965	35924	Melaleuca gibbosa	147.53851	-42.98477	85		Leaf chlorophyll a/b ratio	The Global Leaf Traits	Serge	Sheremetev	Komarov Botanical Institute	
3037631	50865342	35924	Melaleuca gibbosa	147.53851	-42.98477	85		Leaf phosphorus (P) content per leaf area	The Global Leaf Traits	Serge	Sheremetev	Komarov Botanical Institute	
3037631	30558958	35924	Melaleuca gibbosa	147.53851	-42.98477	85		Species genotype: chromosome number	The Global Leaf Traits	Serge	Sheremetev	Komarov Botanical Institute	
3037631	30558968	35924	Melaleuca gibbosa	147.53851	-42.98477	85		Leaf area per leaf dry mass (specific leaf area, SLA or 1/LMA): undefined if petiole is in- or exclu	The Global Leaf Traits	Serge	Sheremetev	Komarov Botanical Institute	
3037631	30558961	35924	Melaleuca gibbosa	147.53851	-42.98477	85		Plant growth form	The Global Leaf Traits	Serge	Sheremetev	Komarov Botanical Institute	
3037631	50935637	35924	Melaleuca gibbosa	147.53851	-42.98477	85		Leaf chlorophyll content per leaf area	The Global Leaf Traits	Serge	Sheremetev	Komarov Botanical Institute	
3037631	30558971	35924	Melaleuca gibbosa	147.53851	-42.98477	85		Leaf nitrogen (N) content per leaf dry mass	The Global Leaf Traits	Serge	Sheremetev	Komarov Botanical Institute	
3037631	30558964	35924	Melaleuca gibbosa	147.53851	-42.98477	85		Leaf chlorophyll content per leaf dry mass	The Global Leaf Traits	Serge	Sheremetev	Komarov Botanical Institute	
3037631	50836208	35924	Melaleuca gibbosa	147.53851	-42.98477	85		Leaf nitrogen (N) content per leaf area	The Global Leaf Traits	Serge	Sheremetev	Komarov Botanical Institute	
4523762	50625317	35967	Melaleuca squamea	147.2	-43			Plant woodiness	Plant Hydraulic Traits	Stefano	Manzoni	Stockholm University	
4523762	50625311	35967	Melaleuca squamea	147.2	-43			Wood (sapwood) specific conductivity (stem specific conductivity)	Plant Hydraulic Traits	Stefano	Manzoni	Stockholm University	
4523762	50625310	35967	Melaleuca squamea	147.2	-43			Leaf area-specific conductivity (leaf specific conductivity)	Plant Hydraulic Traits	Stefano	Manzoni	Stockholm University	
4523762	50625318	35967	Melaleuca squamea	147.2	-43			Leaf phenology type	Plant Hydraulic Traits	Stefano	Manzoni	Stockholm University	
2460945	20011187	35968	Melaleuca squarrosa	146.6836	-43.0916	257		Leaf respiration rate in the dark per leaf area	Global Respiration Database	Owen	Atkin	Australian National University	
799230	4584727	35968	Melaleuca squarrosa	145.6	-42.45	0	1991-11-12	Leaf area (in case of compound leaves: leaflet, undefined if petiole is in- or excluded)	VegClass CBM Global Database	Andy	Gillison	Center for Biodiversity Management	
2460945	20011197	35968	Melaleuca squarrosa	146.6836	-43.0916	257		Leaf photosynthesis carboxylation capacity (Vcmax) per leaf area (Farquhar model)	Global Respiration Database	Owen	Atkin	Australian National University	
2460945	20011164	35968	Melaleuca squarrosa	146.6836	-43.0916	257		Plant functional type (PFT)	Global Respiration Database	Owen	Atkin	Australian National University	
2460945	20011178	35968	Melaleuca squarrosa	146.6836	-43.0916	257		Leaf photosynthesis rate per leaf dry mass	Global Respiration Database	Owen	Atkin	Australian National University	
2460945	20011190	35968	Melaleuca squarrosa	146.6836	-43.0916	257		Leaf respiration rate in the dark per leaf dry mass	Global Respiration Database	Owen	Atkin	Australian National University	
4523763	50625322	35968	Melaleuca squarrosa	147.2	-43			Wood (sapwood) specific conductivity (stem specific conductivity)	Plant Hydraulic Traits	Stefano	Manzoni	Stockholm University	
799230	4584733	35968	Melaleuca squarrosa	145.6	-42.45	0	1991-11-12	Leaf phenology type	VegClass CBM Global Database	Andy	Gillison	Center for Biodiversity Management	
2460945	20011200	35968	Melaleuca squarrosa	146.6836	-43.0916	257		Leaf respiration rate in the dark as fraction of photosynthetic carboxylation capacity (Vcmax)	Global Respiration Database	Owen	Atkin	Australian National University	
2460945	20011167	35968	Melaleuca squarrosa	146.6836	-43.0916	257		Plant functional type (PFT)	Global Respiration Database	Owen	Atkin	Australian National University	
2460945	20011183	35968	Melaleuca squarrosa	146.6836	-43.0916	257		Leaf respiration rate in the dark per leaf dry mass	Global Respiration Database	Owen	Atkin	Australian National University	
2460945	20011193	35968	Melaleuca squarrosa	146.6836	-43.0916	257		Leaf nitrogen (N) content per leaf area	Global Respiration Database	Owen	Atkin	Australian National University	
2460945	20011172	35968	Melaleuca squarrosa	146.6836	-43.0916	257		Leaf photosynthesis rate per leaf area	Global Respiration Database	Owen	Atkin	Australian National University	
2460945	20011186	35968	Melaleuca squarrosa	146.6836	-43.0916	257		Leaf respiration rate in the dark per leaf dry mass	Global Respiration Database	Owen	Atkin	Australian National University	
799230	4584709	35968	Melaleuca squarrosa	145.6	-42.45	0	1991-11-12	Plant functional type (PFT)	VegClass CBM Global Database	Andy	Gillison	Center for Biodiversity Management	
2460945	20011196	35968	Melaleuca squarrosa	146.6836	-43.0916	257		Leaf photosynthesis carboxylation capacity (Vcmax) per leaf area (Farquhar model)	Global Respiration Database	Owen	Atkin	Australian National University	
2460945	20011176	35968	Melaleuca squarrosa	146.6836	-43.0916	257		Leaf respiration rate in the dark per leaf area	Global Respiration Database	Owen	Atkin	Australian National University	
1254758	4584736	35968	Melaleuca squarrosa	145.6	-42.45	0	1991-11-12	Plant life form (Raunkiaer life form)	VegClass CBM Global Database	Andy	Gillison	Center for Biodiversity Management	
2460945	20011189	35968	Melaleuca squarrosa	146.6836	-43.0916	257		Leaf respiration rate in the dark per leaf area	Global Respiration Database	Owen	Atkin	Australian National University	
4523763	50625321	35968	Melaleuca squarrosa	147.2	-43			Leaf area-specific conductivity (leaf specific conductivity)	Plant Hydraulic Traits	Stefano	Manzoni	Stockholm University	
799230	4584732	35968	Melaleuca squarrosa	145.6	-42.45	0	1991-11-12	Leaf type	VegClass CBM Global Database	Andy	Gillison	Center for Biodiversity Management	
2460945	20011199	35968	Melaleuca squarrosa	146.6836	-43.0916	257		Leaf respiration rate in the dark as fraction of photosynthetic carboxylation capacity (Vcmax)	Global Respiration Database	Owen	Atkin	Australian National University	
2460945	20011166	35968	Melaleuca squarrosa	146.6836	-43.0916	257		Plant functional type (PFT)	Global Respiration Database	Owen	Atkin	Australian National University	
2460945	20011182	35968	Melaleuca squarrosa	146.6836	-43.0916	257		Leaf respiration rate in the dark per leaf area	Global Respiration Database	Owen	Atkin	Australian National University	
2460945	20011192	35968	Melaleuca squarrosa	146.6836	-43.0916	257		Leaf phosphorus (P) content per leaf dry mass	Global Respiration Database	Owen	Atkin	Australian National University	
4523763	50625329	35968	Melaleuca squarrosa	147.2	-43			Leaf phenology type	Plant Hydraulic Traits	Stefano	Manzoni	Stockholm University	
799230	4584735	35968	Melaleuca squarrosa	145.6	-42.45	0	1991-11-12	Plant woodiness	VegClass CBM Global Database	Andy	Gillison	Center for Biodiversity Management	
2460945	50949706	35968	Melaleuca squarrosa	146.6836	-43.0916	257		Stomata conductance per leaf dry mass	Global Respiration Database	Owen	Atkin	Australian National University	
2460945	20011169	35968	Melaleuca squarrosa	146.6836	-43.0916	257		Plant functional type (PFT)	Global Respiration Database	Owen	Atkin	Australian National University	
1221553	4584731	35968	Melaleuca squarrosa	145.6	-42.45	0	1991-11-12	Leaf angle (inclination, orientation)	VegClass CBM Global Database	Andy	Gillison	Center for Biodiversity Management	
2460945	20011185	35968	Melaleuca squarrosa	146.6836	-43.0916	257		Leaf respiration rate in the dark per leaf area	Global Respiration Database	Owen	Atkin	Australian National University	
2460945	20011195	35968	Melaleuca squarrosa	146.6836	-43.0916	257		Leaf area per leaf dry mass (specific leaf area, SLA or 1/LMA): petiole included	Global Respiration Database	Owen	Atkin	Australian National University	
2460945	20011174	35968	Melaleuca squarrosa	146.6836	-43.0916	257		Leaf photosynthesis: intercellular CO2 concentration	Global Respiration Database	Owen	Atkin	Australian National University	
2460945	20011188	35968	Melaleuca squarrosa	146.6836	-43.0916	257		Leaf respiration rate in the dark per leaf dry mass	Global Respiration Database	Owen	Atkin	Australian National University	
799230	4584730	35968	Melaleuca squarrosa	145.6	-42.45	0	1991-11-12	Leaf angle (inclination, orientation)	VegClass CBM Global Database	Andy	Gillison	Center for Biodiversity Management	
2460945	20011198	35968	Melaleuca squarrosa	146.6836	-43.0916	257		Leaf photosynthesis carboxylation capacity (Vcmax) per leaf dry mass (Farquhar model)	Global Respiration Database	Owen	Atkin	Australian National University	
2460945	20011165	35968	Melaleuca squarrosa	146.6836	-43.0916	257		Plant functional type (PFT)	Global Respiration Database	Owen	Atkin	Australian National University	
2460945	20011179	35968	Melaleuca squarrosa	146.6836	-43.0916	257		Leaf respiration rate in the dark per leaf dry mass	Global Respiration Database	Owen	Atkin	Australian National University	
2460945	20011191	35968	Melaleuca squarrosa	146.6836	-43.0916	257		Leaf nitrogen (N) content per leaf dry mass	Global Respiration Database	Owen	Atkin	Australian National University	
4523763	50625328	35968	Melaleuca squarrosa	147.2	-43			Plant woodiness	Plant Hydraulic Traits	Stefano	Manzoni	Stockholm University	
799230	4584734	35968	Melaleuca squarrosa	145.6	-42.45	0	1991-11-12	Plant life form (Raunkiaer life form)	VegClass CBM Global Database	Andy	Gillison	Center for Biodiversity Management	
2460945	50885659	35968	Melaleuca squarrosa	146.6836	-43.0916	257		Leaf photosynthesis carboxylation capacity (Vcmax) per leaf dry mass (Farquhar model)	Global Respiration Database	Owen	Atkin	Australian National University	
2460945	20011168	35968	Melaleuca squarrosa	146.6836	-43.0916	257		Plant functional type (PFT)	Global Respiration Database	Owen	Atkin	Australian National University	
2460945	20011184	35968	Melaleuca squarrosa	146.6836	-43.0916	257		Leaf respiration rate in the dark per leaf area	Global Respiration Database	Owen	Atkin	Australian National University	
2460945	20011194	35968	Melaleuca squarrosa	146.6836	-43.0916	257		Leaf phosphorus (P) content per leaf area	Global Respiration Database	Owen	Atkin	Australian National University	
2460945	20011173	35968	Melaleuca squarrosa	146.6836	-43.0916	257		Stomata conductance per leaf area	Global Respiration Database	Owen	Atkin	Australian National University	
2668863	23686889	36598	Microcachrys tetragona	146.589347	-42.683857			Plant growth form	Dataset for Rosell et al. 2017 New Phytologist	Julieta	Rosell	Universidad Nacional Autonoma de México	
2668863	23686892	36598	Microcachrys tetragona	146.589347	-42.683857			Bark thickness (inner bark)	Dataset for Rosell et al. 2017 New Phytologist	Julieta	Rosell	Universidad Nacional Autonoma de México	
2668863	23686888	36598	Microcachrys tetragona	146.589347	-42.683857			Stem construction type	Dataset for Rosell et al. 2017 New Phytologist	Julieta	Rosell	Universidad Nacional Autonoma de México	
2668863	23686891	36598	Microcachrys tetragona	146.589347	-42.683857			Bark thickness	Dataset for Rosell et al. 2017 New Phytologist	Julieta	Rosell	Universidad Nacional Autonoma de México	
2668863	23686890	36598	Microcachrys tetragona	146.589347	-42.683857			Stem diameter	Dataset for Rosell et al. 2017 New Phytologist	Julieta	Rosell	Universidad Nacional Autonoma de México	
2668863	23686893	36598	Microcachrys tetragona	146.589347	-42.683857			Bark thickness (outer bark)	Dataset for Rosell et al. 2017 New Phytologist	Julieta	Rosell	Universidad Nacional Autonoma de México	
2391666	19733478	37176	Monotoca empetrifolia	147.2353	-42.8964	1271		Plant woodiness	Global leaf size dataset	Ian	Wright	Macquarie University	
2391666	19733481	37176	Monotoca empetrifolia	147.2353	-42.8964	1271		Leaf area (in case of compound leaves: leaflet, undefined if petiole is in- or excluded)	Global leaf size dataset	Ian	Wright	Macquarie University	
2391666	19733477	37176	Monotoca empetrifolia	147.2353	-42.8964	1271		Plant growth form	Global leaf size dataset	Ian	Wright	Macquarie University	
2391666	19733480	37176	Monotoca empetrifolia	147.2353	-42.8964	1271		Leaf compoundness	Global leaf size dataset	Ian	Wright	Macquarie University	
2391666	19733486	37176	Monotoca empetrifolia	147.2353	-42.8964	1271		Leaflet number per leaf	Global leaf size dataset	Ian	Wright	Macquarie University	
2391666	19733479	37176	Monotoca empetrifolia	147.2353	-42.8964	1271		Leaf phenology type	Global leaf size dataset	Ian	Wright	Macquarie University	
2391666	19733482	37176	Monotoca empetrifolia	147.2353	-42.8964	1271		Leaf area (in case of compound leaves: leaf, undefined if petiole in- or excluded)	Global leaf size dataset	Ian	Wright	Macquarie University	
1728279	12631953	37715	Nageia fleuryi	147.324722222222	-42.905	60		Leaf phenology type	Xylem Functional Traits (XFT) Database	Steven	Jansen	Ulm University	
1728279	12631943	37715	Nageia fleuryi	147.324722222222	-42.905	60		Xylem hydraulic vulnerability, xylem cavitation vulnerability, embolism vulnerability, (P20, P50, P8	Xylem Functional Traits (XFT) Database	Steven	Jansen	Ulm University	
1728279	12631949	37715	Nageia fleuryi	147.324722222222	-42.905	60		Wood vessel perforation plates	Xylem Functional Traits (XFT) Database	Steven	Jansen	Ulm University	
1728279	12631952	37715	Nageia fleuryi	147.324722222222	-42.905	60		Wood vessel grouping	Xylem Functional Traits (XFT) Database	Steven	Jansen	Ulm University	
1728279	12631942	37715	Nageia fleuryi	147.324722222222	-42.905	60		Plant life form (Raunkiaer life form)	Xylem Functional Traits (XFT) Database	Steven	Jansen	Ulm University	
1728279	12631948	37715	Nageia fleuryi	147.324722222222	-42.905	60		Wood growth ring distinction	Xylem Functional Traits (XFT) Database	Steven	Jansen	Ulm University	
1728279	12631951	37715	Nageia fleuryi	147.324722222222	-42.905	60		Wood vessels surrounded by tracheids (vasicentric tracheids)	Xylem Functional Traits (XFT) Database	Steven	Jansen	Ulm University	
1728279	12631940	37715	Nageia fleuryi	147.324722222222	-42.905	60		Plant growth form	Xylem Functional Traits (XFT) Database	Steven	Jansen	Ulm University	
1728279	12631947	37715	Nageia fleuryi	147.324722222222	-42.905	60		Leaf area-specific conductivity (leaf specific conductivity)	Xylem Functional Traits (XFT) Database	Steven	Jansen	Ulm University	
1728279	12631950	37715	Nageia fleuryi	147.324722222222	-42.905	60		Wood fibre types	Xylem Functional Traits (XFT) Database	Steven	Jansen	Ulm University	
2460940	20010932	69936	Notelaea ligustrina	146.7242	-43.0951	88		Leaf photosynthesis carboxylation capacity (Vcmax) per leaf area (Farquhar model)	Global Respiration Database	Owen	Atkin	Australian National University	
2460940	20010899	69936	Notelaea ligustrina	146.7242	-43.0951	88		Plant functional type (PFT)	Global Respiration Database	Owen	Atkin	Australian National University	
2460940	20010913	69936	Notelaea ligustrina	146.7242	-43.0951	88		Leaf photosynthesis rate per leaf dry mass	Global Respiration Database	Owen	Atkin	Australian National University	
2460940	20010925	69936	Notelaea ligustrina	146.7242	-43.0951	88		Leaf respiration rate in the dark per leaf dry mass	Global Respiration Database	Owen	Atkin	Australian National University	
2460940	20010935	69936	Notelaea ligustrina	146.7242	-43.0951	88		Leaf respiration rate in the dark as fraction of photosynthetic carboxylation capacity (Vcmax)	Global Respiration Database	Owen	Atkin	Australian National University	
2460940	20010902	69936	Notelaea ligustrina	146.7242	-43.0951	88		Plant functional type (PFT)	Global Respiration Database	Owen	Atkin	Australian National University	
2460940	20010918	69936	Notelaea ligustrina	146.7242	-43.0951	88		Leaf respiration rate in the dark per leaf dry mass	Global Respiration Database	Owen	Atkin	Australian National University	
2460940	20010928	69936	Notelaea ligustrina	146.7242	-43.0951	88		Leaf nitrogen (N) content per leaf area	Global Respiration Database	Owen	Atkin	Australian National University	
2460940	20010907	69936	Notelaea ligustrina	146.7242	-43.0951	88		Leaf photosynthesis rate per leaf area	Global Respiration Database	Owen	Atkin	Australian National University	
2460940	20010921	69936	Notelaea ligustrina	146.7242	-43.0951	88		Leaf respiration rate in the dark per leaf dry mass	Global Respiration Database	Owen	Atkin	Australian National University	
2460940	20010931	69936	Notelaea ligustrina	146.7242	-43.0951	88		Leaf photosynthesis carboxylation capacity (Vcmax) per leaf area (Farquhar model)	Global Respiration Database	Owen	Atkin	Australian National University	
2460940	20010911	69936	Notelaea ligustrina	146.7242	-43.0951	88		Leaf respiration rate in the dark per leaf area	Global Respiration Database	Owen	Atkin	Australian National University	
2460940	20010924	69936	Notelaea ligustrina	146.7242	-43.0951	88		Leaf respiration rate in the dark per leaf area	Global Respiration Database	Owen	Atkin	Australian National University	
2460940	20010934	69936	Notelaea ligustrina	146.7242	-43.0951	88		Leaf respiration rate in the dark as fraction of photosynthetic carboxylation capacity (Vcmax)	Global Respiration Database	Owen	Atkin	Australian National University	
2460940	20010901	69936	Notelaea ligustrina	146.7242	-43.0951	88		Plant functional type (PFT)	Global Respiration Database	Owen	Atkin	Australian National University	
2460940	20010917	69936	Notelaea ligustrina	146.7242	-43.0951	88		Leaf respiration rate in the dark per leaf area	Global Respiration Database	Owen	Atkin	Australian National University	
2460940	20010927	69936	Notelaea ligustrina	146.7242	-43.0951	88		Leaf phosphorus (P) content per leaf dry mass	Global Respiration Database	Owen	Atkin	Australian National University	
2460940	50949701	69936	Notelaea ligustrina	146.7242	-43.0951	88		Stomata conductance per leaf dry mass	Global Respiration Database	Owen	Atkin	Australian National University	
2460940	20010904	69936	Notelaea ligustrina	146.7242	-43.0951	88		Plant functional type (PFT)	Global Respiration Database	Owen	Atkin	Australian National University	
2460940	20010920	69936	Notelaea ligustrina	146.7242	-43.0951	88		Leaf respiration rate in the dark per leaf area	Global Respiration Database	Owen	Atkin	Australian National University	
2460940	20010930	69936	Notelaea ligustrina	146.7242	-43.0951	88		Leaf area per leaf dry mass (specific leaf area, SLA or 1/LMA): petiole included	Global Respiration Database	Owen	Atkin	Australian National University	
2460940	20010909	69936	Notelaea ligustrina	146.7242	-43.0951	88		Leaf photosynthesis: intercellular CO2 concentration	Global Respiration Database	Owen	Atkin	Australian National University	
2460940	20010923	69936	Notelaea ligustrina	146.7242	-43.0951	88		Leaf respiration rate in the dark per leaf dry mass	Global Respiration Database	Owen	Atkin	Australian National University	
2460940	20010933	69936	Notelaea ligustrina	146.7242	-43.0951	88		Leaf photosynthesis carboxylation capacity (Vcmax) per leaf dry mass (Farquhar model)	Global Respiration Database	Owen	Atkin	Australian National University	
2460940	20010900	69936	Notelaea ligustrina	146.7242	-43.0951	88		Plant functional type (PFT)	Global Respiration Database	Owen	Atkin	Australian National University	
2460940	20010914	69936	Notelaea ligustrina	146.7242	-43.0951	88		Leaf respiration rate in the dark per leaf dry mass	Global Respiration Database	Owen	Atkin	Australian National University	
2460940	20010926	69936	Notelaea ligustrina	146.7242	-43.0951	88		Leaf nitrogen (N) content per leaf dry mass	Global Respiration Database	Owen	Atkin	Australian National University	
2460940	50885654	69936	Notelaea ligustrina	146.7242	-43.0951	88		Leaf photosynthesis carboxylation capacity (Vcmax) per leaf dry mass (Farquhar model)	Global Respiration Database	Owen	Atkin	Australian National University	
2460940	20010903	69936	Notelaea ligustrina	146.7242	-43.0951	88		Plant functional type (PFT)	Global Respiration Database	Owen	Atkin	Australian National University	
2460940	20010919	69936	Notelaea ligustrina	146.7242	-43.0951	88		Leaf respiration rate in the dark per leaf area	Global Respiration Database	Owen	Atkin	Australian National University	
2460940	20010929	69936	Notelaea ligustrina	146.7242	-43.0951	88		Leaf phosphorus (P) content per leaf area	Global Respiration Database	Owen	Atkin	Australian National University	
2460940	20010908	69936	Notelaea ligustrina	146.7242	-43.0951	88		Stomata conductance per leaf area	Global Respiration Database	Owen	Atkin	Australian National University	
2460940	20010922	69936	Notelaea ligustrina	146.7242	-43.0951	88		Leaf respiration rate in the dark per leaf area	Global Respiration Database	Owen	Atkin	Australian National University	
2668072	23678212	38316	Nothofagus cunninghamii	146.589347	-42.683857			Bark thickness (outer bark)	Dataset for Rosell 2016 New Phytologist	Julieta	Rosell	Universidad Nacional Autonoma de México	
2398950	19839554	38316	Nothofagus cunninghamii	146.669	-42.6793	704		Plant woodiness	Global leaf size dataset	Ian	Wright	Macquarie University	
2460941	20010979	38316	Nothofagus cunninghamii	146.7242	-43.0951	88		Leaf nitrogen (N) content per leaf dry mass	Global Respiration Database	Owen	Atkin	Australian National University	
1045052	6405236	38316	Nothofagus cunninghamii	146.167	-42.22	415		Plant growth form	Leaf Biomechanics Database	Yusuke	Onoda	Kyushu University	
2460941	50885655	38316	Nothofagus cunninghamii	146.7242	-43.0951	88		Leaf photosynthesis carboxylation capacity (Vcmax) per leaf dry mass (Farquhar model)	Global Respiration Database	Owen	Atkin	Australian National University	
1045047	6405108	38316	Nothofagus cunninghamii	146.167	-42.22	415		Leaf texture (sclerophylly, physical strength, toughness)	Leaf Biomechanics Database	Yusuke	Onoda	Kyushu University	
799226	4584607	38316	Nothofagus cunninghamii	145.6	-42.45	0	1991-11-12	Plant life form (Raunkiaer life form)	VegClass CBM Global Database	Andy	Gillison	Center for Biodiversity Management	
2460941	20010956	38316	Nothofagus cunninghamii	146.7242	-43.0951	88		Plant functional type (PFT)	Global Respiration Database	Owen	Atkin	Australian National University	
3037641	30559816	38316	Nothofagus cunninghamii	146.52173	-42.71884	433		Leaf chlorophyll a/b ratio	The Global Leaf Traits	Serge	Sheremetev	Komarov Botanical Institute	
2668887	23687174	38316	Nothofagus cunninghamii	146.589347	-42.683857			Stem diameter	Dataset for Rosell et al. 2017 New Phytologist	Julieta	Rosell	Universidad Nacional Autonoma de México	
2460941	20010972	38316	Nothofagus cunninghamii	146.7242	-43.0951	88		Leaf respiration rate in the dark per leaf area	Global Respiration Database	Owen	Atkin	Australian National University	
3037641	50865352	38316	Nothofagus cunninghamii	146.52173	-42.71884	433		Leaf phosphorus (P) content per leaf area	The Global Leaf Traits	Serge	Sheremetev	Komarov Botanical Institute	
1727626	12569026	38316	Nothofagus cunninghamii	147.324722222222	-42.905	60		Wood vestures presence	Xylem Functional Traits (XFT) Database	Steven	Jansen	Ulm University	
2668073	23678220	38316	Nothofagus cunninghamii	146.45945	-42.336			Bark thickness (inner bark)	Dataset for Rosell 2016 New Phytologist	Julieta	Rosell	Universidad Nacional Autonoma de México	
2398950	19839557	38316	Nothofagus cunninghamii	146.669	-42.6793	704		Leaf area (in case of compound leaves: leaflet, undefined if petiole is in- or excluded)	Global leaf size dataset	Ian	Wright	Macquarie University	
2460941	20010982	38316	Nothofagus cunninghamii	146.7242	-43.0951	88		Leaf phosphorus (P) content per leaf area	Global Respiration Database	Owen	Atkin	Australian National University	
1045052	6405240	38316	Nothofagus cunninghamii	146.167	-42.22	415		Leaf area per leaf dry mass (specific leaf area, SLA or 1/LMA): petiole excluded	Leaf Biomechanics Database	Yusuke	Onoda	Kyushu University	
1045047	6405100	38316	Nothofagus cunninghamii	146.167	-42.22	415		Plant growth form	Leaf Biomechanics Database	Yusuke	Onoda	Kyushu University	
1045047	6405111	38316	Nothofagus cunninghamii	146.167	-42.22	415		Leaf texture (sclerophylly, physical strength, toughness)	Leaf Biomechanics Database	Yusuke	Onoda	Kyushu University	
2460941	20010961	38316	Nothofagus cunninghamii	146.7242	-43.0951	88		Stomata conductance per leaf area	Global Respiration Database	Owen	Atkin	Australian National University	
3037641	30559819	38316	Nothofagus cunninghamii	146.52173	-42.71884	433		Leaf area per leaf dry mass (specific leaf area, SLA or 1/LMA): undefined if petiole is in- or exclu	The Global Leaf Traits	Serge	Sheremetev	Komarov Botanical Institute	
2668887	23687177	38316	Nothofagus cunninghamii	146.589347	-42.683857			Bark thickness (outer bark)	Dataset for Rosell et al. 2017 New Phytologist	Julieta	Rosell	Universidad Nacional Autonoma de México	
1727626	12569015	38316	Nothofagus cunninghamii	147.324722222222	-42.905	60		Plant growth form	Xylem Functional Traits (XFT) Database	Steven	Jansen	Ulm University	
2460941	20010975	38316	Nothofagus cunninghamii	146.7242	-43.0951	88		Leaf respiration rate in the dark per leaf area	Global Respiration Database	Owen	Atkin	Australian National University	
1727626	12569029	38316	Nothofagus cunninghamii	147.324722222222	-42.905	60		Wood fibre types	Xylem Functional Traits (XFT) Database	Steven	Jansen	Ulm University	
2460941	20010985	38316	Nothofagus cunninghamii	146.7242	-43.0951	88		Leaf photosynthesis carboxylation capacity (Vcmax) per leaf area (Farquhar model)	Global Respiration Database	Owen	Atkin	Australian National University	
1045052	6405243	38316	Nothofagus cunninghamii	146.167	-42.22	415		Leaf texture (sclerophylly, physical strength, toughness)	Leaf Biomechanics Database	Yusuke	Onoda	Kyushu University	
1045047	6405103	38316	Nothofagus cunninghamii	146.167	-42.22	415		Leaf type	Leaf Biomechanics Database	Yusuke	Onoda	Kyushu University	
799226	4584600	38316	Nothofagus cunninghamii	145.6	-42.45	0	1991-11-12	Leaf area (in case of compound leaves: leaflet, undefined if petiole is in- or excluded)	VegClass CBM Global Database	Andy	Gillison	Center for Biodiversity Management	
2460941	20010952	38316	Nothofagus cunninghamii	146.7242	-43.0951	88		Plant functional type (PFT)	Global Respiration Database	Owen	Atkin	Australian National University	
3037641	30559812	38316	Nothofagus cunninghamii	146.52173	-42.71884	433		Plant growth form	The Global Leaf Traits	Serge	Sheremetev	Komarov Botanical Institute	
2460941	20010966	38316	Nothofagus cunninghamii	146.7242	-43.0951	88		Leaf photosynthesis rate per leaf dry mass	Global Respiration Database	Owen	Atkin	Australian National University	
3037641	30559822	38316	Nothofagus cunninghamii	146.52173	-42.71884	433		Leaf nitrogen (N) content per leaf dry mass	The Global Leaf Traits	Serge	Sheremetev	Komarov Botanical Institute	
2668888	23687186	38316	Nothofagus cunninghamii	146.45945	-42.336			Stem diameter	Dataset for Rosell et al. 2017 New Phytologist	Julieta	Rosell	Universidad Nacional Autonoma de México	
1727626	12569019	38316	Nothofagus cunninghamii	147.324722222222	-42.905	60		Xylem hydraulic vulnerability, xylem cavitation vulnerability, embolism vulnerability, (P20, P50, P8	Xylem Functional Traits (XFT) Database	Steven	Jansen	Ulm University	
2668072	23678211	38316	Nothofagus cunninghamii	146.589347	-42.683857			Bark thickness (inner bark)	Dataset for Rosell 2016 New Phytologist	Julieta	Rosell	Universidad Nacional Autonoma de México	
2398950	19839553	38316	Nothofagus cunninghamii	146.669	-42.6793	704		Plant growth form	Global leaf size dataset	Ian	Wright	Macquarie University	
2460941	20010978	38316	Nothofagus cunninghamii	146.7242	-43.0951	88		Leaf respiration rate in the dark per leaf dry mass	Global Respiration Database	Owen	Atkin	Australian National University	
1045052	6405235	38316	Nothofagus cunninghamii	146.167	-42.22	415		Plant growth form	Leaf Biomechanics Database	Yusuke	Onoda	Kyushu University	
2736321	25129977	38316	Nothofagus cunninghamii	146.633	-42.683			Leaf carbon (C) isotope fractionation ('big' Delta 13C)	A Global Dataset of Leaf Delta13C Data	Will	Cornwell	Vrije Universiteit Amsterdam	
1727626	12569032	38316	Nothofagus cunninghamii	147.324722222222	-42.905	60		Leaf phenology type	Xylem Functional Traits (XFT) Database	Steven	Jansen	Ulm University	
2460941	20010988	38316	Nothofagus cunninghamii	146.7242	-43.0951	88		Leaf respiration rate in the dark as fraction of photosynthetic carboxylation capacity (Vcmax)	Global Respiration Database	Owen	Atkin	Australian National University	
1045047	6405107	38316	Nothofagus cunninghamii	146.167	-42.22	415		Leaf density (leaf tissue density, leaf dry mass per leaf volume)	Leaf Biomechanics Database	Yusuke	Onoda	Kyushu University	
799226	4584606	38316	Nothofagus cunninghamii	145.6	-42.45	0	1991-11-12	Leaf phenology type	VegClass CBM Global Database	Andy	Gillison	Center for Biodiversity Management	
2460941	20010955	38316	Nothofagus cunninghamii	146.7242	-43.0951	88		Plant functional type (PFT)	Global Respiration Database	Owen	Atkin	Australian National University	
3037641	30559815	38316	Nothofagus cunninghamii	146.52173	-42.71884	433		Leaf chlorophyll content per leaf dry mass	The Global Leaf Traits	Serge	Sheremetev	Komarov Botanical Institute	
1045052	6405246	38316	Nothofagus cunninghamii	146.167	-42.22	415		Leaf texture (sclerophylly, physical strength, toughness)	Leaf Biomechanics Database	Yusuke	Onoda	Kyushu University	
2668887	23687173	38316	Nothofagus cunninghamii	146.589347	-42.683857			Plant growth form	Dataset for Rosell et al. 2017 New Phytologist	Julieta	Rosell	Universidad Nacional Autonoma de México	
2460941	20010971	38316	Nothofagus cunninghamii	146.7242	-43.0951	88		Leaf respiration rate in the dark per leaf dry mass	Global Respiration Database	Owen	Atkin	Australian National University	
3037641	50836218	38316	Nothofagus cunninghamii	146.52173	-42.71884	433		Leaf nitrogen (N) content per leaf area	The Global Leaf Traits	Serge	Sheremetev	Komarov Botanical Institute	
2668888	23687189	38316	Nothofagus cunninghamii	146.45945	-42.336			Bark thickness (outer bark)	Dataset for Rosell et al. 2017 New Phytologist	Julieta	Rosell	Universidad Nacional Autonoma de México	
1727626	12569022	38316	Nothofagus cunninghamii	147.324722222222	-42.905	60		Xylem hydraulic vulnerability, xylem cavitation vulnerability, embolism vulnerability, (P20, P50, P8	Xylem Functional Traits (XFT) Database	Steven	Jansen	Ulm University	
2668073	23678219	38316	Nothofagus cunninghamii	146.45945	-42.336			Bark thickness	Dataset for Rosell 2016 New Phytologist	Julieta	Rosell	Universidad Nacional Autonoma de México	
2398950	19839556	38316	Nothofagus cunninghamii	146.669	-42.6793	704		Leaf compoundness	Global leaf size dataset	Ian	Wright	Macquarie University	
2460941	20010981	38316	Nothofagus cunninghamii	146.7242	-43.0951	88		Leaf nitrogen (N) content per leaf area	Global Respiration Database	Owen	Atkin	Australian National University	
1045052	6405238	38316	Nothofagus cunninghamii	146.167	-42.22	415		Leaf type	Leaf Biomechanics Database	Yusuke	Onoda	Kyushu University	
1045047	6405099	38316	Nothofagus cunninghamii	146.167	-42.22	415		Plant growth form	Leaf Biomechanics Database	Yusuke	Onoda	Kyushu University	
1045047	6405110	38316	Nothofagus cunninghamii	146.167	-42.22	415		Leaf texture (sclerophylly, physical strength, toughness)	Leaf Biomechanics Database	Yusuke	Onoda	Kyushu University	
799226	4584609	38316	Nothofagus cunninghamii	145.6	-42.45	0	1991-11-12	Plant woodiness	VegClass CBM Global Database	Andy	Gillison	Center for Biodiversity Management	
2460941	20010960	38316	Nothofagus cunninghamii	146.7242	-43.0951	88		Leaf photosynthesis rate per leaf area	Global Respiration Database	Owen	Atkin	Australian National University	
3037641	30559818	38316	Nothofagus cunninghamii	146.52173	-42.71884	433		Leaf thickness	The Global Leaf Traits	Serge	Sheremetev	Komarov Botanical Institute	
2668887	23687176	38316	Nothofagus cunninghamii	146.589347	-42.683857			Bark thickness (inner bark)	Dataset for Rosell et al. 2017 New Phytologist	Julieta	Rosell	Universidad Nacional Autonoma de México	
2460941	20010974	38316	Nothofagus cunninghamii	146.7242	-43.0951	88		Leaf respiration rate in the dark per leaf dry mass	Global Respiration Database	Owen	Atkin	Australian National University	
3037641	50935647	38316	Nothofagus cunninghamii	146.52173	-42.71884	433		Leaf chlorophyll content per leaf area	The Global Leaf Traits	Serge	Sheremetev	Komarov Botanical Institute	
1727626	12569028	38316	Nothofagus cunninghamii	147.324722222222	-42.905	60		Wood vessel perforation plates	Xylem Functional Traits (XFT) Database	Steven	Jansen	Ulm University	
2398950	19839562	38316	Nothofagus cunninghamii	146.669	-42.6793	704		Leaflet number per leaf	Global leaf size dataset	Ian	Wright	Macquarie University	
2460941	20010984	38316	Nothofagus cunninghamii	146.7242	-43.0951	88		Leaf photosynthesis carboxylation capacity (Vcmax) per leaf area (Farquhar model)	Global Respiration Database	Owen	Atkin	Australian National University	
1045052	6405242	38316	Nothofagus cunninghamii	146.167	-42.22	415		Leaf density (leaf tissue density, leaf dry mass per leaf volume)	Leaf Biomechanics Database	Yusuke	Onoda	Kyushu University	
1045047	6405102	38316	Nothofagus cunninghamii	146.167	-42.22	415		Leaf phenology type	Leaf Biomechanics Database	Yusuke	Onoda	Kyushu University	
799226	4584582	38316	Nothofagus cunninghamii	145.6	-42.45	0	1991-11-12	Plant functional type (PFT)	VegClass CBM Global Database	Andy	Gillison	Center for Biodiversity Management	
3037641	30559811	38316	Nothofagus cunninghamii	146.52173	-42.71884	433		Plant growth form	The Global Leaf Traits	Serge	Sheremetev	Komarov Botanical Institute	
2460941	20010964	38316	Nothofagus cunninghamii	146.7242	-43.0951	88		Leaf respiration rate in the dark per leaf area	Global Respiration Database	Owen	Atkin	Australian National University	
3037641	30559821	38316	Nothofagus cunninghamii	146.52173	-42.71884	433		Leaf carbon (C) content per leaf dry mass	The Global Leaf Traits	Serge	Sheremetev	Komarov Botanical Institute	
2668888	23687185	38316	Nothofagus cunninghamii	146.45945	-42.336			Plant growth form	Dataset for Rosell et al. 2017 New Phytologist	Julieta	Rosell	Universidad Nacional Autonoma de México	
1727626	12569018	38316	Nothofagus cunninghamii	147.324722222222	-42.905	60		Plant height vegetative	Xylem Functional Traits (XFT) Database	Steven	Jansen	Ulm University	
2668072	23678210	38316	Nothofagus cunninghamii	146.589347	-42.683857			Bark thickness	Dataset for Rosell 2016 New Phytologist	Julieta	Rosell	Universidad Nacional Autonoma de México	
2460941	20010977	38316	Nothofagus cunninghamii	146.7242	-43.0951	88		Leaf respiration rate in the dark per leaf area	Global Respiration Database	Owen	Atkin	Australian National University	
1045052	6405234	38316	Nothofagus cunninghamii	146.167	-42.22	415		Plant growth form	Leaf Biomechanics Database	Yusuke	Onoda	Kyushu University	
2736321	25129976	38316	Nothofagus cunninghamii	146.633	-42.683			Leaf carbon (C) isotope fractionation ('big' Delta 13C)	A Global Dataset of Leaf Delta13C Data	Will	Cornwell	Vrije Universiteit Amsterdam	
1727626	12569031	38316	Nothofagus cunninghamii	147.324722222222	-42.905	60		Stem specific density (SSD) or wood density (stem dry mass per stem fresh volume)	Xylem Functional Traits (XFT) Database	Steven	Jansen	Ulm University	
2460941	20010987	38316	Nothofagus cunninghamii	146.7242	-43.0951	88		Leaf respiration rate in the dark as fraction of photosynthetic carboxylation capacity (Vcmax)	Global Respiration Database	Owen	Atkin	Australian National University	
1045052	6405245	38316	Nothofagus cunninghamii	146.167	-42.22	415		Leaf texture (sclerophylly, physical strength, toughness)	Leaf Biomechanics Database	Yusuke	Onoda	Kyushu University	
1045047	6405106	38316	Nothofagus cunninghamii	146.167	-42.22	415		Leaf thickness	Leaf Biomechanics Database	Yusuke	Onoda	Kyushu University	
799226	4584605	38316	Nothofagus cunninghamii	145.6	-42.45	0	1991-11-12	Leaf type	VegClass CBM Global Database	Andy	Gillison	Center for Biodiversity Management	
2460941	20010954	38316	Nothofagus cunninghamii	146.7242	-43.0951	88		Plant functional type (PFT)	Global Respiration Database	Owen	Atkin	Australian National University	
3037641	30559814	38316	Nothofagus cunninghamii	146.52173	-42.71884	433		Leaf chlorophyll content per leaf dry mass (Chl b)	The Global Leaf Traits	Serge	Sheremetev	Komarov Botanical Institute	
2668887	23687172	38316	Nothofagus cunninghamii	146.589347	-42.683857			Stem construction type	Dataset for Rosell et al. 2017 New Phytologist	Julieta	Rosell	Universidad Nacional Autonoma de México	
2460941	20010970	38316	Nothofagus cunninghamii	146.7242	-43.0951	88		Leaf respiration rate in the dark per leaf area	Global Respiration Database	Owen	Atkin	Australian National University	
3037641	30559824	38316	Nothofagus cunninghamii	146.52173	-42.71884	433		Leaf carbon/nitrogen (C/N) ratio	The Global Leaf Traits	Serge	Sheremetev	Komarov Botanical Institute	
2668888	23687188	38316	Nothofagus cunninghamii	146.45945	-42.336			Bark thickness (inner bark)	Dataset for Rosell et al. 2017 New Phytologist	Julieta	Rosell	Universidad Nacional Autonoma de México	
1727626	12569021	38316	Nothofagus cunninghamii	147.324722222222	-42.905	60		Xylem hydraulic vulnerability, xylem cavitation vulnerability, embolism vulnerability, (P20, P50, P8	Xylem Functional Traits (XFT) Database	Steven	Jansen	Ulm University	
2668073	23678218	38316	Nothofagus cunninghamii	146.45945	-42.336			Stem diameter	Dataset for Rosell 2016 New Phytologist	Julieta	Rosell	Universidad Nacional Autonoma de México	
2398950	19839555	38316	Nothofagus cunninghamii	146.669	-42.6793	704		Leaf phenology type	Global leaf size dataset	Ian	Wright	Macquarie University	
2460941	20010980	38316	Nothofagus cunninghamii	146.7242	-43.0951	88		Leaf phosphorus (P) content per leaf dry mass	Global Respiration Database	Owen	Atkin	Australian National University	
1045052	6405237	38316	Nothofagus cunninghamii	146.167	-42.22	415		Leaf phenology type	Leaf Biomechanics Database	Yusuke	Onoda	Kyushu University	
1045047	6405109	38316	Nothofagus cunninghamii	146.167	-42.22	415		Leaf texture (sclerophylly, physical strength, toughness)	Leaf Biomechanics Database	Yusuke	Onoda	Kyushu University	
2460941	50949702	38316	Nothofagus cunninghamii	146.7242	-43.0951	88		Stomata conductance per leaf dry mass	Global Respiration Database	Owen	Atkin	Australian National University	
799226	4584608	38316	Nothofagus cunninghamii	145.6	-42.45	0	1991-11-12	Plant morphological adaptations: root metamorphoses	VegClass CBM Global Database	Andy	Gillison	Center for Biodiversity Management	
2460941	20010957	38316	Nothofagus cunninghamii	146.7242	-43.0951	88		Plant functional type (PFT)	Global Respiration Database	Owen	Atkin	Australian National University	
3037641	30559817	38316	Nothofagus cunninghamii	146.52173	-42.71884	433		Leaf carotenoid content per leaf dry mass	The Global Leaf Traits	Serge	Sheremetev	Komarov Botanical Institute	
2668887	23687175	38316	Nothofagus cunninghamii	146.589347	-42.683857			Bark thickness	Dataset for Rosell et al. 2017 New Phytologist	Julieta	Rosell	Universidad Nacional Autonoma de México	
2460941	20010973	38316	Nothofagus cunninghamii	146.7242	-43.0951	88		Leaf respiration rate in the dark per leaf area	Global Respiration Database	Owen	Atkin	Australian National University	
3037641	50912373	38316	Nothofagus cunninghamii	146.52173	-42.71884	433		Leaf carbon (C) content per leaf area	The Global Leaf Traits	Serge	Sheremetev	Komarov Botanical Institute	
1221549	4584604	38316	Nothofagus cunninghamii	145.6	-42.45	0	1991-11-12	Leaf angle (inclination, orientation)	VegClass CBM Global Database	Andy	Gillison	Center for Biodiversity Management	
1727626	12569027	38316	Nothofagus cunninghamii	147.324722222222	-42.905	60		Wood growth ring distinction	Xylem Functional Traits (XFT) Database	Steven	Jansen	Ulm University	
2668073	23678221	38316	Nothofagus cunninghamii	146.45945	-42.336			Bark thickness (outer bark)	Dataset for Rosell 2016 New Phytologist	Julieta	Rosell	Universidad Nacional Autonoma de México	
2398950	19839558	38316	Nothofagus cunninghamii	146.669	-42.6793	704		Leaf area (in case of compound leaves: leaf, undefined if petiole in- or excluded)	Global leaf size dataset	Ian	Wright	Macquarie University	
2460941	20010983	38316	Nothofagus cunninghamii	146.7242	-43.0951	88		Leaf area per leaf dry mass (specific leaf area, SLA or 1/LMA): petiole included	Global Respiration Database	Owen	Atkin	Australian National University	
1045052	6405241	38316	Nothofagus cunninghamii	146.167	-42.22	415		Leaf thickness	Leaf Biomechanics Database	Yusuke	Onoda	Kyushu University	
1045047	6405101	38316	Nothofagus cunninghamii	146.167	-42.22	415		Plant growth form	Leaf Biomechanics Database	Yusuke	Onoda	Kyushu University	
2460941	20010962	38316	Nothofagus cunninghamii	146.7242	-43.0951	88		Leaf photosynthesis: intercellular CO2 concentration	Global Respiration Database	Owen	Atkin	Australian National University	
3037641	30559820	38316	Nothofagus cunninghamii	146.52173	-42.71884	433		Leaf density (leaf tissue density, leaf dry mass per leaf volume)	The Global Leaf Traits	Serge	Sheremetev	Komarov Botanical Institute	
2668888	23687184	38316	Nothofagus cunninghamii	146.45945	-42.336			Stem construction type	Dataset for Rosell et al. 2017 New Phytologist	Julieta	Rosell	Universidad Nacional Autonoma de México	
1727626	12569017	38316	Nothofagus cunninghamii	147.324722222222	-42.905	60		Plant life form (Raunkiaer life form)	Xylem Functional Traits (XFT) Database	Steven	Jansen	Ulm University	
2668072	23678209	38316	Nothofagus cunninghamii	146.589347	-42.683857			Stem diameter	Dataset for Rosell 2016 New Phytologist	Julieta	Rosell	Universidad Nacional Autonoma de México	
2460941	20010976	38316	Nothofagus cunninghamii	146.7242	-43.0951	88		Leaf respiration rate in the dark per leaf dry mass	Global Respiration Database	Owen	Atkin	Australian National University	
1254753	4584610	38316	Nothofagus cunninghamii	145.6	-42.45	0	1991-11-12	Plant life form (Raunkiaer life form)	VegClass CBM Global Database	Andy	Gillison	Center for Biodiversity Management	
2736321	25129975	38316	Nothofagus cunninghamii	146.633	-42.683			Leaf photosynthesis pathway	A Global Dataset of Leaf Delta13C Data	Will	Cornwell	Vrije Universiteit Amsterdam	
1727626	12569030	38316	Nothofagus cunninghamii	147.324722222222	-42.905	60		Wood vessel grouping	Xylem Functional Traits (XFT) Database	Steven	Jansen	Ulm University	
2460941	20010986	38316	Nothofagus cunninghamii	146.7242	-43.0951	88		Leaf photosynthesis carboxylation capacity (Vcmax) per leaf dry mass (Farquhar model)	Global Respiration Database	Owen	Atkin	Australian National University	
1045052	6405244	38316	Nothofagus cunninghamii	146.167	-42.22	415		Leaf texture (sclerophylly, physical strength, toughness)	Leaf Biomechanics Database	Yusuke	Onoda	Kyushu University	
1045047	6405105	38316	Nothofagus cunninghamii	146.167	-42.22	415		Leaf area per leaf dry mass (specific leaf area, SLA or 1/LMA): petiole excluded	Leaf Biomechanics Database	Yusuke	Onoda	Kyushu University	
799226	4584603	38316	Nothofagus cunninghamii	145.6	-42.45	0	1991-11-12	Leaf angle (inclination, orientation)	VegClass CBM Global Database	Andy	Gillison	Center for Biodiversity Management	
2460941	20010953	38316	Nothofagus cunninghamii	146.7242	-43.0951	88		Plant functional type (PFT)	Global Respiration Database	Owen	Atkin	Australian National University	
3037641	30559813	38316	Nothofagus cunninghamii	146.52173	-42.71884	433		Leaf chlorophyll content per leaf dry mass (Chl a)	The Global Leaf Traits	Serge	Sheremetev	Komarov Botanical Institute	
2460941	20010967	38316	Nothofagus cunninghamii	146.7242	-43.0951	88		Leaf respiration rate in the dark per leaf dry mass	Global Respiration Database	Owen	Atkin	Australian National University	
3037641	30559823	38316	Nothofagus cunninghamii	146.52173	-42.71884	433		Leaf phosphorus (P) content per leaf dry mass	The Global Leaf Traits	Serge	Sheremetev	Komarov Botanical Institute	
2668888	23687187	38316	Nothofagus cunninghamii	146.45945	-42.336			Bark thickness	Dataset for Rosell et al. 2017 New Phytologist	Julieta	Rosell	Universidad Nacional Autonoma de México	
1727626	12569020	38316	Nothofagus cunninghamii	147.324722222222	-42.905	60		Xylem hydraulic vulnerability, xylem cavitation vulnerability, embolism vulnerability, (P20, P50, P8	Xylem Functional Traits (XFT) Database	Steven	Jansen	Ulm University	
2736322	25129981	38321	Nothofagus gunnii	146.633	-42.683			Leaf photosynthesis pathway	A Global Dataset of Leaf Delta13C Data	Will	Cornwell	Vrije Universiteit Amsterdam	
2668889	23687196	38321	Nothofagus gunnii	146.589347	-42.683857			Stem construction type	Dataset for Rosell et al. 2017 New Phytologist	Julieta	Rosell	Universidad Nacional Autonoma de México	
2668889	23687199	38321	Nothofagus gunnii	146.589347	-42.683857			Bark thickness	Dataset for Rosell et al. 2017 New Phytologist	Julieta	Rosell	Universidad Nacional Autonoma de México	
2668074	23678228	38321	Nothofagus gunnii	146.589347	-42.683857			Bark thickness	Dataset for Rosell 2016 New Phytologist	Julieta	Rosell	Universidad Nacional Autonoma de México	
2736322	25129983	38321	Nothofagus gunnii	146.633	-42.683			Leaf carbon (C) isotope fractionation ('big' Delta 13C)	A Global Dataset of Leaf Delta13C Data	Will	Cornwell	Vrije Universiteit Amsterdam	
2668889	23687198	38321	Nothofagus gunnii	146.589347	-42.683857			Stem diameter	Dataset for Rosell et al. 2017 New Phytologist	Julieta	Rosell	Universidad Nacional Autonoma de México	
2668074	23678227	38321	Nothofagus gunnii	146.589347	-42.683857			Stem diameter	Dataset for Rosell 2016 New Phytologist	Julieta	Rosell	Universidad Nacional Autonoma de México	
2668889	23687201	38321	Nothofagus gunnii	146.589347	-42.683857			Bark thickness (outer bark)	Dataset for Rosell et al. 2017 New Phytologist	Julieta	Rosell	Universidad Nacional Autonoma de México	
2668074	23678230	38321	Nothofagus gunnii	146.589347	-42.683857			Bark thickness (outer bark)	Dataset for Rosell 2016 New Phytologist	Julieta	Rosell	Universidad Nacional Autonoma de México	
2736322	25129982	38321	Nothofagus gunnii	146.633	-42.683			Leaf carbon (C) isotope fractionation ('big' Delta 13C)	A Global Dataset of Leaf Delta13C Data	Will	Cornwell	Vrije Universiteit Amsterdam	
2668889	23687197	38321	Nothofagus gunnii	146.589347	-42.683857			Plant growth form	Dataset for Rosell et al. 2017 New Phytologist	Julieta	Rosell	Universidad Nacional Autonoma de México	
2668889	23687200	38321	Nothofagus gunnii	146.589347	-42.683857			Bark thickness (inner bark)	Dataset for Rosell et al. 2017 New Phytologist	Julieta	Rosell	Universidad Nacional Autonoma de México	
2668074	23678229	38321	Nothofagus gunnii	146.589347	-42.683857			Bark thickness (inner bark)	Dataset for Rosell 2016 New Phytologist	Julieta	Rosell	Universidad Nacional Autonoma de México	
2391667	19733496	39212	Orites acicularis	147.2353	-42.8964	1271		Leaf area (in case of compound leaves: leaflet, undefined if petiole is in- or excluded)	Global leaf size dataset	Ian	Wright	Macquarie University	
2391667	19733492	39212	Orites acicularis	147.2353	-42.8964	1271		Plant growth form	Global leaf size dataset	Ian	Wright	Macquarie University	
2391667	19733495	39212	Orites acicularis	147.2353	-42.8964	1271		Leaf compoundness	Global leaf size dataset	Ian	Wright	Macquarie University	
2391667	19733501	39212	Orites acicularis	147.2353	-42.8964	1271		Leaflet number per leaf	Global leaf size dataset	Ian	Wright	Macquarie University	
2391667	19733494	39212	Orites acicularis	147.2353	-42.8964	1271		Leaf phenology type	Global leaf size dataset	Ian	Wright	Macquarie University	
2391667	19733497	39212	Orites acicularis	147.2353	-42.8964	1271		Leaf area (in case of compound leaves: leaf, undefined if petiole in- or excluded)	Global leaf size dataset	Ian	Wright	Macquarie University	
2391667	19733493	39212	Orites acicularis	147.2353	-42.8964	1271		Plant woodiness	Global leaf size dataset	Ian	Wright	Macquarie University	
2668898	23687301	245498	Orites diversifolius	146.589347	-42.683857			Plant growth form	Dataset for Rosell et al. 2017 New Phytologist	Julieta	Rosell	Universidad Nacional Autonoma de México	
2668083	23678305	245498	Orites diversifolius	146.589347	-42.683857			Bark thickness	Dataset for Rosell 2016 New Phytologist	Julieta	Rosell	Universidad Nacional Autonoma de México	
2668898	23687305	245498	Orites diversifolius	146.589347	-42.683857			Bark thickness (outer bark)	Dataset for Rosell et al. 2017 New Phytologist	Julieta	Rosell	Universidad Nacional Autonoma de México	
2668898	23687304	245498	Orites diversifolius	146.589347	-42.683857			Bark thickness (inner bark)	Dataset for Rosell et al. 2017 New Phytologist	Julieta	Rosell	Universidad Nacional Autonoma de México	
2668898	23687300	245498	Orites diversifolius	146.589347	-42.683857			Stem construction type	Dataset for Rosell et al. 2017 New Phytologist	Julieta	Rosell	Universidad Nacional Autonoma de México	
2668083	23678304	245498	Orites diversifolius	146.589347	-42.683857			Stem diameter	Dataset for Rosell 2016 New Phytologist	Julieta	Rosell	Universidad Nacional Autonoma de México	
2668898	23687303	245498	Orites diversifolius	146.589347	-42.683857			Bark thickness	Dataset for Rosell et al. 2017 New Phytologist	Julieta	Rosell	Universidad Nacional Autonoma de México	
2668083	23678307	245498	Orites diversifolius	146.589347	-42.683857			Bark thickness (outer bark)	Dataset for Rosell 2016 New Phytologist	Julieta	Rosell	Universidad Nacional Autonoma de México	
2668898	23687302	245498	Orites diversifolius	146.589347	-42.683857			Stem diameter	Dataset for Rosell et al. 2017 New Phytologist	Julieta	Rosell	Universidad Nacional Autonoma de México	
2668083	23678306	245498	Orites diversifolius	146.589347	-42.683857			Bark thickness (inner bark)	Dataset for Rosell 2016 New Phytologist	Julieta	Rosell	Universidad Nacional Autonoma de México	
2391668	19733507	245503	Orites revolutus	147.2353	-42.8964	1271		Plant growth form	Global leaf size dataset	Ian	Wright	Macquarie University	
2668084	23678313	245503	Orites revolutus	146.589347	-42.683857			Stem diameter	Dataset for Rosell 2016 New Phytologist	Julieta	Rosell	Universidad Nacional Autonoma de México	
2668899	23687314	245503	Orites revolutus	146.589347	-42.683857			Stem diameter	Dataset for Rosell et al. 2017 New Phytologist	Julieta	Rosell	Universidad Nacional Autonoma de México	
2391668	19733510	245503	Orites revolutus	147.2353	-42.8964	1271		Leaf compoundness	Global leaf size dataset	Ian	Wright	Macquarie University	
2668084	23678316	245503	Orites revolutus	146.589347	-42.683857			Bark thickness (outer bark)	Dataset for Rosell 2016 New Phytologist	Julieta	Rosell	Universidad Nacional Autonoma de México	
2668899	23687317	245503	Orites revolutus	146.589347	-42.683857			Bark thickness (outer bark)	Dataset for Rosell et al. 2017 New Phytologist	Julieta	Rosell	Universidad Nacional Autonoma de México	
2391668	19733516	245503	Orites revolutus	147.2353	-42.8964	1271		Leaflet number per leaf	Global leaf size dataset	Ian	Wright	Macquarie University	
2668899	23687313	245503	Orites revolutus	146.589347	-42.683857			Plant growth form	Dataset for Rosell et al. 2017 New Phytologist	Julieta	Rosell	Universidad Nacional Autonoma de México	
2391668	19733509	245503	Orites revolutus	147.2353	-42.8964	1271		Leaf phenology type	Global leaf size dataset	Ian	Wright	Macquarie University	
2668084	23678315	245503	Orites revolutus	146.589347	-42.683857			Bark thickness (inner bark)	Dataset for Rosell 2016 New Phytologist	Julieta	Rosell	Universidad Nacional Autonoma de México	
2668899	23687316	245503	Orites revolutus	146.589347	-42.683857			Bark thickness (inner bark)	Dataset for Rosell et al. 2017 New Phytologist	Julieta	Rosell	Universidad Nacional Autonoma de México	
2391668	19733512	245503	Orites revolutus	147.2353	-42.8964	1271		Leaf area (in case of compound leaves: leaf, undefined if petiole in- or excluded)	Global leaf size dataset	Ian	Wright	Macquarie University	
2668899	23687312	245503	Orites revolutus	146.589347	-42.683857			Stem construction type	Dataset for Rosell et al. 2017 New Phytologist	Julieta	Rosell	Universidad Nacional Autonoma de México	
2391668	19733508	245503	Orites revolutus	147.2353	-42.8964	1271		Plant woodiness	Global leaf size dataset	Ian	Wright	Macquarie University	
2668084	23678314	245503	Orites revolutus	146.589347	-42.683857			Bark thickness	Dataset for Rosell 2016 New Phytologist	Julieta	Rosell	Universidad Nacional Autonoma de México	
2668899	23687315	245503	Orites revolutus	146.589347	-42.683857			Bark thickness	Dataset for Rosell et al. 2017 New Phytologist	Julieta	Rosell	Universidad Nacional Autonoma de México	
2391668	19733511	245503	Orites revolutus	147.2353	-42.8964	1271		Leaf area (in case of compound leaves: leaflet, undefined if petiole is in- or excluded)	Global leaf size dataset	Ian	Wright	Macquarie University	
2391663	19733437	39629	Oxylobium ellipticum	147.2353	-42.8964	1271		Leaf area (in case of compound leaves: leaf, undefined if petiole in- or excluded)	Global leaf size dataset	Ian	Wright	Macquarie University	
4523765	50625343	39629	Oxylobium ellipticum	147.2	-43			Leaf area-specific conductivity (leaf specific conductivity)	Plant Hydraulic Traits	Stefano	Manzoni	Stockholm University	
4523765	50625351	39629	Oxylobium ellipticum	147.2	-43			Leaf phenology type	Plant Hydraulic Traits	Stefano	Manzoni	Stockholm University	
2391663	19733433	39629	Oxylobium ellipticum	147.2353	-42.8964	1271		Plant woodiness	Global leaf size dataset	Ian	Wright	Macquarie University	
2391663	19733436	39629	Oxylobium ellipticum	147.2353	-42.8964	1271		Leaf area (in case of compound leaves: leaflet, undefined if petiole is in- or excluded)	Global leaf size dataset	Ian	Wright	Macquarie University	
4523765	50625350	39629	Oxylobium ellipticum	147.2	-43			Plant woodiness	Plant Hydraulic Traits	Stefano	Manzoni	Stockholm University	
2391663	19733432	39629	Oxylobium ellipticum	147.2353	-42.8964	1271		Plant growth form	Global leaf size dataset	Ian	Wright	Macquarie University	
2391663	19733435	39629	Oxylobium ellipticum	147.2353	-42.8964	1271		Leaf compoundness	Global leaf size dataset	Ian	Wright	Macquarie University	
2391663	19733441	39629	Oxylobium ellipticum	147.2353	-42.8964	1271		Leaflet number per leaf	Global leaf size dataset	Ian	Wright	Macquarie University	
4523765	50625344	39629	Oxylobium ellipticum	147.2	-43			Wood (sapwood) specific conductivity (stem specific conductivity)	Plant Hydraulic Traits	Stefano	Manzoni	Stockholm University	
2391663	19733434	39629	Oxylobium ellipticum	147.2353	-42.8964	1271		Leaf phenology type	Global leaf size dataset	Ian	Wright	Macquarie University	
2668089	23678361	39717	Ozothamnus hookeri	146.615941	-42.681889			Bark thickness (outer bark)	Dataset for Rosell 2016 New Phytologist	Julieta	Rosell	Universidad Nacional Autonoma de México	
2668906	23687399	39717	Ozothamnus hookeri	146.615941	-42.681889			Bark thickness	Dataset for Rosell et al. 2017 New Phytologist	Julieta	Rosell	Universidad Nacional Autonoma de México	
2668089	23678360	39717	Ozothamnus hookeri	146.615941	-42.681889			Bark thickness (inner bark)	Dataset for Rosell 2016 New Phytologist	Julieta	Rosell	Universidad Nacional Autonoma de México	
2668906	23687398	39717	Ozothamnus hookeri	146.615941	-42.681889			Stem diameter	Dataset for Rosell et al. 2017 New Phytologist	Julieta	Rosell	Universidad Nacional Autonoma de México	
2668906	23687401	39717	Ozothamnus hookeri	146.615941	-42.681889			Bark thickness (outer bark)	Dataset for Rosell et al. 2017 New Phytologist	Julieta	Rosell	Universidad Nacional Autonoma de México	
2668089	23678359	39717	Ozothamnus hookeri	146.615941	-42.681889			Bark thickness	Dataset for Rosell 2016 New Phytologist	Julieta	Rosell	Universidad Nacional Autonoma de México	
2668906	23687397	39717	Ozothamnus hookeri	146.615941	-42.681889			Plant growth form	Dataset for Rosell et al. 2017 New Phytologist	Julieta	Rosell	Universidad Nacional Autonoma de México	
2668906	23687400	39717	Ozothamnus hookeri	146.615941	-42.681889			Bark thickness (inner bark)	Dataset for Rosell et al. 2017 New Phytologist	Julieta	Rosell	Universidad Nacional Autonoma de México	
2668089	23678358	39717	Ozothamnus hookeri	146.615941	-42.681889			Stem diameter	Dataset for Rosell 2016 New Phytologist	Julieta	Rosell	Universidad Nacional Autonoma de México	
2668906	23687396	39717	Ozothamnus hookeri	146.615941	-42.681889			Stem construction type	Dataset for Rosell et al. 2017 New Phytologist	Julieta	Rosell	Universidad Nacional Autonoma de México	
2668907	23687408	39718	Ozothamnus ledifolius	146.589347	-42.683857			Stem construction type	Dataset for Rosell et al. 2017 New Phytologist	Julieta	Rosell	Universidad Nacional Autonoma de México	
2668907	23687411	39718	Ozothamnus ledifolius	146.589347	-42.683857			Bark thickness	Dataset for Rosell et al. 2017 New Phytologist	Julieta	Rosell	Universidad Nacional Autonoma de México	
2668090	23678368	39718	Ozothamnus ledifolius	146.589347	-42.683857			Bark thickness	Dataset for Rosell 2016 New Phytologist	Julieta	Rosell	Universidad Nacional Autonoma de México	
2668907	23687410	39718	Ozothamnus ledifolius	146.589347	-42.683857			Stem diameter	Dataset for Rosell et al. 2017 New Phytologist	Julieta	Rosell	Universidad Nacional Autonoma de México	
2668090	23678367	39718	Ozothamnus ledifolius	146.589347	-42.683857			Stem diameter	Dataset for Rosell 2016 New Phytologist	Julieta	Rosell	Universidad Nacional Autonoma de México	
2668907	23687409	39718	Ozothamnus ledifolius	146.589347	-42.683857			Plant growth form	Dataset for Rosell et al. 2017 New Phytologist	Julieta	Rosell	Universidad Nacional Autonoma de México	
2668933	23687711	41218	Persoonia juniperina	147	-42.4			Bark thickness	Dataset for Rosell et al. 2017 New Phytologist	Julieta	Rosell	Universidad Nacional Autonoma de México	
4523779	50625503	41218	Persoonia juniperina	147	-42.4			Plant woodiness	Plant Hydraulic Traits	Stefano	Manzoni	Stockholm University	
2668105	23678494	41218	Persoonia juniperina	147	-42.4			Stem diameter	Dataset for Rosell 2016 New Phytologist	Julieta	Rosell	Universidad Nacional Autonoma de México	
2668105	23678497	41218	Persoonia juniperina	147	-42.4			Bark thickness (outer bark)	Dataset for Rosell 2016 New Phytologist	Julieta	Rosell	Universidad Nacional Autonoma de México	
2668933	23687710	41218	Persoonia juniperina	147	-42.4			Stem diameter	Dataset for Rosell et al. 2017 New Phytologist	Julieta	Rosell	Universidad Nacional Autonoma de México	
4523779	50625497	41218	Persoonia juniperina	147	-42.4			Wood (sapwood) specific conductivity (stem specific conductivity)	Plant Hydraulic Traits	Stefano	Manzoni	Stockholm University	
2668933	23687713	41218	Persoonia juniperina	147	-42.4			Bark thickness (outer bark)	Dataset for Rosell et al. 2017 New Phytologist	Julieta	Rosell	Universidad Nacional Autonoma de México	
2668105	23678496	41218	Persoonia juniperina	147	-42.4			Bark thickness (inner bark)	Dataset for Rosell 2016 New Phytologist	Julieta	Rosell	Universidad Nacional Autonoma de México	
2668933	23687709	41218	Persoonia juniperina	147	-42.4			Plant growth form	Dataset for Rosell et al. 2017 New Phytologist	Julieta	Rosell	Universidad Nacional Autonoma de México	
4523779	50625496	41218	Persoonia juniperina	147	-42.4			Leaf area-specific conductivity (leaf specific conductivity)	Plant Hydraulic Traits	Stefano	Manzoni	Stockholm University	
2668933	23687712	41218	Persoonia juniperina	147	-42.4			Bark thickness (inner bark)	Dataset for Rosell et al. 2017 New Phytologist	Julieta	Rosell	Universidad Nacional Autonoma de México	
4523779	50625504	41218	Persoonia juniperina	147	-42.4			Leaf phenology type	Plant Hydraulic Traits	Stefano	Manzoni	Stockholm University	
2668105	23678495	41218	Persoonia juniperina	147	-42.4			Bark thickness	Dataset for Rosell 2016 New Phytologist	Julieta	Rosell	Universidad Nacional Autonoma de México	
2668933	23687708	41218	Persoonia juniperina	147	-42.4			Stem construction type	Dataset for Rosell et al. 2017 New Phytologist	Julieta	Rosell	Universidad Nacional Autonoma de México	
2668941	23687806	93078	Pherosphaera hookeriana	146.589347	-42.683857			Bark thickness (inner bark)	Dataset for Rosell et al. 2017 New Phytologist	Julieta	Rosell	Universidad Nacional Autonoma de México	
2668941	23687802	93078	Pherosphaera hookeriana	146.589347	-42.683857			Stem construction type	Dataset for Rosell et al. 2017 New Phytologist	Julieta	Rosell	Universidad Nacional Autonoma de México	
2668941	23687805	93078	Pherosphaera hookeriana	146.589347	-42.683857			Bark thickness	Dataset for Rosell et al. 2017 New Phytologist	Julieta	Rosell	Universidad Nacional Autonoma de México	
2668941	23687804	93078	Pherosphaera hookeriana	146.589347	-42.683857			Stem diameter	Dataset for Rosell et al. 2017 New Phytologist	Julieta	Rosell	Universidad Nacional Autonoma de México	
2668941	23687807	93078	Pherosphaera hookeriana	146.589347	-42.683857			Bark thickness (outer bark)	Dataset for Rosell et al. 2017 New Phytologist	Julieta	Rosell	Universidad Nacional Autonoma de México	
2668941	23687803	93078	Pherosphaera hookeriana	146.589347	-42.683857			Plant growth form	Dataset for Rosell et al. 2017 New Phytologist	Julieta	Rosell	Universidad Nacional Autonoma de México	
2460942	20011036	41799	Phyllocladus aspleniifolius	146.7242	-43.0951	88		Leaf area per leaf dry mass (specific leaf area, SLA or 1/LMA): petiole included	Global Respiration Database	Owen	Atkin	Australian National University	
799231	4584764	41799	Phyllocladus aspleniifolius	145.6	-42.45	0	1991-11-12	Leaf phenology type	VegClass CBM Global Database	Andy	Gillison	Center for Biodiversity Management	
2460942	20011015	41799	Phyllocladus aspleniifolius	146.7242	-43.0951	88		Leaf photosynthesis: intercellular CO2 concentration	Global Respiration Database	Owen	Atkin	Australian National University	
2460942	20011029	41799	Phyllocladus aspleniifolius	146.7242	-43.0951	88		Leaf respiration rate in the dark per leaf dry mass	Global Respiration Database	Owen	Atkin	Australian National University	
1254759	4584767	41799	Phyllocladus aspleniifolius	145.6	-42.45	0	1991-11-12	Plant life form (Raunkiaer life form)	VegClass CBM Global Database	Andy	Gillison	Center for Biodiversity Management	
2460942	20011039	41799	Phyllocladus aspleniifolius	146.7242	-43.0951	88		Leaf photosynthesis carboxylation capacity (Vcmax) per leaf dry mass (Farquhar model)	Global Respiration Database	Owen	Atkin	Australian National University	
2668948	23687885	41799	Phyllocladus aspleniifolius	146.45945	-42.336			Plant growth form	Dataset for Rosell et al. 2017 New Phytologist	Julieta	Rosell	Universidad Nacional Autonoma de México	
2460942	20011006	41799	Phyllocladus aspleniifolius	146.7242	-43.0951	88		Plant functional type (PFT)	Global Respiration Database	Owen	Atkin	Australian National University	
2460942	20011020	41799	Phyllocladus aspleniifolius	146.7242	-43.0951	88		Leaf respiration rate in the dark per leaf dry mass	Global Respiration Database	Owen	Atkin	Australian National University	
2460942	20011032	41799	Phyllocladus aspleniifolius	146.7242	-43.0951	88		Leaf nitrogen (N) content per leaf dry mass	Global Respiration Database	Owen	Atkin	Australian National University	
2460942	50885656	41799	Phyllocladus aspleniifolius	146.7242	-43.0951	88		Leaf photosynthesis carboxylation capacity (Vcmax) per leaf dry mass (Farquhar model)	Global Respiration Database	Owen	Atkin	Australian National University	
2668948	23687888	41799	Phyllocladus aspleniifolius	146.45945	-42.336			Bark thickness (inner bark)	Dataset for Rosell et al. 2017 New Phytologist	Julieta	Rosell	Universidad Nacional Autonoma de México	
799231	4584740	41799	Phyllocladus aspleniifolius	145.6	-42.45	0	1991-11-12	Plant functional type (PFT)	VegClass CBM Global Database	Andy	Gillison	Center for Biodiversity Management	
2460942	20011009	41799	Phyllocladus aspleniifolius	146.7242	-43.0951	88		Plant functional type (PFT)	Global Respiration Database	Owen	Atkin	Australian National University	
2460942	20011025	41799	Phyllocladus aspleniifolius	146.7242	-43.0951	88		Leaf respiration rate in the dark per leaf area	Global Respiration Database	Owen	Atkin	Australian National University	
2460942	20011035	41799	Phyllocladus aspleniifolius	146.7242	-43.0951	88		Leaf phosphorus (P) content per leaf area	Global Respiration Database	Owen	Atkin	Australian National University	
1221554	4584761	41799	Phyllocladus aspleniifolius	145.6	-42.45	0	1991-11-12	Leaf angle (inclination, orientation)	VegClass CBM Global Database	Andy	Gillison	Center for Biodiversity Management	
799231	4584763	41799	Phyllocladus aspleniifolius	145.6	-42.45	0	1991-11-12	Leaf type	VegClass CBM Global Database	Andy	Gillison	Center for Biodiversity Management	
2460942	20011014	41799	Phyllocladus aspleniifolius	146.7242	-43.0951	88		Stomata conductance per leaf area	Global Respiration Database	Owen	Atkin	Australian National University	
2460942	20011028	41799	Phyllocladus aspleniifolius	146.7242	-43.0951	88		Leaf respiration rate in the dark per leaf area	Global Respiration Database	Owen	Atkin	Australian National University	
2460942	20011038	41799	Phyllocladus aspleniifolius	146.7242	-43.0951	88		Leaf photosynthesis carboxylation capacity (Vcmax) per leaf area (Farquhar model)	Global Respiration Database	Owen	Atkin	Australian National University	
2668948	23687884	41799	Phyllocladus aspleniifolius	146.45945	-42.336			Stem construction type	Dataset for Rosell et al. 2017 New Phytologist	Julieta	Rosell	Universidad Nacional Autonoma de México	
2460942	20011005	41799	Phyllocladus aspleniifolius	146.7242	-43.0951	88		Plant functional type (PFT)	Global Respiration Database	Owen	Atkin	Australian National University	
799231	4584766	41799	Phyllocladus aspleniifolius	145.6	-42.45	0	1991-11-12	Plant woodiness	VegClass CBM Global Database	Andy	Gillison	Center for Biodiversity Management	
2460942	20011019	41799	Phyllocladus aspleniifolius	146.7242	-43.0951	88		Leaf photosynthesis rate per leaf dry mass	Global Respiration Database	Owen	Atkin	Australian National University	
2460942	20011031	41799	Phyllocladus aspleniifolius	146.7242	-43.0951	88		Leaf respiration rate in the dark per leaf dry mass	Global Respiration Database	Owen	Atkin	Australian National University	
2460942	20011041	41799	Phyllocladus aspleniifolius	146.7242	-43.0951	88		Leaf respiration rate in the dark as fraction of photosynthetic carboxylation capacity (Vcmax)	Global Respiration Database	Owen	Atkin	Australian National University	
2668948	23687887	41799	Phyllocladus aspleniifolius	146.45945	-42.336			Bark thickness	Dataset for Rosell et al. 2017 New Phytologist	Julieta	Rosell	Universidad Nacional Autonoma de México	
2460942	20011008	41799	Phyllocladus aspleniifolius	146.7242	-43.0951	88		Plant functional type (PFT)	Global Respiration Database	Owen	Atkin	Australian National University	
2460942	20011024	41799	Phyllocladus aspleniifolius	146.7242	-43.0951	88		Leaf respiration rate in the dark per leaf dry mass	Global Respiration Database	Owen	Atkin	Australian National University	
2460942	20011034	41799	Phyllocladus aspleniifolius	146.7242	-43.0951	88		Leaf nitrogen (N) content per leaf area	Global Respiration Database	Owen	Atkin	Australian National University	
799231	4584762	41799	Phyllocladus aspleniifolius	145.6	-42.45	0	1991-11-12	Leaf angle (inclination, orientation)	VegClass CBM Global Database	Andy	Gillison	Center for Biodiversity Management	
2460942	20011013	41799	Phyllocladus aspleniifolius	146.7242	-43.0951	88		Leaf photosynthesis rate per leaf area	Global Respiration Database	Owen	Atkin	Australian National University	
2460942	20011027	41799	Phyllocladus aspleniifolius	146.7242	-43.0951	88		Leaf respiration rate in the dark per leaf dry mass	Global Respiration Database	Owen	Atkin	Australian National University	
2460942	20011037	41799	Phyllocladus aspleniifolius	146.7242	-43.0951	88		Leaf photosynthesis carboxylation capacity (Vcmax) per leaf area (Farquhar model)	Global Respiration Database	Owen	Atkin	Australian National University	
799231	4584765	41799	Phyllocladus aspleniifolius	145.6	-42.45	0	1991-11-12	Plant life form (Raunkiaer life form)	VegClass CBM Global Database	Andy	Gillison	Center for Biodiversity Management	
2460942	20011017	41799	Phyllocladus aspleniifolius	146.7242	-43.0951	88		Leaf respiration rate in the dark per leaf area	Global Respiration Database	Owen	Atkin	Australian National University	
2460942	20011030	41799	Phyllocladus aspleniifolius	146.7242	-43.0951	88		Leaf respiration rate in the dark per leaf area	Global Respiration Database	Owen	Atkin	Australian National University	
2460942	20011040	41799	Phyllocladus aspleniifolius	146.7242	-43.0951	88		Leaf respiration rate in the dark as fraction of photosynthetic carboxylation capacity (Vcmax)	Global Respiration Database	Owen	Atkin	Australian National University	
2668948	23687886	41799	Phyllocladus aspleniifolius	146.45945	-42.336			Stem diameter	Dataset for Rosell et al. 2017 New Phytologist	Julieta	Rosell	Universidad Nacional Autonoma de México	
2460942	20011007	41799	Phyllocladus aspleniifolius	146.7242	-43.0951	88		Plant functional type (PFT)	Global Respiration Database	Owen	Atkin	Australian National University	
2460942	20011023	41799	Phyllocladus aspleniifolius	146.7242	-43.0951	88		Leaf respiration rate in the dark per leaf area	Global Respiration Database	Owen	Atkin	Australian National University	
2460942	20011033	41799	Phyllocladus aspleniifolius	146.7242	-43.0951	88		Leaf phosphorus (P) content per leaf dry mass	Global Respiration Database	Owen	Atkin	Australian National University	
2460942	50949703	41799	Phyllocladus aspleniifolius	146.7242	-43.0951	88		Stomata conductance per leaf dry mass	Global Respiration Database	Owen	Atkin	Australian National University	
2668948	23687889	41799	Phyllocladus aspleniifolius	146.45945	-42.336			Bark thickness (outer bark)	Dataset for Rosell et al. 2017 New Phytologist	Julieta	Rosell	Universidad Nacional Autonoma de México	
799231	4584758	41799	Phyllocladus aspleniifolius	145.6	-42.45	0	1991-11-12	Leaf area (in case of compound leaves: leaflet, undefined if petiole is in- or excluded)	VegClass CBM Global Database	Andy	Gillison	Center for Biodiversity Management	
2460942	20011010	41799	Phyllocladus aspleniifolius	146.7242	-43.0951	88		Plant functional type (PFT)	Global Respiration Database	Owen	Atkin	Australian National University	
2460942	20011026	41799	Phyllocladus aspleniifolius	146.7242	-43.0951	88		Leaf respiration rate in the dark per leaf area	Global Respiration Database	Owen	Atkin	Australian National University	
2391669	19733522	42038	Pimelea sericea	147.2353	-42.8964	1271		Plant growth form	Global leaf size dataset	Ian	Wright	Macquarie University	
2391669	19733525	42038	Pimelea sericea	147.2353	-42.8964	1271		Leaf compoundness	Global leaf size dataset	Ian	Wright	Macquarie University	
2391669	19733531	42038	Pimelea sericea	147.2353	-42.8964	1271		Leaflet number per leaf	Global leaf size dataset	Ian	Wright	Macquarie University	
2391669	19733524	42038	Pimelea sericea	147.2353	-42.8964	1271		Leaf phenology type	Global leaf size dataset	Ian	Wright	Macquarie University	
2391669	19733527	42038	Pimelea sericea	147.2353	-42.8964	1271		Leaf area (in case of compound leaves: leaf, undefined if petiole in- or excluded)	Global leaf size dataset	Ian	Wright	Macquarie University	
2391669	19733523	42038	Pimelea sericea	147.2353	-42.8964	1271		Plant woodiness	Global leaf size dataset	Ian	Wright	Macquarie University	
2391669	19733526	42038	Pimelea sericea	147.2353	-42.8964	1271		Leaf area (in case of compound leaves: leaflet, undefined if petiole is in- or excluded)	Global leaf size dataset	Ian	Wright	Macquarie University	
4449344	49748751	42174	Pinus radiata	145.3131	-42.1433	14		Leaf phenology type	FRED - Fine Root Ecology Database	Colleen	Iversen		
4449344	49748754	42174	Pinus radiata	145.3131	-42.1433	14		Plant growth form	FRED - Fine Root Ecology Database	Colleen	Iversen		
4449344	49748761	42174	Pinus radiata	145.3131	-42.1433	14		Root rooting depth	FRED - Fine Root Ecology Database	Colleen	Iversen		
2750409	25316807	42174	Pinus radiata	145.3131	-42.1433	14		Root rooting depth	Global Dataset of Maximum Rooting Depth	Ying	Fan Reinfelder	Rutgers University	
4449344	49748753	42174	Pinus radiata	145.3131	-42.1433	14		Leaf photosynthesis pathway	FRED - Fine Root Ecology Database	Colleen	Iversen		
4449344	49748760	42174	Pinus radiata	145.3131	-42.1433	14		Mycorrhiza type	FRED - Fine Root Ecology Database	Colleen	Iversen		
2750409	25316820	42174	Pinus radiata	145.3131	-42.1433	14		Leaf type	Global Dataset of Maximum Rooting Depth	Ying	Fan Reinfelder	Rutgers University	
4449344	49748752	42174	Pinus radiata	145.3131	-42.1433	14		Leaf type	FRED - Fine Root Ecology Database	Colleen	Iversen		
4449344	49748755	42174	Pinus radiata	145.3131	-42.1433	14		Plant woodiness	FRED - Fine Root Ecology Database	Colleen	Iversen		
2750409	25316819	42174	Pinus radiata	145.3131	-42.1433	14		Leaf phenology type	Global Dataset of Maximum Rooting Depth	Ying	Fan Reinfelder	Rutgers University	
2460943	20011083	42411	Pittosporum bicolor	146.7242	-43.0951	88		Leaf respiration rate in the dark per leaf area	Global Respiration Database	Owen	Atkin	Australian National University	
2460943	20011093	42411	Pittosporum bicolor	146.7242	-43.0951	88		Leaf respiration rate in the dark as fraction of photosynthetic carboxylation capacity (Vcmax)	Global Respiration Database	Owen	Atkin	Australian National University	
2460943	20011060	42411	Pittosporum bicolor	146.7242	-43.0951	88		Plant functional type (PFT)	Global Respiration Database	Owen	Atkin	Australian National University	
2460943	20011076	42411	Pittosporum bicolor	146.7242	-43.0951	88		Leaf respiration rate in the dark per leaf area	Global Respiration Database	Owen	Atkin	Australian National University	
2460943	20011086	42411	Pittosporum bicolor	146.7242	-43.0951	88		Leaf phosphorus (P) content per leaf dry mass	Global Respiration Database	Owen	Atkin	Australian National University	
2460943	50949704	42411	Pittosporum bicolor	146.7242	-43.0951	88		Stomata conductance per leaf dry mass	Global Respiration Database	Owen	Atkin	Australian National University	
2460943	20011063	42411	Pittosporum bicolor	146.7242	-43.0951	88		Plant functional type (PFT)	Global Respiration Database	Owen	Atkin	Australian National University	
2460943	20011079	42411	Pittosporum bicolor	146.7242	-43.0951	88		Leaf respiration rate in the dark per leaf area	Global Respiration Database	Owen	Atkin	Australian National University	
2460943	20011089	42411	Pittosporum bicolor	146.7242	-43.0951	88		Leaf area per leaf dry mass (specific leaf area, SLA or 1/LMA): petiole included	Global Respiration Database	Owen	Atkin	Australian National University	
2460943	20011068	42411	Pittosporum bicolor	146.7242	-43.0951	88		Leaf photosynthesis: intercellular CO2 concentration	Global Respiration Database	Owen	Atkin	Australian National University	
2460943	20011082	42411	Pittosporum bicolor	146.7242	-43.0951	88		Leaf respiration rate in the dark per leaf dry mass	Global Respiration Database	Owen	Atkin	Australian National University	
2460943	20011092	42411	Pittosporum bicolor	146.7242	-43.0951	88		Leaf photosynthesis carboxylation capacity (Vcmax) per leaf dry mass (Farquhar model)	Global Respiration Database	Owen	Atkin	Australian National University	
2460943	20011059	42411	Pittosporum bicolor	146.7242	-43.0951	88		Plant functional type (PFT)	Global Respiration Database	Owen	Atkin	Australian National University	
2460943	20011073	42411	Pittosporum bicolor	146.7242	-43.0951	88		Leaf respiration rate in the dark per leaf dry mass	Global Respiration Database	Owen	Atkin	Australian National University	
2460943	20011085	42411	Pittosporum bicolor	146.7242	-43.0951	88		Leaf nitrogen (N) content per leaf dry mass	Global Respiration Database	Owen	Atkin	Australian National University	
2460943	50885657	42411	Pittosporum bicolor	146.7242	-43.0951	88		Leaf photosynthesis carboxylation capacity (Vcmax) per leaf dry mass (Farquhar model)	Global Respiration Database	Owen	Atkin	Australian National University	
2460943	20011062	42411	Pittosporum bicolor	146.7242	-43.0951	88		Plant functional type (PFT)	Global Respiration Database	Owen	Atkin	Australian National University	
2460943	20011078	42411	Pittosporum bicolor	146.7242	-43.0951	88		Leaf respiration rate in the dark per leaf area	Global Respiration Database	Owen	Atkin	Australian National University	
2460943	20011088	42411	Pittosporum bicolor	146.7242	-43.0951	88		Leaf phosphorus (P) content per leaf area	Global Respiration Database	Owen	Atkin	Australian National University	
2460943	20011067	42411	Pittosporum bicolor	146.7242	-43.0951	88		Stomata conductance per leaf area	Global Respiration Database	Owen	Atkin	Australian National University	
2460943	20011081	42411	Pittosporum bicolor	146.7242	-43.0951	88		Leaf respiration rate in the dark per leaf area	Global Respiration Database	Owen	Atkin	Australian National University	
2460943	20011091	42411	Pittosporum bicolor	146.7242	-43.0951	88		Leaf photosynthesis carboxylation capacity (Vcmax) per leaf area (Farquhar model)	Global Respiration Database	Owen	Atkin	Australian National University	
2460943	20011058	42411	Pittosporum bicolor	146.7242	-43.0951	88		Plant functional type (PFT)	Global Respiration Database	Owen	Atkin	Australian National University	
2460943	20011072	42411	Pittosporum bicolor	146.7242	-43.0951	88		Leaf photosynthesis rate per leaf dry mass	Global Respiration Database	Owen	Atkin	Australian National University	
2460943	20011084	42411	Pittosporum bicolor	146.7242	-43.0951	88		Leaf respiration rate in the dark per leaf dry mass	Global Respiration Database	Owen	Atkin	Australian National University	
2460943	20011094	42411	Pittosporum bicolor	146.7242	-43.0951	88		Leaf respiration rate in the dark as fraction of photosynthetic carboxylation capacity (Vcmax)	Global Respiration Database	Owen	Atkin	Australian National University	
2460943	20011061	42411	Pittosporum bicolor	146.7242	-43.0951	88		Plant functional type (PFT)	Global Respiration Database	Owen	Atkin	Australian National University	
2460943	20011077	42411	Pittosporum bicolor	146.7242	-43.0951	88		Leaf respiration rate in the dark per leaf dry mass	Global Respiration Database	Owen	Atkin	Australian National University	
2460943	20011087	42411	Pittosporum bicolor	146.7242	-43.0951	88		Leaf nitrogen (N) content per leaf area	Global Respiration Database	Owen	Atkin	Australian National University	
2460943	20011066	42411	Pittosporum bicolor	146.7242	-43.0951	88		Leaf photosynthesis rate per leaf area	Global Respiration Database	Owen	Atkin	Australian National University	
2460943	20011080	42411	Pittosporum bicolor	146.7242	-43.0951	88		Leaf respiration rate in the dark per leaf dry mass	Global Respiration Database	Owen	Atkin	Australian National University	
2460943	20011090	42411	Pittosporum bicolor	146.7242	-43.0951	88		Leaf photosynthesis carboxylation capacity (Vcmax) per leaf area (Farquhar model)	Global Respiration Database	Owen	Atkin	Australian National University	
2460943	20011070	42411	Pittosporum bicolor	146.7242	-43.0951	88		Leaf respiration rate in the dark per leaf area	Global Respiration Database	Owen	Atkin	Australian National University	
1728437	12647229	42914	Podocarpus drouynianus	147.324722222222	-42.905	60		Wood vessels surrounded by tracheids (vasicentric tracheids)	Xylem Functional Traits (XFT) Database	Steven	Jansen	Ulm University	
1728437	12647219	42914	Podocarpus drouynianus	147.324722222222	-42.905	60		Xylem hydraulic vulnerability, xylem cavitation vulnerability, embolism vulnerability, (P20, P50, P8	Xylem Functional Traits (XFT) Database	Steven	Jansen	Ulm University	
1728437	12647222	42914	Podocarpus drouynianus	147.324722222222	-42.905	60		Xylem hydraulic vulnerability, xylem cavitation vulnerability, embolism vulnerability, (P20, P50, P8	Xylem Functional Traits (XFT) Database	Steven	Jansen	Ulm University	
1728437	12647228	42914	Podocarpus drouynianus	147.324722222222	-42.905	60		Wood fibre types	Xylem Functional Traits (XFT) Database	Steven	Jansen	Ulm University	
1728437	12647218	42914	Podocarpus drouynianus	147.324722222222	-42.905	60		Plant life form (Raunkiaer life form)	Xylem Functional Traits (XFT) Database	Steven	Jansen	Ulm University	
1728437	12647231	42914	Podocarpus drouynianus	147.324722222222	-42.905	60		Leaf phenology type	Xylem Functional Traits (XFT) Database	Steven	Jansen	Ulm University	
1728437	12647221	42914	Podocarpus drouynianus	147.324722222222	-42.905	60		Xylem hydraulic vulnerability, xylem cavitation vulnerability, embolism vulnerability, (P20, P50, P8	Xylem Functional Traits (XFT) Database	Steven	Jansen	Ulm University	
1728437	12647227	42914	Podocarpus drouynianus	147.324722222222	-42.905	60		Wood vessel perforation plates	Xylem Functional Traits (XFT) Database	Steven	Jansen	Ulm University	
1728437	12647216	42914	Podocarpus drouynianus	147.324722222222	-42.905	60		Plant growth form	Xylem Functional Traits (XFT) Database	Steven	Jansen	Ulm University	
1728437	12647230	42914	Podocarpus drouynianus	147.324722222222	-42.905	60		Wood vessel grouping	Xylem Functional Traits (XFT) Database	Steven	Jansen	Ulm University	
1728437	12647220	42914	Podocarpus drouynianus	147.324722222222	-42.905	60		Xylem hydraulic vulnerability, xylem cavitation vulnerability, embolism vulnerability, (P20, P50, P8	Xylem Functional Traits (XFT) Database	Steven	Jansen	Ulm University	
1728437	12647226	42914	Podocarpus drouynianus	147.324722222222	-42.905	60		Wood growth ring distinction	Xylem Functional Traits (XFT) Database	Steven	Jansen	Ulm University	
1728439	12647421	42935	Podocarpus lawrencei	147.324722222222	-42.905	60		Leaf area-specific conductivity (leaf specific conductivity)	Xylem Functional Traits (XFT) Database	Steven	Jansen	Ulm University	
1728439	12647410	42935	Podocarpus lawrencei	147.324722222222	-42.905	60		Plant growth form	Xylem Functional Traits (XFT) Database	Steven	Jansen	Ulm University	
1728439	12647424	42935	Podocarpus lawrencei	147.324722222222	-42.905	60		Wood fibre types	Xylem Functional Traits (XFT) Database	Steven	Jansen	Ulm University	
1728439	12647414	42935	Podocarpus lawrencei	147.324722222222	-42.905	60		Xylem hydraulic vulnerability, xylem cavitation vulnerability, embolism vulnerability, (P20, P50, P8	Xylem Functional Traits (XFT) Database	Steven	Jansen	Ulm University	
1728439	12647427	42935	Podocarpus lawrencei	147.324722222222	-42.905	60		Leaf phenology type	Xylem Functional Traits (XFT) Database	Steven	Jansen	Ulm University	
1728439	12647420	42935	Podocarpus lawrencei	147.324722222222	-42.905	60		Wood (sapwood) specific conductivity (stem specific conductivity)	Xylem Functional Traits (XFT) Database	Steven	Jansen	Ulm University	
1728439	12647423	42935	Podocarpus lawrencei	147.324722222222	-42.905	60		Wood vessel perforation plates	Xylem Functional Traits (XFT) Database	Steven	Jansen	Ulm University	
1728439	12647413	42935	Podocarpus lawrencei	147.324722222222	-42.905	60		Xylem hydraulic vulnerability, xylem cavitation vulnerability, embolism vulnerability, (P20, P50, P8	Xylem Functional Traits (XFT) Database	Steven	Jansen	Ulm University	
1728439	12647426	42935	Podocarpus lawrencei	147.324722222222	-42.905	60		Wood vessel grouping	Xylem Functional Traits (XFT) Database	Steven	Jansen	Ulm University	
1728439	12647416	42935	Podocarpus lawrencei	147.324722222222	-42.905	60		Xylem hydraulic vulnerability, xylem cavitation vulnerability, embolism vulnerability, (P20, P50, P8	Xylem Functional Traits (XFT) Database	Steven	Jansen	Ulm University	
1728439	12647422	42935	Podocarpus lawrencei	147.324722222222	-42.905	60		Wood growth ring distinction	Xylem Functional Traits (XFT) Database	Steven	Jansen	Ulm University	
1728439	12647412	42935	Podocarpus lawrencei	147.324722222222	-42.905	60		Plant life form (Raunkiaer life form)	Xylem Functional Traits (XFT) Database	Steven	Jansen	Ulm University	
1728439	12647425	42935	Podocarpus lawrencei	147.324722222222	-42.905	60		Wood vessels surrounded by tracheids (vasicentric tracheids)	Xylem Functional Traits (XFT) Database	Steven	Jansen	Ulm University	
1728439	12647415	42935	Podocarpus lawrencei	147.324722222222	-42.905	60		Xylem hydraulic vulnerability, xylem cavitation vulnerability, embolism vulnerability, (P20, P50, P8	Xylem Functional Traits (XFT) Database	Steven	Jansen	Ulm University	
799216	4584241	254325	Pomaderris	145.3	-42.183333	2	1991-11-12	Leaf type	VegClass CBM Global Database	Andy	Gillison	Center for Biodiversity Management	
799216	4584244	254325	Pomaderris	145.3	-42.183333	2	1991-11-12	Plant woodiness	VegClass CBM Global Database	Andy	Gillison	Center for Biodiversity Management	
1254735	4584246	254325	Pomaderris	145.3	-42.183333	2	1991-11-12	Plant life form (Raunkiaer life form)	VegClass CBM Global Database	Andy	Gillison	Center for Biodiversity Management	
799216	4584239	254325	Pomaderris	145.3	-42.183333	2	1991-11-12	Leaf angle (inclination, orientation)	VegClass CBM Global Database	Andy	Gillison	Center for Biodiversity Management	
799216	4584243	254325	Pomaderris	145.3	-42.183333	2	1991-11-12	Plant life form (Raunkiaer life form)	VegClass CBM Global Database	Andy	Gillison	Center for Biodiversity Management	
1254734	4584245	254325	Pomaderris	145.3	-42.183333	2	1991-11-12	Plant life form (Raunkiaer life form)	VegClass CBM Global Database	Andy	Gillison	Center for Biodiversity Management	
799216	4584236	254325	Pomaderris	145.3	-42.183333	2	1991-11-12	Leaf area (in case of compound leaves: leaflet, undefined if petiole is in- or excluded)	VegClass CBM Global Database	Andy	Gillison	Center for Biodiversity Management	
1221539	4584240	254325	Pomaderris	145.3	-42.183333	2	1991-11-12	Leaf angle (inclination, orientation)	VegClass CBM Global Database	Andy	Gillison	Center for Biodiversity Management	
799216	4584242	254325	Pomaderris	145.3	-42.183333	2	1991-11-12	Leaf phenology type	VegClass CBM Global Database	Andy	Gillison	Center for Biodiversity Management	
799216	4584214	254325	Pomaderris	145.3	-42.183333	2	1991-11-12	Plant functional type (PFT)	VegClass CBM Global Database	Andy	Gillison	Center for Biodiversity Management	
2460944	20011130	254332	Pomatoderris apetala	146.7242	-43.0951	88		Leaf respiration rate in the dark per leaf dry mass	Global Respiration Database	Owen	Atkin	Australian National University	
2460944	20011140	254332	Pomatoderris apetala	146.7242	-43.0951	88		Leaf nitrogen (N) content per leaf area	Global Respiration Database	Owen	Atkin	Australian National University	
2460944	20011119	254332	Pomatoderris apetala	146.7242	-43.0951	88		Leaf photosynthesis rate per leaf area	Global Respiration Database	Owen	Atkin	Australian National University	
2460944	20011133	254332	Pomatoderris apetala	146.7242	-43.0951	88		Leaf respiration rate in the dark per leaf dry mass	Global Respiration Database	Owen	Atkin	Australian National University	
2460944	20011143	254332	Pomatoderris apetala	146.7242	-43.0951	88		Leaf photosynthesis carboxylation capacity (Vcmax) per leaf area (Farquhar model)	Global Respiration Database	Owen	Atkin	Australian National University	
2460944	20011123	254332	Pomatoderris apetala	146.7242	-43.0951	88		Leaf respiration rate in the dark per leaf area	Global Respiration Database	Owen	Atkin	Australian National University	
2460944	20011136	254332	Pomatoderris apetala	146.7242	-43.0951	88		Leaf respiration rate in the dark per leaf area	Global Respiration Database	Owen	Atkin	Australian National University	
2460944	20011146	254332	Pomatoderris apetala	146.7242	-43.0951	88		Leaf respiration rate in the dark as fraction of photosynthetic carboxylation capacity (Vcmax)	Global Respiration Database	Owen	Atkin	Australian National University	
2460944	20011113	254332	Pomatoderris apetala	146.7242	-43.0951	88		Plant functional type (PFT)	Global Respiration Database	Owen	Atkin	Australian National University	
2460944	20011129	254332	Pomatoderris apetala	146.7242	-43.0951	88		Leaf respiration rate in the dark per leaf area	Global Respiration Database	Owen	Atkin	Australian National University	
2460944	20011139	254332	Pomatoderris apetala	146.7242	-43.0951	88		Leaf phosphorus (P) content per leaf dry mass	Global Respiration Database	Owen	Atkin	Australian National University	
2460944	50949705	254332	Pomatoderris apetala	146.7242	-43.0951	88		Stomata conductance per leaf dry mass	Global Respiration Database	Owen	Atkin	Australian National University	
2460944	20011116	254332	Pomatoderris apetala	146.7242	-43.0951	88		Plant functional type (PFT)	Global Respiration Database	Owen	Atkin	Australian National University	
2460944	20011132	254332	Pomatoderris apetala	146.7242	-43.0951	88		Leaf respiration rate in the dark per leaf area	Global Respiration Database	Owen	Atkin	Australian National University	
2460944	20011142	254332	Pomatoderris apetala	146.7242	-43.0951	88		Leaf area per leaf dry mass (specific leaf area, SLA or 1/LMA): petiole included	Global Respiration Database	Owen	Atkin	Australian National University	
2460944	20011121	254332	Pomatoderris apetala	146.7242	-43.0951	88		Leaf photosynthesis: intercellular CO2 concentration	Global Respiration Database	Owen	Atkin	Australian National University	
2460944	20011135	254332	Pomatoderris apetala	146.7242	-43.0951	88		Leaf respiration rate in the dark per leaf dry mass	Global Respiration Database	Owen	Atkin	Australian National University	
2460944	20011145	254332	Pomatoderris apetala	146.7242	-43.0951	88		Leaf photosynthesis carboxylation capacity (Vcmax) per leaf dry mass (Farquhar model)	Global Respiration Database	Owen	Atkin	Australian National University	
2460944	20011112	254332	Pomatoderris apetala	146.7242	-43.0951	88		Plant functional type (PFT)	Global Respiration Database	Owen	Atkin	Australian National University	
2460944	20011126	254332	Pomatoderris apetala	146.7242	-43.0951	88		Leaf respiration rate in the dark per leaf dry mass	Global Respiration Database	Owen	Atkin	Australian National University	
2460944	20011138	254332	Pomatoderris apetala	146.7242	-43.0951	88		Leaf nitrogen (N) content per leaf dry mass	Global Respiration Database	Owen	Atkin	Australian National University	
2460944	50885658	254332	Pomatoderris apetala	146.7242	-43.0951	88		Leaf photosynthesis carboxylation capacity (Vcmax) per leaf dry mass (Farquhar model)	Global Respiration Database	Owen	Atkin	Australian National University	
2460944	20011115	254332	Pomatoderris apetala	146.7242	-43.0951	88		Plant functional type (PFT)	Global Respiration Database	Owen	Atkin	Australian National University	
2460944	20011131	254332	Pomatoderris apetala	146.7242	-43.0951	88		Leaf respiration rate in the dark per leaf area	Global Respiration Database	Owen	Atkin	Australian National University	
2460944	20011141	254332	Pomatoderris apetala	146.7242	-43.0951	88		Leaf phosphorus (P) content per leaf area	Global Respiration Database	Owen	Atkin	Australian National University	
2460944	20011120	254332	Pomatoderris apetala	146.7242	-43.0951	88		Stomata conductance per leaf area	Global Respiration Database	Owen	Atkin	Australian National University	
2460944	20011134	254332	Pomatoderris apetala	146.7242	-43.0951	88		Leaf respiration rate in the dark per leaf area	Global Respiration Database	Owen	Atkin	Australian National University	
2460944	20011144	254332	Pomatoderris apetala	146.7242	-43.0951	88		Leaf photosynthesis carboxylation capacity (Vcmax) per leaf area (Farquhar model)	Global Respiration Database	Owen	Atkin	Australian National University	
2460944	20011111	254332	Pomatoderris apetala	146.7242	-43.0951	88		Plant functional type (PFT)	Global Respiration Database	Owen	Atkin	Australian National University	
2460944	20011125	254332	Pomatoderris apetala	146.7242	-43.0951	88		Leaf photosynthesis rate per leaf dry mass	Global Respiration Database	Owen	Atkin	Australian National University	
2460944	20011137	254332	Pomatoderris apetala	146.7242	-43.0951	88		Leaf respiration rate in the dark per leaf dry mass	Global Respiration Database	Owen	Atkin	Australian National University	
2460944	20011147	254332	Pomatoderris apetala	146.7242	-43.0951	88		Leaf respiration rate in the dark as fraction of photosynthetic carboxylation capacity (Vcmax)	Global Respiration Database	Owen	Atkin	Australian National University	
2460944	20011114	254332	Pomatoderris apetala	146.7242	-43.0951	88		Plant functional type (PFT)	Global Respiration Database	Owen	Atkin	Australian National University	
799222	4584460	44806	Pteridium esculentum	145.3	-42.183333	2	1991-11-12	Leaf angle (inclination, orientation)	VegClass CBM Global Database	Andy	Gillison	Center for Biodiversity Management	
799222	4584464	44806	Pteridium esculentum	145.3	-42.183333	2	1991-11-12	Plant life form (Raunkiaer life form)	VegClass CBM Global Database	Andy	Gillison	Center for Biodiversity Management	
1254745	4584467	44806	Pteridium esculentum	145.3	-42.183333	2	1991-11-12	Plant life form (Raunkiaer life form)	VegClass CBM Global Database	Andy	Gillison	Center for Biodiversity Management	
799222	4584457	44806	Pteridium esculentum	145.3	-42.183333	2	1991-11-12	Leaf area (in case of compound leaves: leaflet, undefined if petiole is in- or excluded)	VegClass CBM Global Database	Andy	Gillison	Center for Biodiversity Management	
799222	4584463	44806	Pteridium esculentum	145.3	-42.183333	2	1991-11-12	Leaf phenology type	VegClass CBM Global Database	Andy	Gillison	Center for Biodiversity Management	
799222	4584466	44806	Pteridium esculentum	145.3	-42.183333	2	1991-11-12	Plant woodiness	VegClass CBM Global Database	Andy	Gillison	Center for Biodiversity Management	
799222	4584435	44806	Pteridium esculentum	145.3	-42.183333	2	1991-11-12	Plant functional type (PFT)	VegClass CBM Global Database	Andy	Gillison	Center for Biodiversity Management	
799222	4584462	44806	Pteridium esculentum	145.3	-42.183333	2	1991-11-12	Leaf type	VegClass CBM Global Database	Andy	Gillison	Center for Biodiversity Management	
799222	4584465	44806	Pteridium esculentum	145.3	-42.183333	2	1991-11-12	Plant morphological adaptations: root metamorphoses	VegClass CBM Global Database	Andy	Gillison	Center for Biodiversity Management	
1254746	4584468	44806	Pteridium esculentum	145.3	-42.183333	2	1991-11-12	Plant life form (Raunkiaer life form)	VegClass CBM Global Database	Andy	Gillison	Center for Biodiversity Management	
1221545	4584461	44806	Pteridium esculentum	145.3	-42.183333	2	1991-11-12	Leaf angle (inclination, orientation)	VegClass CBM Global Database	Andy	Gillison	Center for Biodiversity Management	
2398946	19839495	45080	Pultenaea juniperina	145.6333	-42.9086	346		Leaf phenology type	Global leaf size dataset	Ian	Wright	Macquarie University	
2669025	23688804	45080	Pultenaea juniperina	147	-42.4			Stem diameter	Dataset for Rosell et al. 2017 New Phytologist	Julieta	Rosell	Universidad Nacional Autonoma de México	
2668162	23679006	45080	Pultenaea juniperina	147	-42.4			Bark thickness (outer bark)	Dataset for Rosell 2016 New Phytologist	Julieta	Rosell	Universidad Nacional Autonoma de México	
2398946	19839498	45080	Pultenaea juniperina	145.6333	-42.9086	346		Leaf area (in case of compound leaves: leaf, undefined if petiole in- or excluded)	Global leaf size dataset	Ian	Wright	Macquarie University	
2669025	23688807	45080	Pultenaea juniperina	147	-42.4			Bark thickness (outer bark)	Dataset for Rosell et al. 2017 New Phytologist	Julieta	Rosell	Universidad Nacional Autonoma de México	
4523780	50625508	45080	Pultenaea juniperina	147	-42.4			Wood (sapwood) specific conductivity (stem specific conductivity)	Plant Hydraulic Traits	Stefano	Manzoni	Stockholm University	
2398946	19839494	45080	Pultenaea juniperina	145.6333	-42.9086	346		Plant woodiness	Global leaf size dataset	Ian	Wright	Macquarie University	
2669025	23688803	45080	Pultenaea juniperina	147	-42.4			Plant growth form	Dataset for Rosell et al. 2017 New Phytologist	Julieta	Rosell	Universidad Nacional Autonoma de México	
2668162	23679005	45080	Pultenaea juniperina	147	-42.4			Bark thickness (inner bark)	Dataset for Rosell 2016 New Phytologist	Julieta	Rosell	Universidad Nacional Autonoma de México	
2398946	19839497	45080	Pultenaea juniperina	145.6333	-42.9086	346		Leaf area (in case of compound leaves: leaflet, undefined if petiole is in- or excluded)	Global leaf size dataset	Ian	Wright	Macquarie University	
2669025	23688806	45080	Pultenaea juniperina	147	-42.4			Bark thickness (inner bark)	Dataset for Rosell et al. 2017 New Phytologist	Julieta	Rosell	Universidad Nacional Autonoma de México	
4523780	50625507	45080	Pultenaea juniperina	147	-42.4			Leaf area-specific conductivity (leaf specific conductivity)	Plant Hydraulic Traits	Stefano	Manzoni	Stockholm University	
2398946	19839493	45080	Pultenaea juniperina	145.6333	-42.9086	346		Plant growth form	Global leaf size dataset	Ian	Wright	Macquarie University	
2669025	23688802	45080	Pultenaea juniperina	147	-42.4			Stem construction type	Dataset for Rosell et al. 2017 New Phytologist	Julieta	Rosell	Universidad Nacional Autonoma de México	
4523780	50625515	45080	Pultenaea juniperina	147	-42.4			Leaf phenology type	Plant Hydraulic Traits	Stefano	Manzoni	Stockholm University	
2668162	23679004	45080	Pultenaea juniperina	147	-42.4			Bark thickness	Dataset for Rosell 2016 New Phytologist	Julieta	Rosell	Universidad Nacional Autonoma de México	
2398946	19839496	45080	Pultenaea juniperina	145.6333	-42.9086	346		Leaf compoundness	Global leaf size dataset	Ian	Wright	Macquarie University	
2669025	23688805	45080	Pultenaea juniperina	147	-42.4			Bark thickness	Dataset for Rosell et al. 2017 New Phytologist	Julieta	Rosell	Universidad Nacional Autonoma de México	
2398946	19839502	45080	Pultenaea juniperina	145.6333	-42.9086	346		Leaflet number per leaf	Global leaf size dataset	Ian	Wright	Macquarie University	
4523780	50625514	45080	Pultenaea juniperina	147	-42.4			Plant woodiness	Plant Hydraulic Traits	Stefano	Manzoni	Stockholm University	
2668162	23679003	45080	Pultenaea juniperina	147	-42.4			Stem diameter	Dataset for Rosell 2016 New Phytologist	Julieta	Rosell	Universidad Nacional Autonoma de México	
2398947	19839513	45086	Pultenaea obcordata	145.6333	-42.9086	346		Leaf area (in case of compound leaves: leaf, undefined if petiole in- or excluded)	Global leaf size dataset	Ian	Wright	Macquarie University	
2398947	19839509	45086	Pultenaea obcordata	145.6333	-42.9086	346		Plant woodiness	Global leaf size dataset	Ian	Wright	Macquarie University	
2398947	19839512	45086	Pultenaea obcordata	145.6333	-42.9086	346		Leaf area (in case of compound leaves: leaflet, undefined if petiole is in- or excluded)	Global leaf size dataset	Ian	Wright	Macquarie University	
2398947	19839508	45086	Pultenaea obcordata	145.6333	-42.9086	346		Plant growth form	Global leaf size dataset	Ian	Wright	Macquarie University	
2398947	19839511	45086	Pultenaea obcordata	145.6333	-42.9086	346		Leaf compoundness	Global leaf size dataset	Ian	Wright	Macquarie University	
2398947	19839517	45086	Pultenaea obcordata	145.6333	-42.9086	346		Leaflet number per leaf	Global leaf size dataset	Ian	Wright	Macquarie University	
2398947	19839510	45086	Pultenaea obcordata	145.6333	-42.9086	346		Leaf phenology type	Global leaf size dataset	Ian	Wright	Macquarie University	
1728485	12650544	95635	Retrophyllum comptonii	147.324722222222	-42.905	60		Plant growth form	Xylem Functional Traits (XFT) Database	Steven	Jansen	Ulm University	
1728485	12650555	95635	Retrophyllum comptonii	147.324722222222	-42.905	60		Leaf phenology type	Xylem Functional Traits (XFT) Database	Steven	Jansen	Ulm University	
1728485	12650548	95635	Retrophyllum comptonii	147.324722222222	-42.905	60		Leaf area-specific conductivity (leaf specific conductivity)	Xylem Functional Traits (XFT) Database	Steven	Jansen	Ulm University	
1728485	12650551	95635	Retrophyllum comptonii	147.324722222222	-42.905	60		Wood vessel perforation plates	Xylem Functional Traits (XFT) Database	Steven	Jansen	Ulm University	
1728485	12650554	95635	Retrophyllum comptonii	147.324722222222	-42.905	60		Wood vessel grouping	Xylem Functional Traits (XFT) Database	Steven	Jansen	Ulm University	
1728485	12650547	95635	Retrophyllum comptonii	147.324722222222	-42.905	60		Wood (sapwood) specific conductivity (stem specific conductivity)	Xylem Functional Traits (XFT) Database	Steven	Jansen	Ulm University	
1728485	12650550	95635	Retrophyllum comptonii	147.324722222222	-42.905	60		Wood growth ring distinction	Xylem Functional Traits (XFT) Database	Steven	Jansen	Ulm University	
1728485	12650553	95635	Retrophyllum comptonii	147.324722222222	-42.905	60		Wood vessels surrounded by tracheids (vasicentric tracheids)	Xylem Functional Traits (XFT) Database	Steven	Jansen	Ulm University	
1728485	12650546	95635	Retrophyllum comptonii	147.324722222222	-42.905	60		Plant life form (Raunkiaer life form)	Xylem Functional Traits (XFT) Database	Steven	Jansen	Ulm University	
1728485	12650549	95635	Retrophyllum comptonii	147.324722222222	-42.905	60		Stem sapwood cross-sectional area per supported leaf surface area (Huber value)	Xylem Functional Traits (XFT) Database	Steven	Jansen	Ulm University	
1728485	12650552	95635	Retrophyllum comptonii	147.324722222222	-42.905	60		Wood fibre types	Xylem Functional Traits (XFT) Database	Steven	Jansen	Ulm University	
2668177	23679140	46547	Richea pandanifolia	146.589347	-42.683857			Bark thickness (inner bark)	Dataset for Rosell 2016 New Phytologist	Julieta	Rosell	Universidad Nacional Autonoma de México	
2669045	23689044	46547	Richea pandanifolia	146.589347	-42.683857			Stem diameter	Dataset for Rosell et al. 2017 New Phytologist	Julieta	Rosell	Universidad Nacional Autonoma de México	
2669045	23689047	46547	Richea pandanifolia	146.589347	-42.683857			Bark thickness (outer bark)	Dataset for Rosell et al. 2017 New Phytologist	Julieta	Rosell	Universidad Nacional Autonoma de México	
2668177	23679139	46547	Richea pandanifolia	146.589347	-42.683857			Bark thickness	Dataset for Rosell 2016 New Phytologist	Julieta	Rosell	Universidad Nacional Autonoma de México	
2669045	23689043	46547	Richea pandanifolia	146.589347	-42.683857			Plant growth form	Dataset for Rosell et al. 2017 New Phytologist	Julieta	Rosell	Universidad Nacional Autonoma de México	
2669045	23689046	46547	Richea pandanifolia	146.589347	-42.683857			Bark thickness (inner bark)	Dataset for Rosell et al. 2017 New Phytologist	Julieta	Rosell	Universidad Nacional Autonoma de México	
2668177	23679138	46547	Richea pandanifolia	146.589347	-42.683857			Stem diameter	Dataset for Rosell 2016 New Phytologist	Julieta	Rosell	Universidad Nacional Autonoma de México	
2669045	23689042	46547	Richea pandanifolia	146.589347	-42.683857			Stem construction type	Dataset for Rosell et al. 2017 New Phytologist	Julieta	Rosell	Universidad Nacional Autonoma de México	
2668177	23679141	46547	Richea pandanifolia	146.589347	-42.683857			Bark thickness (outer bark)	Dataset for Rosell 2016 New Phytologist	Julieta	Rosell	Universidad Nacional Autonoma de México	
2669045	23689045	46547	Richea pandanifolia	146.589347	-42.683857			Bark thickness	Dataset for Rosell et al. 2017 New Phytologist	Julieta	Rosell	Universidad Nacional Autonoma de México	
2668178	23679149	46548	Richea scoparia	146.589347	-42.683857			Bark thickness (inner bark)	Dataset for Rosell 2016 New Phytologist	Julieta	Rosell	Universidad Nacional Autonoma de México	
2669046	23689054	46548	Richea scoparia	146.589347	-42.683857			Stem construction type	Dataset for Rosell et al. 2017 New Phytologist	Julieta	Rosell	Universidad Nacional Autonoma de México	
2391670	19733540	46548	Richea scoparia	147.2353	-42.8964	1271		Leaf compoundness	Global leaf size dataset	Ian	Wright	Macquarie University	
2669046	23689057	46548	Richea scoparia	146.589347	-42.683857			Bark thickness	Dataset for Rosell et al. 2017 New Phytologist	Julieta	Rosell	Universidad Nacional Autonoma de México	
2391670	19733546	46548	Richea scoparia	147.2353	-42.8964	1271		Leaflet number per leaf	Global leaf size dataset	Ian	Wright	Macquarie University	
2668178	23679148	46548	Richea scoparia	146.589347	-42.683857			Bark thickness	Dataset for Rosell 2016 New Phytologist	Julieta	Rosell	Universidad Nacional Autonoma de México	
2391670	19733539	46548	Richea scoparia	147.2353	-42.8964	1271		Leaf phenology type	Global leaf size dataset	Ian	Wright	Macquarie University	
2669046	23689056	46548	Richea scoparia	146.589347	-42.683857			Stem diameter	Dataset for Rosell et al. 2017 New Phytologist	Julieta	Rosell	Universidad Nacional Autonoma de México	
2391670	19733542	46548	Richea scoparia	147.2353	-42.8964	1271		Leaf area (in case of compound leaves: leaf, undefined if petiole in- or excluded)	Global leaf size dataset	Ian	Wright	Macquarie University	
2669046	23689059	46548	Richea scoparia	146.589347	-42.683857			Bark thickness (outer bark)	Dataset for Rosell et al. 2017 New Phytologist	Julieta	Rosell	Universidad Nacional Autonoma de México	
2668178	23679147	46548	Richea scoparia	146.589347	-42.683857			Stem diameter	Dataset for Rosell 2016 New Phytologist	Julieta	Rosell	Universidad Nacional Autonoma de México	
2391670	19733538	46548	Richea scoparia	147.2353	-42.8964	1271		Plant woodiness	Global leaf size dataset	Ian	Wright	Macquarie University	
2668178	23679150	46548	Richea scoparia	146.589347	-42.683857			Bark thickness (outer bark)	Dataset for Rosell 2016 New Phytologist	Julieta	Rosell	Universidad Nacional Autonoma de México	
2669046	23689055	46548	Richea scoparia	146.589347	-42.683857			Plant growth form	Dataset for Rosell et al. 2017 New Phytologist	Julieta	Rosell	Universidad Nacional Autonoma de México	
2391670	19733541	46548	Richea scoparia	147.2353	-42.8964	1271		Leaf area (in case of compound leaves: leaflet, undefined if petiole is in- or excluded)	Global leaf size dataset	Ian	Wright	Macquarie University	
2669046	23689058	46548	Richea scoparia	146.589347	-42.683857			Bark thickness (inner bark)	Dataset for Rosell et al. 2017 New Phytologist	Julieta	Rosell	Universidad Nacional Autonoma de México	
2391670	19733537	46548	Richea scoparia	147.2353	-42.8964	1271		Plant growth form	Global leaf size dataset	Ian	Wright	Macquarie University	
2669047	23689067	46549	Richea sprengelioides	146.589347	-42.683857			Plant growth form	Dataset for Rosell et al. 2017 New Phytologist	Julieta	Rosell	Universidad Nacional Autonoma de México	
2391671	19733555	46549	Richea sprengelioides	147.2353	-42.8964	1271		Leaf compoundness	Global leaf size dataset	Ian	Wright	Macquarie University	
2669047	23689070	46549	Richea sprengelioides	146.589347	-42.683857			Bark thickness (inner bark)	Dataset for Rosell et al. 2017 New Phytologist	Julieta	Rosell	Universidad Nacional Autonoma de México	
2391671	19733561	46549	Richea sprengelioides	147.2353	-42.8964	1271		Leaflet number per leaf	Global leaf size dataset	Ian	Wright	Macquarie University	
2668179	23679157	46549	Richea sprengelioides	146.589347	-42.683857			Bark thickness	Dataset for Rosell 2016 New Phytologist	Julieta	Rosell	Universidad Nacional Autonoma de México	
2669047	23689066	46549	Richea sprengelioides	146.589347	-42.683857			Stem construction type	Dataset for Rosell et al. 2017 New Phytologist	Julieta	Rosell	Universidad Nacional Autonoma de México	
2391671	19733554	46549	Richea sprengelioides	147.2353	-42.8964	1271		Leaf phenology type	Global leaf size dataset	Ian	Wright	Macquarie University	
2669047	23689069	46549	Richea sprengelioides	146.589347	-42.683857			Bark thickness	Dataset for Rosell et al. 2017 New Phytologist	Julieta	Rosell	Universidad Nacional Autonoma de México	
2391671	19733557	46549	Richea sprengelioides	147.2353	-42.8964	1271		Leaf area (in case of compound leaves: leaf, undefined if petiole in- or excluded)	Global leaf size dataset	Ian	Wright	Macquarie University	
2668179	23679156	46549	Richea sprengelioides	146.589347	-42.683857			Stem diameter	Dataset for Rosell 2016 New Phytologist	Julieta	Rosell	Universidad Nacional Autonoma de México	
2668179	23679159	46549	Richea sprengelioides	146.589347	-42.683857			Bark thickness (outer bark)	Dataset for Rosell 2016 New Phytologist	Julieta	Rosell	Universidad Nacional Autonoma de México	
2391671	19733553	46549	Richea sprengelioides	147.2353	-42.8964	1271		Plant woodiness	Global leaf size dataset	Ian	Wright	Macquarie University	
2669047	23689068	46549	Richea sprengelioides	146.589347	-42.683857			Stem diameter	Dataset for Rosell et al. 2017 New Phytologist	Julieta	Rosell	Universidad Nacional Autonoma de México	
2391671	19733556	46549	Richea sprengelioides	147.2353	-42.8964	1271		Leaf area (in case of compound leaves: leaflet, undefined if petiole is in- or excluded)	Global leaf size dataset	Ian	Wright	Macquarie University	
2669047	23689071	46549	Richea sprengelioides	146.589347	-42.683857			Bark thickness (outer bark)	Dataset for Rosell et al. 2017 New Phytologist	Julieta	Rosell	Universidad Nacional Autonoma de México	
2668179	23679158	46549	Richea sprengelioides	146.589347	-42.683857			Bark thickness (inner bark)	Dataset for Rosell 2016 New Phytologist	Julieta	Rosell	Universidad Nacional Autonoma de México	
2391671	19733552	46549	Richea sprengelioides	147.2353	-42.8964	1271		Plant growth form	Global leaf size dataset	Ian	Wright	Macquarie University	
799223	4584494	258004	Rubus	145.3	-42.183333	2	1991-11-12	Leaf area (in case of compound leaves: leaflet, undefined if petiole is in- or excluded)	VegClass CBM Global Database	Andy	Gillison	Center for Biodiversity Management	
799223	4584500	258004	Rubus	145.3	-42.183333	2	1991-11-12	Leaf phenology type	VegClass CBM Global Database	Andy	Gillison	Center for Biodiversity Management	
799223	4584503	258004	Rubus	145.3	-42.183333	2	1991-11-12	Plant woodiness	VegClass CBM Global Database	Andy	Gillison	Center for Biodiversity Management	
799223	4584472	258004	Rubus	145.3	-42.183333	2	1991-11-12	Plant functional type (PFT)	VegClass CBM Global Database	Andy	Gillison	Center for Biodiversity Management	
1254748	4584505	258004	Rubus	145.3	-42.183333	2	1991-11-12	Plant life form (Raunkiaer life form)	VegClass CBM Global Database	Andy	Gillison	Center for Biodiversity Management	
799223	4584499	258004	Rubus	145.3	-42.183333	2	1991-11-12	Leaf type	VegClass CBM Global Database	Andy	Gillison	Center for Biodiversity Management	
799223	4584502	258004	Rubus	145.3	-42.183333	2	1991-11-12	Plant morphological adaptations: root metamorphoses	VegClass CBM Global Database	Andy	Gillison	Center for Biodiversity Management	
1254747	4584504	258004	Rubus	145.3	-42.183333	2	1991-11-12	Plant life form (Raunkiaer life form)	VegClass CBM Global Database	Andy	Gillison	Center for Biodiversity Management	
1221546	4584498	258004	Rubus	145.3	-42.183333	2	1991-11-12	Leaf angle (inclination, orientation)	VegClass CBM Global Database	Andy	Gillison	Center for Biodiversity Management	
799223	4584497	258004	Rubus	145.3	-42.183333	2	1991-11-12	Leaf angle (inclination, orientation)	VegClass CBM Global Database	Andy	Gillison	Center for Biodiversity Management	
799223	4584501	258004	Rubus	145.3	-42.183333	2	1991-11-12	Plant life form (Raunkiaer life form)	VegClass CBM Global Database	Andy	Gillison	Center for Biodiversity Management	
4523764	50625332	264662	Styphelia glauca	147.2	-43			Leaf area-specific conductivity (leaf specific conductivity)	Plant Hydraulic Traits	Stefano	Manzoni	Stockholm University	
4523764	50625340	264662	Styphelia glauca	147.2	-43			Leaf phenology type	Plant Hydraulic Traits	Stefano	Manzoni	Stockholm University	
4523764	50625339	264662	Styphelia glauca	147.2	-43			Plant woodiness	Plant Hydraulic Traits	Stefano	Manzoni	Stockholm University	
4523764	50625333	264662	Styphelia glauca	147.2	-43			Wood (sapwood) specific conductivity (stem specific conductivity)	Plant Hydraulic Traits	Stefano	Manzoni	Stockholm University	
1254749	4584538	265497	Tasmannia	145.3	-42.183333	2	1991-11-12	Plant life form (Raunkiaer life form)	VegClass CBM Global Database	Andy	Gillison	Center for Biodiversity Management	
799224	4584536	265497	Tasmannia	145.3	-42.183333	2	1991-11-12	Leaf type	VegClass CBM Global Database	Andy	Gillison	Center for Biodiversity Management	
799224	4584540	265497	Tasmannia	145.3	-42.183333	2	1991-11-12	Plant woodiness	VegClass CBM Global Database	Andy	Gillison	Center for Biodiversity Management	
1221547	4584535	265497	Tasmannia	145.3	-42.183333	2	1991-11-12	Leaf angle (inclination, orientation)	VegClass CBM Global Database	Andy	Gillison	Center for Biodiversity Management	
799224	4584534	265497	Tasmannia	145.3	-42.183333	2	1991-11-12	Leaf angle (inclination, orientation)	VegClass CBM Global Database	Andy	Gillison	Center for Biodiversity Management	
799224	4584539	265497	Tasmannia	145.3	-42.183333	2	1991-11-12	Plant morphological adaptations: root metamorphoses	VegClass CBM Global Database	Andy	Gillison	Center for Biodiversity Management	
799224	4584531	265497	Tasmannia	145.3	-42.183333	2	1991-11-12	Leaf area (in case of compound leaves: leaflet, undefined if petiole is in- or excluded)	VegClass CBM Global Database	Andy	Gillison	Center for Biodiversity Management	
1254750	4584541	265497	Tasmannia	145.3	-42.183333	2	1991-11-12	Plant life form (Raunkiaer life form)	VegClass CBM Global Database	Andy	Gillison	Center for Biodiversity Management	
799224	4584537	265497	Tasmannia	145.3	-42.183333	2	1991-11-12	Leaf phenology type	VegClass CBM Global Database	Andy	Gillison	Center for Biodiversity Management	
799224	4584542	265497	Tasmannia	145.3	-42.183333	2	1991-11-12	Plant life form (Raunkiaer life form)	VegClass CBM Global Database	Andy	Gillison	Center for Biodiversity Management	
799224	4584509	265497	Tasmannia	145.3	-42.183333	2	1991-11-12	Plant functional type (PFT)	VegClass CBM Global Database	Andy	Gillison	Center for Biodiversity Management	
2460946	20011232	53513	Tasmannia lanceolata	146.6836	-43.0916	257		Leaf respiration rate in the dark per leaf dry mass	Global Respiration Database	Owen	Atkin	Australian National University	
2669137	23690133	53513	Tasmannia lanceolata	146.589347	-42.683857			Bark thickness (outer bark)	Dataset for Rosell et al. 2017 New Phytologist	Julieta	Rosell	Universidad Nacional Autonoma de México	
799233	4584830	53513	Tasmannia lanceolata	145.6	-42.45	0	1991-11-12	Plant morphological adaptations: root metamorphoses	VegClass CBM Global Database	Andy	Gillison	Center for Biodiversity Management	
2460946	20011244	53513	Tasmannia lanceolata	146.6836	-43.0916	257		Leaf nitrogen (N) content per leaf dry mass	Global Respiration Database	Owen	Atkin	Australian National University	
2460946	50885660	53513	Tasmannia lanceolata	146.6836	-43.0916	257		Leaf photosynthesis carboxylation capacity (Vcmax) per leaf dry mass (Farquhar model)	Global Respiration Database	Owen	Atkin	Australian National University	
2391672	19733576	53513	Tasmannia lanceolata	147.2353	-42.8964	1271		Leaflet number per leaf	Global leaf size dataset	Ian	Wright	Macquarie University	
2460946	20011221	53513	Tasmannia lanceolata	146.6836	-43.0916	257		Plant functional type (PFT)	Global Respiration Database	Owen	Atkin	Australian National University	
2460946	20011237	53513	Tasmannia lanceolata	146.6836	-43.0916	257		Leaf respiration rate in the dark per leaf area	Global Respiration Database	Owen	Atkin	Australian National University	
2460946	20011247	53513	Tasmannia lanceolata	146.6836	-43.0916	257		Leaf phosphorus (P) content per leaf area	Global Respiration Database	Owen	Atkin	Australian National University	
2460946	20011226	53513	Tasmannia lanceolata	146.6836	-43.0916	257		Stomata conductance per leaf area	Global Respiration Database	Owen	Atkin	Australian National University	
2669137	23690129	53513	Tasmannia lanceolata	146.589347	-42.683857			Plant growth form	Dataset for Rosell et al. 2017 New Phytologist	Julieta	Rosell	Universidad Nacional Autonoma de México	
1254762	4584832	53513	Tasmannia lanceolata	145.6	-42.45	0	1991-11-12	Plant life form (Raunkiaer life form)	VegClass CBM Global Database	Andy	Gillison	Center for Biodiversity Management	
799233	4584825	53513	Tasmannia lanceolata	145.6	-42.45	0	1991-11-12	Leaf angle (inclination, orientation)	VegClass CBM Global Database	Andy	Gillison	Center for Biodiversity Management	
2460946	20011240	53513	Tasmannia lanceolata	146.6836	-43.0916	257		Leaf respiration rate in the dark per leaf area	Global Respiration Database	Owen	Atkin	Australian National University	
2391672	19733569	53513	Tasmannia lanceolata	147.2353	-42.8964	1271		Leaf phenology type	Global leaf size dataset	Ian	Wright	Macquarie University	
2668242	23679711	53513	Tasmannia lanceolata	146.589347	-42.683857			Stem diameter	Dataset for Rosell 2016 New Phytologist	Julieta	Rosell	Universidad Nacional Autonoma de México	
2460946	20011250	53513	Tasmannia lanceolata	146.6836	-43.0916	257		Leaf photosynthesis carboxylation capacity (Vcmax) per leaf area (Farquhar model)	Global Respiration Database	Owen	Atkin	Australian National University	
2460946	20011217	53513	Tasmannia lanceolata	146.6836	-43.0916	257		Plant functional type (PFT)	Global Respiration Database	Owen	Atkin	Australian National University	
2460946	20011231	53513	Tasmannia lanceolata	146.6836	-43.0916	257		Leaf photosynthesis rate per leaf dry mass	Global Respiration Database	Owen	Atkin	Australian National University	
2669137	23690132	53513	Tasmannia lanceolata	146.589347	-42.683857			Bark thickness (inner bark)	Dataset for Rosell et al. 2017 New Phytologist	Julieta	Rosell	Universidad Nacional Autonoma de México	
799233	4584829	53513	Tasmannia lanceolata	145.6	-42.45	0	1991-11-12	Plant life form (Raunkiaer life form)	VegClass CBM Global Database	Andy	Gillison	Center for Biodiversity Management	
2460946	20011243	53513	Tasmannia lanceolata	146.6836	-43.0916	257		Leaf respiration rate in the dark per leaf dry mass	Global Respiration Database	Owen	Atkin	Australian National University	
2391672	19733572	53513	Tasmannia lanceolata	147.2353	-42.8964	1271		Leaf area (in case of compound leaves: leaf, undefined if petiole in- or excluded)	Global leaf size dataset	Ian	Wright	Macquarie University	
2668242	23679714	53513	Tasmannia lanceolata	146.589347	-42.683857			Bark thickness (outer bark)	Dataset for Rosell 2016 New Phytologist	Julieta	Rosell	Universidad Nacional Autonoma de México	
2460946	20011253	53513	Tasmannia lanceolata	146.6836	-43.0916	257		Leaf respiration rate in the dark as fraction of photosynthetic carboxylation capacity (Vcmax)	Global Respiration Database	Owen	Atkin	Australian National University	
2460946	20011220	53513	Tasmannia lanceolata	146.6836	-43.0916	257		Plant functional type (PFT)	Global Respiration Database	Owen	Atkin	Australian National University	
2460946	20011236	53513	Tasmannia lanceolata	146.6836	-43.0916	257		Leaf respiration rate in the dark per leaf dry mass	Global Respiration Database	Owen	Atkin	Australian National University	
2460946	20011246	53513	Tasmannia lanceolata	146.6836	-43.0916	257		Leaf nitrogen (N) content per leaf area	Global Respiration Database	Owen	Atkin	Australian National University	
2460946	20011225	53513	Tasmannia lanceolata	146.6836	-43.0916	257		Leaf photosynthesis rate per leaf area	Global Respiration Database	Owen	Atkin	Australian National University	
2669137	23690128	53513	Tasmannia lanceolata	146.589347	-42.683857			Stem construction type	Dataset for Rosell et al. 2017 New Phytologist	Julieta	Rosell	Universidad Nacional Autonoma de México	
799233	4584822	53513	Tasmannia lanceolata	145.6	-42.45	0	1991-11-12	Leaf area (in case of compound leaves: leaflet, undefined if petiole is in- or excluded)	VegClass CBM Global Database	Andy	Gillison	Center for Biodiversity Management	
2460946	20011239	53513	Tasmannia lanceolata	146.6836	-43.0916	257		Leaf respiration rate in the dark per leaf dry mass	Global Respiration Database	Owen	Atkin	Australian National University	
2391672	19733568	53513	Tasmannia lanceolata	147.2353	-42.8964	1271		Plant woodiness	Global leaf size dataset	Ian	Wright	Macquarie University	
2460946	20011249	53513	Tasmannia lanceolata	146.6836	-43.0916	257		Leaf photosynthesis carboxylation capacity (Vcmax) per leaf area (Farquhar model)	Global Respiration Database	Owen	Atkin	Australian National University	
2460946	20011229	53513	Tasmannia lanceolata	146.6836	-43.0916	257		Leaf respiration rate in the dark per leaf area	Global Respiration Database	Owen	Atkin	Australian National University	
2669137	23690131	53513	Tasmannia lanceolata	146.589347	-42.683857			Bark thickness	Dataset for Rosell et al. 2017 New Phytologist	Julieta	Rosell	Universidad Nacional Autonoma de México	
799233	4584828	53513	Tasmannia lanceolata	145.6	-42.45	0	1991-11-12	Leaf phenology type	VegClass CBM Global Database	Andy	Gillison	Center for Biodiversity Management	
2460946	20011242	53513	Tasmannia lanceolata	146.6836	-43.0916	257		Leaf respiration rate in the dark per leaf area	Global Respiration Database	Owen	Atkin	Australian National University	
2391672	19733571	53513	Tasmannia lanceolata	147.2353	-42.8964	1271		Leaf area (in case of compound leaves: leaflet, undefined if petiole is in- or excluded)	Global leaf size dataset	Ian	Wright	Macquarie University	
2668242	23679713	53513	Tasmannia lanceolata	146.589347	-42.683857			Bark thickness (inner bark)	Dataset for Rosell 2016 New Phytologist	Julieta	Rosell	Universidad Nacional Autonoma de México	
2460946	20011252	53513	Tasmannia lanceolata	146.6836	-43.0916	257		Leaf respiration rate in the dark as fraction of photosynthetic carboxylation capacity (Vcmax)	Global Respiration Database	Owen	Atkin	Australian National University	
2460946	20011219	53513	Tasmannia lanceolata	146.6836	-43.0916	257		Plant functional type (PFT)	Global Respiration Database	Owen	Atkin	Australian National University	
2460946	20011235	53513	Tasmannia lanceolata	146.6836	-43.0916	257		Leaf respiration rate in the dark per leaf area	Global Respiration Database	Owen	Atkin	Australian National University	
1221556	4584826	53513	Tasmannia lanceolata	145.6	-42.45	0	1991-11-12	Leaf angle (inclination, orientation)	VegClass CBM Global Database	Andy	Gillison	Center for Biodiversity Management	
799233	4584831	53513	Tasmannia lanceolata	145.6	-42.45	0	1991-11-12	Plant woodiness	VegClass CBM Global Database	Andy	Gillison	Center for Biodiversity Management	
2460946	20011245	53513	Tasmannia lanceolata	146.6836	-43.0916	257		Leaf phosphorus (P) content per leaf dry mass	Global Respiration Database	Owen	Atkin	Australian National University	
2460946	50949707	53513	Tasmannia lanceolata	146.6836	-43.0916	257		Stomata conductance per leaf dry mass	Global Respiration Database	Owen	Atkin	Australian National University	
2460946	20011222	53513	Tasmannia lanceolata	146.6836	-43.0916	257		Plant functional type (PFT)	Global Respiration Database	Owen	Atkin	Australian National University	
799233	4584804	53513	Tasmannia lanceolata	145.6	-42.45	0	1991-11-12	Plant functional type (PFT)	VegClass CBM Global Database	Andy	Gillison	Center for Biodiversity Management	
2460946	20011238	53513	Tasmannia lanceolata	146.6836	-43.0916	257		Leaf respiration rate in the dark per leaf area	Global Respiration Database	Owen	Atkin	Australian National University	
2391672	19733567	53513	Tasmannia lanceolata	147.2353	-42.8964	1271		Plant growth form	Global leaf size dataset	Ian	Wright	Macquarie University	
2460946	20011248	53513	Tasmannia lanceolata	146.6836	-43.0916	257		Leaf area per leaf dry mass (specific leaf area, SLA or 1/LMA): petiole included	Global Respiration Database	Owen	Atkin	Australian National University	
2460946	20011227	53513	Tasmannia lanceolata	146.6836	-43.0916	257		Leaf photosynthesis: intercellular CO2 concentration	Global Respiration Database	Owen	Atkin	Australian National University	
2669137	23690130	53513	Tasmannia lanceolata	146.589347	-42.683857			Stem diameter	Dataset for Rosell et al. 2017 New Phytologist	Julieta	Rosell	Universidad Nacional Autonoma de México	
1254763	4584833	53513	Tasmannia lanceolata	145.6	-42.45	0	1991-11-12	Plant life form (Raunkiaer life form)	VegClass CBM Global Database	Andy	Gillison	Center for Biodiversity Management	
799233	4584827	53513	Tasmannia lanceolata	145.6	-42.45	0	1991-11-12	Leaf type	VegClass CBM Global Database	Andy	Gillison	Center for Biodiversity Management	
2460946	20011241	53513	Tasmannia lanceolata	146.6836	-43.0916	257		Leaf respiration rate in the dark per leaf dry mass	Global Respiration Database	Owen	Atkin	Australian National University	
2391672	19733570	53513	Tasmannia lanceolata	147.2353	-42.8964	1271		Leaf compoundness	Global leaf size dataset	Ian	Wright	Macquarie University	
2668242	23679712	53513	Tasmannia lanceolata	146.589347	-42.683857			Bark thickness	Dataset for Rosell 2016 New Phytologist	Julieta	Rosell	Universidad Nacional Autonoma de México	
2460946	20011251	53513	Tasmannia lanceolata	146.6836	-43.0916	257		Leaf photosynthesis carboxylation capacity (Vcmax) per leaf dry mass (Farquhar model)	Global Respiration Database	Owen	Atkin	Australian National University	
2460946	20011218	53513	Tasmannia lanceolata	146.6836	-43.0916	257		Plant functional type (PFT)	Global Respiration Database	Owen	Atkin	Australian National University	
2668246	23679747	53593	Telopea truncata	146.589347	-42.683857			Stem diameter	Dataset for Rosell 2016 New Phytologist	Julieta	Rosell	Universidad Nacional Autonoma de México	
2669142	23690190	53593	Telopea truncata	146.589347	-42.683857			Stem diameter	Dataset for Rosell et al. 2017 New Phytologist	Julieta	Rosell	Universidad Nacional Autonoma de México	
2668246	23679750	53593	Telopea truncata	146.589347	-42.683857			Bark thickness (outer bark)	Dataset for Rosell 2016 New Phytologist	Julieta	Rosell	Universidad Nacional Autonoma de México	
2391673	19733584	53593	Telopea truncata	147.2353	-42.8964	1271		Leaf phenology type	Global leaf size dataset	Ian	Wright	Macquarie University	
2669142	23690193	53593	Telopea truncata	146.589347	-42.683857			Bark thickness (outer bark)	Dataset for Rosell et al. 2017 New Phytologist	Julieta	Rosell	Universidad Nacional Autonoma de México	
2391673	19733587	53593	Telopea truncata	147.2353	-42.8964	1271		Leaf area (in case of compound leaves: leaf, undefined if petiole in- or excluded)	Global leaf size dataset	Ian	Wright	Macquarie University	
2669142	23690189	53593	Telopea truncata	146.589347	-42.683857			Plant growth form	Dataset for Rosell et al. 2017 New Phytologist	Julieta	Rosell	Universidad Nacional Autonoma de México	
2668246	23679749	53593	Telopea truncata	146.589347	-42.683857			Bark thickness (inner bark)	Dataset for Rosell 2016 New Phytologist	Julieta	Rosell	Universidad Nacional Autonoma de México	
2391673	19733583	53593	Telopea truncata	147.2353	-42.8964	1271		Plant woodiness	Global leaf size dataset	Ian	Wright	Macquarie University	
2669142	23690192	53593	Telopea truncata	146.589347	-42.683857			Bark thickness (inner bark)	Dataset for Rosell et al. 2017 New Phytologist	Julieta	Rosell	Universidad Nacional Autonoma de México	
2391673	19733586	53593	Telopea truncata	147.2353	-42.8964	1271		Leaf area (in case of compound leaves: leaflet, undefined if petiole is in- or excluded)	Global leaf size dataset	Ian	Wright	Macquarie University	
2669142	23690188	53593	Telopea truncata	146.589347	-42.683857			Stem construction type	Dataset for Rosell et al. 2017 New Phytologist	Julieta	Rosell	Universidad Nacional Autonoma de México	
2668246	23679748	53593	Telopea truncata	146.589347	-42.683857			Bark thickness	Dataset for Rosell 2016 New Phytologist	Julieta	Rosell	Universidad Nacional Autonoma de México	
2391673	19733582	53593	Telopea truncata	147.2353	-42.8964	1271		Plant growth form	Global leaf size dataset	Ian	Wright	Macquarie University	
2669142	23690191	53593	Telopea truncata	146.589347	-42.683857			Bark thickness	Dataset for Rosell et al. 2017 New Phytologist	Julieta	Rosell	Universidad Nacional Autonoma de México	
2391673	19733585	53593	Telopea truncata	147.2353	-42.8964	1271		Leaf compoundness	Global leaf size dataset	Ian	Wright	Macquarie University	
2391673	19733591	53593	Telopea truncata	147.2353	-42.8964	1271		Leaflet number per leaf	Global leaf size dataset	Ian	Wright	Macquarie University	
2669143	23690203	99603	Tetracarpaea tasmannica	146.589347	-42.683857			Bark thickness	Dataset for Rosell et al. 2017 New Phytologist	Julieta	Rosell	Universidad Nacional Autonoma de México	
2668247	23679758	99603	Tetracarpaea tasmannica	146.589347	-42.683857			Bark thickness (inner bark)	Dataset for Rosell 2016 New Phytologist	Julieta	Rosell	Universidad Nacional Autonoma de México	
2669143	23690202	99603	Tetracarpaea tasmannica	146.589347	-42.683857			Stem diameter	Dataset for Rosell et al. 2017 New Phytologist	Julieta	Rosell	Universidad Nacional Autonoma de México	
2669143	23690205	99603	Tetracarpaea tasmannica	146.589347	-42.683857			Bark thickness (outer bark)	Dataset for Rosell et al. 2017 New Phytologist	Julieta	Rosell	Universidad Nacional Autonoma de México	
2668247	23679757	99603	Tetracarpaea tasmannica	146.589347	-42.683857			Bark thickness	Dataset for Rosell 2016 New Phytologist	Julieta	Rosell	Universidad Nacional Autonoma de México	
2669143	23690201	99603	Tetracarpaea tasmannica	146.589347	-42.683857			Plant growth form	Dataset for Rosell et al. 2017 New Phytologist	Julieta	Rosell	Universidad Nacional Autonoma de México	
2669143	23690204	99603	Tetracarpaea tasmannica	146.589347	-42.683857			Bark thickness (inner bark)	Dataset for Rosell et al. 2017 New Phytologist	Julieta	Rosell	Universidad Nacional Autonoma de México	
2668247	23679756	99603	Tetracarpaea tasmannica	146.589347	-42.683857			Stem diameter	Dataset for Rosell 2016 New Phytologist	Julieta	Rosell	Universidad Nacional Autonoma de México	
2669143	23690200	99603	Tetracarpaea tasmannica	146.589347	-42.683857			Stem construction type	Dataset for Rosell et al. 2017 New Phytologist	Julieta	Rosell	Universidad Nacional Autonoma de México	
2668247	23679759	99603	Tetracarpaea tasmannica	146.589347	-42.683857			Bark thickness (outer bark)	Dataset for Rosell 2016 New Phytologist	Julieta	Rosell	Universidad Nacional Autonoma de México	
1728034	12608248	54461	Toona australis	147.324722222222	-42.905	60		Plant growth form	Xylem Functional Traits (XFT) Database	Steven	Jansen	Ulm University	
1728034	12608262	54461	Toona australis	147.324722222222	-42.905	60		Leaf phenology type	Xylem Functional Traits (XFT) Database	Steven	Jansen	Ulm University	
1728034	12608255	54461	Toona australis	147.324722222222	-42.905	60		Leaf area-specific conductivity (leaf specific conductivity)	Xylem Functional Traits (XFT) Database	Steven	Jansen	Ulm University	
1728034	12608258	54461	Toona australis	147.324722222222	-42.905	60		Wood vessel perforation plates	Xylem Functional Traits (XFT) Database	Steven	Jansen	Ulm University	
1728034	12608261	54461	Toona australis	147.324722222222	-42.905	60		Wood vessel grouping	Xylem Functional Traits (XFT) Database	Steven	Jansen	Ulm University	
1728034	12608251	54461	Toona australis	147.324722222222	-42.905	60		Xylem hydraulic vulnerability, xylem cavitation vulnerability, embolism vulnerability, (P20, P50, P8	Xylem Functional Traits (XFT) Database	Steven	Jansen	Ulm University	
1728034	12608257	54461	Toona australis	147.324722222222	-42.905	60		Wood growth ring distinction	Xylem Functional Traits (XFT) Database	Steven	Jansen	Ulm University	
1728034	12608260	54461	Toona australis	147.324722222222	-42.905	60		Wood vessels surrounded by tracheids (vasicentric tracheids)	Xylem Functional Traits (XFT) Database	Steven	Jansen	Ulm University	
1728034	12608250	54461	Toona australis	147.324722222222	-42.905	60		Plant life form (Raunkiaer life form)	Xylem Functional Traits (XFT) Database	Steven	Jansen	Ulm University	
1728034	12608256	54461	Toona australis	147.324722222222	-42.905	60		Wood vestures presence	Xylem Functional Traits (XFT) Database	Steven	Jansen	Ulm University	
1728034	12608259	54461	Toona australis	147.324722222222	-42.905	60		Wood fibre types	Xylem Functional Traits (XFT) Database	Steven	Jansen	Ulm University	
2668256	23679839	268090	Trochocarpa disticha	146.589347	-42.683857			Bark thickness (inner bark)	Dataset for Rosell 2016 New Phytologist	Julieta	Rosell	Universidad Nacional Autonoma de México	
2669159	23690386	268090	Trochocarpa disticha	146.589347	-42.683857			Stem construction type	Dataset for Rosell et al. 2017 New Phytologist	Julieta	Rosell	Universidad Nacional Autonoma de México	
2669159	23690389	268090	Trochocarpa disticha	146.589347	-42.683857			Bark thickness	Dataset for Rosell et al. 2017 New Phytologist	Julieta	Rosell	Universidad Nacional Autonoma de México	
2668256	23679838	268090	Trochocarpa disticha	146.589347	-42.683857			Bark thickness	Dataset for Rosell 2016 New Phytologist	Julieta	Rosell	Universidad Nacional Autonoma de México	
2669159	23690388	268090	Trochocarpa disticha	146.589347	-42.683857			Stem diameter	Dataset for Rosell et al. 2017 New Phytologist	Julieta	Rosell	Universidad Nacional Autonoma de México	
2668256	23679837	268090	Trochocarpa disticha	146.589347	-42.683857			Stem diameter	Dataset for Rosell 2016 New Phytologist	Julieta	Rosell	Universidad Nacional Autonoma de México	
2669159	23690391	268090	Trochocarpa disticha	146.589347	-42.683857			Bark thickness (outer bark)	Dataset for Rosell et al. 2017 New Phytologist	Julieta	Rosell	Universidad Nacional Autonoma de México	
2668256	23679840	268090	Trochocarpa disticha	146.589347	-42.683857			Bark thickness (outer bark)	Dataset for Rosell 2016 New Phytologist	Julieta	Rosell	Universidad Nacional Autonoma de México	
2669159	23690387	268090	Trochocarpa disticha	146.589347	-42.683857			Plant growth form	Dataset for Rosell et al. 2017 New Phytologist	Julieta	Rosell	Universidad Nacional Autonoma de México	
2669159	23690390	268090	Trochocarpa disticha	146.589347	-42.683857			Bark thickness (inner bark)	Dataset for Rosell et al. 2017 New Phytologist	Julieta	Rosell	Universidad Nacional Autonoma de México	
3037660	30561428	100445	Trochocarpa gunnii	146.52173	-42.71884	433		Leaf chlorophyll a/b ratio	The Global Leaf Traits	Serge	Sheremetev	Komarov Botanical Institute	
3037660	50865371	100445	Trochocarpa gunnii	146.52173	-42.71884	433		Leaf phosphorus (P) content per leaf area	The Global Leaf Traits	Serge	Sheremetev	Komarov Botanical Institute	
3037660	30561431	100445	Trochocarpa gunnii	146.52173	-42.71884	433		Leaf area per leaf dry mass (specific leaf area, SLA or 1/LMA): undefined if petiole is in- or exclu	The Global Leaf Traits	Serge	Sheremetev	Komarov Botanical Institute	
3037660	30561424	100445	Trochocarpa gunnii	146.52173	-42.71884	433		Plant growth form	The Global Leaf Traits	Serge	Sheremetev	Komarov Botanical Institute	
3037660	30561434	100445	Trochocarpa gunnii	146.52173	-42.71884	433		Leaf nitrogen (N) content per leaf dry mass	The Global Leaf Traits	Serge	Sheremetev	Komarov Botanical Institute	
3037660	30561427	100445	Trochocarpa gunnii	146.52173	-42.71884	433		Leaf chlorophyll content per leaf dry mass	The Global Leaf Traits	Serge	Sheremetev	Komarov Botanical Institute	
3037660	50836237	100445	Trochocarpa gunnii	146.52173	-42.71884	433		Leaf nitrogen (N) content per leaf area	The Global Leaf Traits	Serge	Sheremetev	Komarov Botanical Institute	
3037660	30561430	100445	Trochocarpa gunnii	146.52173	-42.71884	433		Leaf thickness	The Global Leaf Traits	Serge	Sheremetev	Komarov Botanical Institute	
3037660	50935666	100445	Trochocarpa gunnii	146.52173	-42.71884	433		Leaf chlorophyll content per leaf area	The Global Leaf Traits	Serge	Sheremetev	Komarov Botanical Institute	
3037660	30561433	100445	Trochocarpa gunnii	146.52173	-42.71884	433		Leaf carbon (C) content per leaf dry mass	The Global Leaf Traits	Serge	Sheremetev	Komarov Botanical Institute	
3037660	30561426	100445	Trochocarpa gunnii	146.52173	-42.71884	433		Leaf chlorophyll content per leaf dry mass (Chl b)	The Global Leaf Traits	Serge	Sheremetev	Komarov Botanical Institute	
3037660	30561436	100445	Trochocarpa gunnii	146.52173	-42.71884	433		Leaf carbon/nitrogen (C/N) ratio	The Global Leaf Traits	Serge	Sheremetev	Komarov Botanical Institute	
3037660	30561429	100445	Trochocarpa gunnii	146.52173	-42.71884	433		Leaf carotenoid content per leaf dry mass	The Global Leaf Traits	Serge	Sheremetev	Komarov Botanical Institute	
3037660	50912392	100445	Trochocarpa gunnii	146.52173	-42.71884	433		Leaf carbon (C) content per leaf area	The Global Leaf Traits	Serge	Sheremetev	Komarov Botanical Institute	
3037660	30561432	100445	Trochocarpa gunnii	146.52173	-42.71884	433		Leaf density (leaf tissue density, leaf dry mass per leaf volume)	The Global Leaf Traits	Serge	Sheremetev	Komarov Botanical Institute	
3037660	30561425	100445	Trochocarpa gunnii	146.52173	-42.71884	433		Leaf chlorophyll content per leaf dry mass (Chl a)	The Global Leaf Traits	Serge	Sheremetev	Komarov Botanical Institute	
3037660	30561435	100445	Trochocarpa gunnii	146.52173	-42.71884	433		Leaf phosphorus (P) content per leaf dry mass	The Global Leaf Traits	Serge	Sheremetev	Komarov Botanical Institute	
4443609	49563960	268347	Unidentified species	145.28	-42.08			Leaf phenology type	FRED - Fine Root Ecology Database	Colleen	Iversen		
4443609	49563966	268347	Unidentified species	145.28	-42.08			Root rooting depth	FRED - Fine Root Ecology Database	Colleen	Iversen		
4443609	49563965	268347	Unidentified species	145.28	-42.08			Root rooting depth	FRED - Fine Root Ecology Database	Colleen	Iversen		
4443609	49563964	268347	Unidentified species	145.28	-42.08			Root rooting depth	FRED - Fine Root Ecology Database	Colleen	Iversen		
4443609	49563967	268347	Unidentified species	145.28	-42.08			Root rooting depth	FRED - Fine Root Ecology Database	Colleen	Iversen		
3037664	30561776	72268	Veronica formosa	147.271523	-42.917778	384		Leaf chlorophyll content per leaf dry mass	The Global Leaf Traits	Serge	Sheremetev	Komarov Botanical Institute	
3037664	50836241	72268	Veronica formosa	147.271523	-42.917778	384		Leaf nitrogen (N) content per leaf area	The Global Leaf Traits	Serge	Sheremetev	Komarov Botanical Institute	
3037664	30561769	72268	Veronica formosa	147.271523	-42.917778	384		Species genotype: chromosome number	The Global Leaf Traits	Serge	Sheremetev	Komarov Botanical Institute	
3037664	30561779	72268	Veronica formosa	147.271523	-42.917778	384		Leaf thickness	The Global Leaf Traits	Serge	Sheremetev	Komarov Botanical Institute	
3037664	50935670	72268	Veronica formosa	147.271523	-42.917778	384		Leaf chlorophyll content per leaf area	The Global Leaf Traits	Serge	Sheremetev	Komarov Botanical Institute	
3037664	30561772	72268	Veronica formosa	147.271523	-42.917778	384		Plant growth form	The Global Leaf Traits	Serge	Sheremetev	Komarov Botanical Institute	
3037664	30561782	72268	Veronica formosa	147.271523	-42.917778	384		Leaf carbon (C) content per leaf dry mass	The Global Leaf Traits	Serge	Sheremetev	Komarov Botanical Institute	
3037664	30561775	72268	Veronica formosa	147.271523	-42.917778	384		Leaf chlorophyll content per leaf dry mass (Chl b)	The Global Leaf Traits	Serge	Sheremetev	Komarov Botanical Institute	
3037664	30561785	72268	Veronica formosa	147.271523	-42.917778	384		Leaf carbon/nitrogen (C/N) ratio	The Global Leaf Traits	Serge	Sheremetev	Komarov Botanical Institute	
3037664	30561778	72268	Veronica formosa	147.271523	-42.917778	384		Leaf carotenoid content per leaf dry mass	The Global Leaf Traits	Serge	Sheremetev	Komarov Botanical Institute	
3037664	50912396	72268	Veronica formosa	147.271523	-42.917778	384		Leaf carbon (C) content per leaf area	The Global Leaf Traits	Serge	Sheremetev	Komarov Botanical Institute	
3037664	30561771	72268	Veronica formosa	147.271523	-42.917778	384		Species genotype: chromosome cDNA content	The Global Leaf Traits	Serge	Sheremetev	Komarov Botanical Institute	
3037664	30561781	72268	Veronica formosa	147.271523	-42.917778	384		Leaf density (leaf tissue density, leaf dry mass per leaf volume)	The Global Leaf Traits	Serge	Sheremetev	Komarov Botanical Institute	
3037664	30561774	72268	Veronica formosa	147.271523	-42.917778	384		Leaf chlorophyll content per leaf dry mass (Chl a)	The Global Leaf Traits	Serge	Sheremetev	Komarov Botanical Institute	
3037664	30561784	72268	Veronica formosa	147.271523	-42.917778	384		Leaf phosphorus (P) content per leaf dry mass	The Global Leaf Traits	Serge	Sheremetev	Komarov Botanical Institute	
3037664	30561777	72268	Veronica formosa	147.271523	-42.917778	384		Leaf chlorophyll a/b ratio	The Global Leaf Traits	Serge	Sheremetev	Komarov Botanical Institute	
3037664	50865375	72268	Veronica formosa	147.271523	-42.917778	384		Leaf phosphorus (P) content per leaf area	The Global Leaf Traits	Serge	Sheremetev	Komarov Botanical Institute	
3037664	30561770	72268	Veronica formosa	147.271523	-42.917778	384		Species genotype: chromosome ploidy	The Global Leaf Traits	Serge	Sheremetev	Komarov Botanical Institute	
3037664	30561780	72268	Veronica formosa	147.271523	-42.917778	384		Leaf area per leaf dry mass (specific leaf area, SLA or 1/LMA): undefined if petiole is in- or exclu	The Global Leaf Traits	Serge	Sheremetev	Komarov Botanical Institute	
3037664	30561773	72268	Veronica formosa	147.271523	-42.917778	384		Plant growth form	The Global Leaf Traits	Serge	Sheremetev	Komarov Botanical Institute	
3037664	30561783	72268	Veronica formosa	147.271523	-42.917778	384		Leaf nitrogen (N) content per leaf dry mass	The Global Leaf Traits	Serge	Sheremetev	Komarov Botanical Institute	
1728522	12654141	101301	Widdringtonia wallichii	147.324722222222	-42.905	60		Wood vessels surrounded by tracheids (vasicentric tracheids)	Xylem Functional Traits (XFT) Database	Steven	Jansen	Ulm University	
1728522	12654131	101301	Widdringtonia wallichii	147.324722222222	-42.905	60		Xylem hydraulic vulnerability, xylem cavitation vulnerability, embolism vulnerability, (P20, P50, P8	Xylem Functional Traits (XFT) Database	Steven	Jansen	Ulm University	
1728522	12654134	101301	Widdringtonia wallichii	147.324722222222	-42.905	60		Xylem hydraulic vulnerability, xylem cavitation vulnerability, embolism vulnerability, (P20, P50, P8	Xylem Functional Traits (XFT) Database	Steven	Jansen	Ulm University	
1728522	12654140	101301	Widdringtonia wallichii	147.324722222222	-42.905	60		Wood fibre types	Xylem Functional Traits (XFT) Database	Steven	Jansen	Ulm University	
1728522	12654130	101301	Widdringtonia wallichii	147.324722222222	-42.905	60		Plant life form (Raunkiaer life form)	Xylem Functional Traits (XFT) Database	Steven	Jansen	Ulm University	
1728522	12654143	101301	Widdringtonia wallichii	147.324722222222	-42.905	60		Leaf phenology type	Xylem Functional Traits (XFT) Database	Steven	Jansen	Ulm University	
1728522	12654133	101301	Widdringtonia wallichii	147.324722222222	-42.905	60		Xylem hydraulic vulnerability, xylem cavitation vulnerability, embolism vulnerability, (P20, P50, P8	Xylem Functional Traits (XFT) Database	Steven	Jansen	Ulm University	
1728522	12654139	101301	Widdringtonia wallichii	147.324722222222	-42.905	60		Wood vessel perforation plates	Xylem Functional Traits (XFT) Database	Steven	Jansen	Ulm University	
1728522	12654128	101301	Widdringtonia wallichii	147.324722222222	-42.905	60		Plant growth form	Xylem Functional Traits (XFT) Database	Steven	Jansen	Ulm University	
1728522	12654142	101301	Widdringtonia wallichii	147.324722222222	-42.905	60		Wood vessel grouping	Xylem Functional Traits (XFT) Database	Steven	Jansen	Ulm University	
1728522	12654132	101301	Widdringtonia wallichii	147.324722222222	-42.905	60		Xylem hydraulic vulnerability, xylem cavitation vulnerability, embolism vulnerability, (P20, P50, P8	Xylem Functional Traits (XFT) Database	Steven	Jansen	Ulm University	
1728522	12654138	101301	Widdringtonia wallichii	147.324722222222	-42.905	60		Wood growth ring distinction	Xylem Functional Traits (XFT) Database	Steven	Jansen	Ulm University	
